
SDP_2016.elf:     file format elf32-littlearm
SDP_2016.elf
architecture: arm, flags 0x00000112:
EXEC_P, HAS_SYMS, D_PAGED
start address 0x00000b35

Program Header:
    LOAD off    0x00008000 vaddr 0x00000000 paddr 0x00000000 align 2**15
         filesz 0x000000c0 memsz 0x000000c0 flags r--
    LOAD off    0x00008400 vaddr 0x00000400 paddr 0x00000400 align 2**15
         filesz 0x00000010 memsz 0x00000010 flags r--
    LOAD off    0x00008410 vaddr 0x00000410 paddr 0x00000410 align 2**15
         filesz 0x000015d8 memsz 0x000015d8 flags rwx
    LOAD off    0x0000f000 vaddr 0x1ffff000 paddr 0x000019e8 align 2**15
         filesz 0x00000060 memsz 0x00000218 flags rw-
    LOAD off    0x0000f218 vaddr 0x1ffff218 paddr 0x00001a48 align 2**15
         filesz 0x00000018 memsz 0x00000418 flags rw-
private flags = 5000002: [Version5 EABI] [has entry point]

Sections:
Idx Name          Size      VMA       LMA       File off  Algn  Flags
  0 .interrupts   000000c0  00000000  00000000  00008000  2**2  CONTENTS, ALLOC, LOAD, READONLY, DATA
  1 .cfmprotect   00000010  00000400  00000400  00008400  2**2  CONTENTS, ALLOC, LOAD, READONLY, DATA
  2 .text         000015c8  00000410  00000410  00008410  2**2  CONTENTS, ALLOC, LOAD, READONLY, CODE
  3 .ARM          00000008  000019d8  000019d8  000099d8  2**2  CONTENTS, ALLOC, LOAD, READONLY, DATA
  4 .init_array   00000004  000019e0  000019e0  000099e0  2**2  CONTENTS, ALLOC, LOAD, DATA
  5 .fini_array   00000004  000019e4  000019e4  000099e4  2**2  CONTENTS, ALLOC, LOAD, DATA
  6 .data         00000060  1ffff000  000019e8  0000f000  2**2  CONTENTS, ALLOC, LOAD, DATA
  7 .bss          000001b8  1ffff060  00001a48  0000f060  2**2  ALLOC
  8 .romp         00000018  1ffff218  00001a48  0000f218  2**0  CONTENTS, ALLOC, LOAD, DATA
  9 ._user_heap_stack 00000400  1ffff230  00001a60  0000f230  2**0  ALLOC
 10 .ARM.attributes 00000028  00000000  00000000  0000f230  2**0  CONTENTS, READONLY
 11 .debug_info   00003d89  00000000  00000000  0000f258  2**0  CONTENTS, READONLY, DEBUGGING
 12 .debug_abbrev 0000144d  00000000  00000000  00012fe1  2**0  CONTENTS, READONLY, DEBUGGING
 13 .debug_aranges 00000428  00000000  00000000  0001442e  2**0  CONTENTS, READONLY, DEBUGGING
 14 .debug_ranges 00000310  00000000  00000000  00014856  2**0  CONTENTS, READONLY, DEBUGGING
 15 .debug_macro  00012e64  00000000  00000000  00014b66  2**0  CONTENTS, READONLY, DEBUGGING
 16 .debug_line   0000418a  00000000  00000000  000279ca  2**0  CONTENTS, READONLY, DEBUGGING
 17 .debug_str    00040e05  00000000  00000000  0002bb54  2**0  CONTENTS, READONLY, DEBUGGING
 18 .comment      00000070  00000000  00000000  0006c959  2**0  CONTENTS, READONLY
 19 .debug_frame  00000bb4  00000000  00000000  0006c9cc  2**2  CONTENTS, READONLY, DEBUGGING
SYMBOL TABLE:
00000000 l    d  .interrupts	00000000 .interrupts
00000400 l    d  .cfmprotect	00000000 .cfmprotect
00000410 l    d  .text	00000000 .text
000019d8 l    d  .ARM	00000000 .ARM
000019e0 l    d  .init_array	00000000 .init_array
000019e4 l    d  .fini_array	00000000 .fini_array
1ffff000 l    d  .data	00000000 .data
1ffff060 l    d  .bss	00000000 .bss
1ffff218 l    d  .romp	00000000 .romp
1ffff230 l    d  ._user_heap_stack	00000000 ._user_heap_stack
00000000 l    d  .ARM.attributes	00000000 .ARM.attributes
00000000 l    d  .debug_info	00000000 .debug_info
00000000 l    d  .debug_abbrev	00000000 .debug_abbrev
00000000 l    d  .debug_aranges	00000000 .debug_aranges
00000000 l    d  .debug_ranges	00000000 .debug_ranges
00000000 l    d  .debug_macro	00000000 .debug_macro
00000000 l    d  .debug_line	00000000 .debug_line
00000000 l    d  .debug_str	00000000 .debug_str
00000000 l    d  .comment	00000000 .comment
00000000 l    d  .debug_frame	00000000 .debug_frame
00000000 l    df *ABS*	00000000 Vectors.c
00000000 l    df *ABS*	00000000 Cpu.c
00000000 l    df *ABS*	00000000 crtstuff.c
000019c0 l     O .text	00000000 __EH_FRAME_BEGIN__
00000410 l     F .text	00000000 __do_global_dtors_aux
1ffff060 l       .bss	00000000 completed.7863
000019e4 l     O .fini_array	00000000 __do_global_dtors_aux_fini_array_entry
00000438 l     F .text	00000000 frame_dummy
1ffff064 l       .bss	00000000 object.7868
000019e0 l     O .init_array	00000000 __frame_dummy_init_array_entry
00000000 l    df *ABS*	00000000 /opt/Freescale/KDS_v3/toolchain/bin/../lib/gcc/arm-none-eabi/4.8.4/../../../../arm-none-eabi/lib/armv6-m/crt0.o
00000000 l    df *ABS*	00000000 _udivsi3.o
000004ec l       .text	00000000 .udivsi3_skip_div0_test
00000000 l    df *ABS*	00000000 _divsi3.o
00000588 l       .text	00000000 .divsi3_skip_div0_test
00000000 l    df *ABS*	00000000 _dvmd_tls.o
00000000 l    df *ABS*	00000000 CameraController.c
00000000 l    df *ABS*	00000000 Events.c
00000000 l    df *ABS*	00000000 SerialCommunication.c
1ffff07c l     O .bss	00000008 deviceData
00000854 l     F .text	00000020 init_Serial
00000874 l     F .text	00000044 sendChar
00000000 l    df *ABS*	00000000 main.c
00000000 l    df *ABS*	00000000 startup.c
00000b48 l       .text	00000000 skip_sp
00000000 l    df *ABS*	00000000 AdcLdd1.c
1ffff084 l     O .bss	00000008 DeviceDataPrv__DEFAULT_RTOS_ALLOC
1ffff08c l     O .bss	00000004 INT_ADC0__DEFAULT_RTOS_ISRPARAM
00000000 l    df *ABS*	00000000 BitIoLdd1.c
1ffff090 l     O .bss	00000004 DeviceDataPrv__DEFAULT_RTOS_ALLOC
00000000 l    df *ABS*	00000000 BitIoLdd2.c
1ffff094 l     O .bss	00000004 DeviceDataPrv__DEFAULT_RTOS_ALLOC
00000000 l    df *ABS*	00000000 BitIoLdd3.c
1ffff098 l     O .bss	00000004 DeviceDataPrv__DEFAULT_RTOS_ALLOC
00000000 l    df *ABS*	00000000 ClockInterruption.c
00000000 l    df *ABS*	00000000 ImageConverter.c
1ffff09d l     O .bss	00000001 ModeFlg
1ffff0a0 l     O .bss	00000001 SampleGroup
1ffff0a4 l     O .bss	00000001 OutFlg
00000000 l    df *ABS*	00000000 SerialCom.c
1ffff0c4 l     O .bss	00000018 DeviceDataPrv__DEFAULT_RTOS_ALLOC
1ffff0dc l     O .bss	00000004 INT_UART0__DEFAULT_RTOS_ISRPARAM
000015a0 l     F .text	00000058 InterruptRx
000015f8 l     F .text	00000080 InterruptTx
00000000 l    df *ABS*	00000000 TU1.c
1ffff0e0 l     O .bss	00000008 DeviceDataPrv__DEFAULT_RTOS_ALLOC
1ffff0e8 l     O .bss	00000004 INT_PIT__DEFAULT_RTOS_ISRPARAM
00000000 l    df *ABS*	00000000 TimerIntLdd1.c
1ffff0ec l     O .bss	0000000c DeviceDataPrv__DEFAULT_RTOS_ALLOC
00000000 l    df *ABS*	00000000 exit.c
00000000 l    df *ABS*	00000000 init.c
00000000 l    df *ABS*	00000000 memset.c
00000000 l    df *ABS*	00000000 _exit.c
00000000 l    df *ABS*	00000000 impure.c
1ffff000 l     O .data	00000060 impure_data
00000000 l    df *ABS*	00000000 /opt/Freescale/KDS_v3/toolchain/bin/../lib/gcc/arm-none-eabi/4.8.4/armv6-m/crti.o
00000000 l    df *ABS*	00000000 /opt/Freescale/KDS_v3/toolchain/bin/../lib/gcc/arm-none-eabi/4.8.4/armv6-m/crtn.o
00000000 l    df *ABS*	00000000 PE_LDD.c
00000000 l    df *ABS*	00000000 
00000400 l       *ABS*	00000000 __stack_size
00020000 l       *ABS*	00000000 text_end
1ffff000 l       .data	00000000 _sdata
00001a60 l       .fini_array	00000000 data_init_end
000019e8 l       .fini_array	00000000 ___ROM_AT
00000000 l       *ABS*	00000000 __heap_size
000019e4 l       .init_array	00000000 __init_array_end
000019e0 l       .init_array	00000000 __preinit_array_end
20003000 l       *ABS*	00000000 _estack
1ffff060 l       .data	00000000 _edata
000019e0 l       .init_array	00000000 __init_array_start
000019e0 l       .init_array	00000000 __preinit_array_start
00000de8 g     F .text	00000030 AdcLdd1_MeasurementCompleteInterrupt
1ffff0f8 g     O .bss	00000004 clockCounter
1ffff230 g       ._user_heap_stack	00000000 __HeapBase
0000132c g     F .text	000001b0 SerialCom_Init
000017b0 g     F .text	0000002c TU1_Enable
1ffff230 g       ._user_heap_stack	00000000 __heap_addr
1ffff09c g     O .bss	00000001 SR_lock
000019e0 g       .ARM	00000000 __exidx_end
1ffff0fc g     O .bss	00000004 transferTime
00000f48 g     F .text	00000018 BitIoLdd2_SetVal
00000e18 g     F .text	00000060 BitIoLdd1_Init
000019d8 g       .text	00000000 _etext
00000000 g     O .interrupts	000000c0 __vect_table
00001300 g     F .text	0000002c ImageConverter_Init
00000c28 g     F .text	00000044 AdcLdd1_StartSingleMeasurement
000019e0 g       .init_array	00000000 __DTOR_END__
000018c4 g     F .text	0000002e TimerIntLdd1_Disable
000017dc g     F .text	00000030 TU1_Disable
000004e8 g     F .text	00000088 .hidden __udivsi3
1ffff060 g       .bss	00000000 __START_BSS
1ffff230 g       ._user_heap_stack	00000000 __HeapLimit
1ffff060 g       .bss	00000000 __bss_start__
0000083c g     F .text	00000018 SerialCom_OnBlockSent
000006f0 g     F .text	00000114 ClockInterruption_OnInterrupt
00000d30 g     F .text	000000b8 AdcLdd1_GetCalibrationResultStatus
1ffff210 g     O .bss	00000001 ImageConverter_OutV
0000067c g     F .text	00000030 initializeCamera
00000b34 g     F .text	00000030 __thumb_startup
000008b8 g     F .text	0000009a itoa_8_bit
000006ac g     F .text	0000003c testMode
000019d8 g       .ARM	00000000 __exidx_start
000019bc g     O .text	00000004 _global_impure_ptr
00001944 g     F .text	0000004c __libc_init_array
00000b2c  w    F .text	00000008 __init_user
00000470 g     F .text	00000000 _mainCRTStartup
1ffff108 g     O .bss	00000001 serialTest
000019c0 g     F .text	00000000 _init
1ffff100 g     O .bss	00000004 state
00001894 g     F .text	0000002e TimerIntLdd1_Enable
00000000  w      *UND*	00000000 __libc_fini_array
00000fec g     F .text	00000110 __init_hardware
00000ed0 g     F .text	00000060 BitIoLdd2_Init
00001678 g     F .text	00000064 SerialCom_Interrupt
000018f4 g     F .text	00000024 TU1_OnCounterRestart
1ffff214 g     O .bss	00000004 AdcLdd1_DeviceDataPtr
00000ea0 g     F .text	00000018 BitIoLdd1_ClrVal
00000000  w      *UND*	00000000 __sf_fake_stderr
00000000  w      *UND*	00000000 __deregister_frame_info
00000584 g     F .text	00000000 .hidden __aeabi_idiv
000009b4 g     F .text	000000d6 __copy_rom_section
000006e8 g     F .text	00000008 Cpu_OnNMIINT
000019e0 g       .init_array	00000000 __CTOR_LIST__
1ffff218 g       .bss	00000000 __bss_end__
00000000  w      *UND*	00000000 __call_exitprocs
00000f30 g     F .text	00000018 BitIoLdd2_ClrVal
00000470 g     F .text	00000000 _start
00000b64 g     F .text	000000c4 AdcLdd1_Init
00000eb8 g     F .text	00000018 BitIoLdd1_SetVal
00000400 g     O .cfmprotect	00000010 _cfm
0000082c g     F .text	0000000e SerialCom_OnBlockReceived
00000000 g       .interrupts	00000000 __vector_table
20003000 g       *ABS*	00000000 __SP_INIT
00000000  w      *UND*	00000000 software_init_hook
00000c6c g     F .text	00000064 AdcLdd1_CreateSampleGroup
00000824 g     F .text	00000008 ImageConverter_OnCalibrationEnd
000010fc g     F .text	000000e4 PE_low_level_init
00000644  w    F .text	00000002 .hidden __aeabi_ldiv0
00000cd0 g     F .text	00000060 AdcLdd1_GetMeasuredValues
00000a8c g     F .text	00000098 __copy_rom_sections_to_ram
00000000  w      *UND*	00000000 __sf_fake_stdin
1ffff20c g     O .bss	00000001 SR_reg
00001990 g     F .text	00000010 memset
000009a4 g     F .text	00000010 main
00000804 g     F .text	00000020 ImageConverter_OnEnd
000012a4 g     F .text	0000005c AdcLdd1_OnMeasurementComplete
000004e8 g     F .text	00000000 .hidden __aeabi_uidiv
00000fe0 g     F .text	0000000a Cpu_Interrupt
1ffff0a8 g     O .bss	0000001c PE_LDD_DeviceDataList
00000000  w      *UND*	00000000 hardware_init_hook
00000fc0 g     F .text	00000012 TimerIntLdd1_OnInterrupt
00000584 g     F .text	000000ac .hidden __divsi3
000019e0 g       .init_array	00000000 __CTOR_END__
000019e0 g       .init_array	00000000 __DTOR_LIST__
1ffff218 g       .bss	00000000 __END_BSS
000019cc g     F .text	00000000 _fini
00001a48 g       .fini_array	00000000 _romp_at
00000000  w      *UND*	00000000 atexit
1ffff109 g     O .bss	00000001 serialFinished
1ffff104 g     O .bss	00000004 measuringCounter
1ffff10a g     O .bss	00000001 serialTestStart
1ffff000 g       .data	00000000 _mtb_end
00000954 g     F .text	00000050 sendArrayOfPixels
0000180c g     F .text	00000038 TU1_Interrupt
00000648 g     F .text	00000034 cameraStartReading
00000f60 g     F .text	00000060 BitIoLdd3_Init
00001a48 g       .fini_array	00000000 __S_romp
000011e0 g     F .text	00000048 ImageConverter_HWEnDi
20003000 g       *ABS*	00000000 __stack
00000570 g     F .text	00000012 .hidden __aeabi_uidivmod
00001228 g     F .text	00000048 ImageConverter_Measure
00000e78 g     F .text	00000028 BitIoLdd1_GetVal
00001918 g     F .text	0000002c exit
00000b24  w    F .text	00000008 __init_registers
1ffff000 g       .data	00000000 _mtb_start
00000000  w      *UND*	00000000 __sf_fake_stdout
00001844 g     F .text	00000050 TimerIntLdd1_Init
000016dc g     F .text	000000d4 TU1_Init
00000644  w    F .text	00000002 .hidden __aeabi_idiv0
000019a0 g     F .text	00000002 _exit
000014dc g     F .text	000000c4 SerialCom_SendBlock
00000000  w      *UND*	00000000 _Jv_RegisterClasses
1ffff10c g     O .bss	00000100 pixelArray
00000630 g     F .text	00000012 .hidden __aeabi_idivmod
00000060 g       *ABS*	00000000 ___data_size
00000fd4 g     F .text	0000000c Cpu_INT_NMIInterrupt
00000000  w      *UND*	00000000 __register_frame_info
00001270 g     F .text	00000034 PE_ImageConverter_GetChanValue



Disassembly of section .text:

00000410 <__do_global_dtors_aux>:
$t():
     410:	b510      	push	{r4, lr}
     412:	4c06      	ldr	r4, [pc, #24]	; (42c <__do_global_dtors_aux+0x1c>)
     414:	7823      	ldrb	r3, [r4, #0]
     416:	2b00      	cmp	r3, #0
     418:	d107      	bne.n	42a <__do_global_dtors_aux+0x1a>
     41a:	4b05      	ldr	r3, [pc, #20]	; (430 <__do_global_dtors_aux+0x20>)
     41c:	2b00      	cmp	r3, #0
     41e:	d002      	beq.n	426 <__do_global_dtors_aux+0x16>
     420:	4804      	ldr	r0, [pc, #16]	; (434 <__do_global_dtors_aux+0x24>)
     422:	e000      	b.n	426 <__do_global_dtors_aux+0x16>
     424:	bf00      	nop
     426:	2301      	movs	r3, #1
     428:	7023      	strb	r3, [r4, #0]
     42a:	bd10      	pop	{r4, pc}
$d():
     42c:	1ffff060 	.word	0x1ffff060
     430:	00000000 	.word	0x00000000
     434:	000019c0 	.word	0x000019c0

00000438 <frame_dummy>:
$t():
     438:	b508      	push	{r3, lr}
     43a:	4b08      	ldr	r3, [pc, #32]	; (45c <frame_dummy+0x24>)
     43c:	2b00      	cmp	r3, #0
     43e:	d003      	beq.n	448 <frame_dummy+0x10>
     440:	4807      	ldr	r0, [pc, #28]	; (460 <frame_dummy+0x28>)
     442:	4908      	ldr	r1, [pc, #32]	; (464 <frame_dummy+0x2c>)
     444:	e000      	b.n	448 <frame_dummy+0x10>
     446:	bf00      	nop
     448:	4807      	ldr	r0, [pc, #28]	; (468 <frame_dummy+0x30>)
     44a:	6803      	ldr	r3, [r0, #0]
     44c:	2b00      	cmp	r3, #0
     44e:	d003      	beq.n	458 <frame_dummy+0x20>
     450:	4b06      	ldr	r3, [pc, #24]	; (46c <frame_dummy+0x34>)
     452:	2b00      	cmp	r3, #0
     454:	d000      	beq.n	458 <frame_dummy+0x20>
     456:	4798      	blx	r3
     458:	bd08      	pop	{r3, pc}
     45a:	46c0      	nop			; (mov r8, r8)
$d():
     45c:	00000000 	.word	0x00000000
     460:	000019c0 	.word	0x000019c0
     464:	1ffff064 	.word	0x1ffff064
     468:	1ffff060 	.word	0x1ffff060
     46c:	00000000 	.word	0x00000000

00000470 <_mainCRTStartup>:
$t():
     470:	4b16      	ldr	r3, [pc, #88]	; (4cc <_mainCRTStartup+0x5c>)
     472:	2b00      	cmp	r3, #0
     474:	d100      	bne.n	478 <_mainCRTStartup+0x8>
     476:	4b14      	ldr	r3, [pc, #80]	; (4c8 <_mainCRTStartup+0x58>)
     478:	469d      	mov	sp, r3
     47a:	2240      	movs	r2, #64	; 0x40
     47c:	0292      	lsls	r2, r2, #10
     47e:	1a9a      	subs	r2, r3, r2
     480:	4692      	mov	sl, r2
     482:	2100      	movs	r1, #0
     484:	468b      	mov	fp, r1
     486:	460f      	mov	r7, r1
     488:	4813      	ldr	r0, [pc, #76]	; (4d8 <_mainCRTStartup+0x68>)
     48a:	4a14      	ldr	r2, [pc, #80]	; (4dc <_mainCRTStartup+0x6c>)
     48c:	1a12      	subs	r2, r2, r0
     48e:	f001 fa7f 	bl	1990 <memset>
     492:	4b0f      	ldr	r3, [pc, #60]	; (4d0 <_mainCRTStartup+0x60>)
     494:	2b00      	cmp	r3, #0
     496:	d000      	beq.n	49a <_mainCRTStartup+0x2a>
     498:	4798      	blx	r3
     49a:	4b0e      	ldr	r3, [pc, #56]	; (4d4 <_mainCRTStartup+0x64>)
     49c:	2b00      	cmp	r3, #0
     49e:	d000      	beq.n	4a2 <_mainCRTStartup+0x32>
     4a0:	4798      	blx	r3
     4a2:	2000      	movs	r0, #0
     4a4:	2100      	movs	r1, #0
     4a6:	0004      	movs	r4, r0
     4a8:	000d      	movs	r5, r1
     4aa:	480d      	ldr	r0, [pc, #52]	; (4e0 <_mainCRTStartup+0x70>)
     4ac:	2800      	cmp	r0, #0
     4ae:	d002      	beq.n	4b6 <_mainCRTStartup+0x46>
     4b0:	480c      	ldr	r0, [pc, #48]	; (4e4 <_mainCRTStartup+0x74>)
     4b2:	e000      	b.n	4b6 <_mainCRTStartup+0x46>
     4b4:	bf00      	nop
     4b6:	f001 fa45 	bl	1944 <__libc_init_array>
     4ba:	0020      	movs	r0, r4
     4bc:	0029      	movs	r1, r5
     4be:	f000 fa71 	bl	9a4 <main>
     4c2:	f001 fa29 	bl	1918 <exit>
     4c6:	46c0      	nop			; (mov r8, r8)
$d():
     4c8:	00080000 	.word	0x00080000
     4cc:	20003000 	.word	0x20003000
	...
     4d8:	1ffff060 	.word	0x1ffff060
     4dc:	1ffff218 	.word	0x1ffff218
	...

000004e8 <__aeabi_uidiv>:
__udivsi3():
     4e8:	2900      	cmp	r1, #0
     4ea:	d034      	beq.n	556 <.udivsi3_skip_div0_test+0x6a>

000004ec <.udivsi3_skip_div0_test>:
     4ec:	2301      	movs	r3, #1
     4ee:	2200      	movs	r2, #0
     4f0:	b410      	push	{r4}
     4f2:	4288      	cmp	r0, r1
     4f4:	d32c      	bcc.n	550 <.udivsi3_skip_div0_test+0x64>
     4f6:	2401      	movs	r4, #1
     4f8:	0724      	lsls	r4, r4, #28
     4fa:	42a1      	cmp	r1, r4
     4fc:	d204      	bcs.n	508 <.udivsi3_skip_div0_test+0x1c>
     4fe:	4281      	cmp	r1, r0
     500:	d202      	bcs.n	508 <.udivsi3_skip_div0_test+0x1c>
     502:	0109      	lsls	r1, r1, #4
     504:	011b      	lsls	r3, r3, #4
     506:	e7f8      	b.n	4fa <.udivsi3_skip_div0_test+0xe>
     508:	00e4      	lsls	r4, r4, #3
     50a:	42a1      	cmp	r1, r4
     50c:	d204      	bcs.n	518 <.udivsi3_skip_div0_test+0x2c>
     50e:	4281      	cmp	r1, r0
     510:	d202      	bcs.n	518 <.udivsi3_skip_div0_test+0x2c>
     512:	0049      	lsls	r1, r1, #1
     514:	005b      	lsls	r3, r3, #1
     516:	e7f8      	b.n	50a <.udivsi3_skip_div0_test+0x1e>
     518:	4288      	cmp	r0, r1
     51a:	d301      	bcc.n	520 <.udivsi3_skip_div0_test+0x34>
     51c:	1a40      	subs	r0, r0, r1
     51e:	431a      	orrs	r2, r3
     520:	084c      	lsrs	r4, r1, #1
     522:	42a0      	cmp	r0, r4
     524:	d302      	bcc.n	52c <.udivsi3_skip_div0_test+0x40>
     526:	1b00      	subs	r0, r0, r4
     528:	085c      	lsrs	r4, r3, #1
     52a:	4322      	orrs	r2, r4
     52c:	088c      	lsrs	r4, r1, #2
     52e:	42a0      	cmp	r0, r4
     530:	d302      	bcc.n	538 <.udivsi3_skip_div0_test+0x4c>
     532:	1b00      	subs	r0, r0, r4
     534:	089c      	lsrs	r4, r3, #2
     536:	4322      	orrs	r2, r4
     538:	08cc      	lsrs	r4, r1, #3
     53a:	42a0      	cmp	r0, r4
     53c:	d302      	bcc.n	544 <.udivsi3_skip_div0_test+0x58>
     53e:	1b00      	subs	r0, r0, r4
     540:	08dc      	lsrs	r4, r3, #3
     542:	4322      	orrs	r2, r4
     544:	2800      	cmp	r0, #0
     546:	d003      	beq.n	550 <.udivsi3_skip_div0_test+0x64>
     548:	091b      	lsrs	r3, r3, #4
     54a:	d001      	beq.n	550 <.udivsi3_skip_div0_test+0x64>
     54c:	0909      	lsrs	r1, r1, #4
     54e:	e7e3      	b.n	518 <.udivsi3_skip_div0_test+0x2c>
     550:	1c10      	adds	r0, r2, #0
     552:	bc10      	pop	{r4}
     554:	4770      	bx	lr
     556:	2800      	cmp	r0, #0
     558:	d001      	beq.n	55e <.udivsi3_skip_div0_test+0x72>
     55a:	2000      	movs	r0, #0
     55c:	43c0      	mvns	r0, r0
     55e:	b407      	push	{r0, r1, r2}
     560:	4802      	ldr	r0, [pc, #8]	; (56c <.udivsi3_skip_div0_test+0x80>)
     562:	a102      	add	r1, pc, #8	; (adr r1, 56c <.udivsi3_skip_div0_test+0x80>)
     564:	1840      	adds	r0, r0, r1
     566:	9002      	str	r0, [sp, #8]
     568:	bd03      	pop	{r0, r1, pc}
     56a:	46c0      	nop			; (mov r8, r8)
     56c:	000000d9 	.word	0x000000d9

00000570 <__aeabi_uidivmod>:
__aeabi_uidivmod():
     570:	2900      	cmp	r1, #0
     572:	d0f0      	beq.n	556 <.udivsi3_skip_div0_test+0x6a>
     574:	b503      	push	{r0, r1, lr}
     576:	f7ff ffb9 	bl	4ec <.udivsi3_skip_div0_test>
     57a:	bc0e      	pop	{r1, r2, r3}
     57c:	4342      	muls	r2, r0
     57e:	1a89      	subs	r1, r1, r2
     580:	4718      	bx	r3
     582:	46c0      	nop			; (mov r8, r8)

00000584 <__aeabi_idiv>:
__divsi3():
     584:	2900      	cmp	r1, #0
     586:	d041      	beq.n	60c <.divsi3_skip_div0_test+0x84>

00000588 <.divsi3_skip_div0_test>:
     588:	b410      	push	{r4}
     58a:	1c04      	adds	r4, r0, #0
     58c:	404c      	eors	r4, r1
     58e:	46a4      	mov	ip, r4
     590:	2301      	movs	r3, #1
     592:	2200      	movs	r2, #0
     594:	2900      	cmp	r1, #0
     596:	d500      	bpl.n	59a <.divsi3_skip_div0_test+0x12>
     598:	4249      	negs	r1, r1
     59a:	2800      	cmp	r0, #0
     59c:	d500      	bpl.n	5a0 <.divsi3_skip_div0_test+0x18>
     59e:	4240      	negs	r0, r0
     5a0:	4288      	cmp	r0, r1
     5a2:	d32c      	bcc.n	5fe <.divsi3_skip_div0_test+0x76>
     5a4:	2401      	movs	r4, #1
     5a6:	0724      	lsls	r4, r4, #28
     5a8:	42a1      	cmp	r1, r4
     5aa:	d204      	bcs.n	5b6 <.divsi3_skip_div0_test+0x2e>
     5ac:	4281      	cmp	r1, r0
     5ae:	d202      	bcs.n	5b6 <.divsi3_skip_div0_test+0x2e>
     5b0:	0109      	lsls	r1, r1, #4
     5b2:	011b      	lsls	r3, r3, #4
     5b4:	e7f8      	b.n	5a8 <.divsi3_skip_div0_test+0x20>
     5b6:	00e4      	lsls	r4, r4, #3
     5b8:	42a1      	cmp	r1, r4
     5ba:	d204      	bcs.n	5c6 <.divsi3_skip_div0_test+0x3e>
     5bc:	4281      	cmp	r1, r0
     5be:	d202      	bcs.n	5c6 <.divsi3_skip_div0_test+0x3e>
     5c0:	0049      	lsls	r1, r1, #1
     5c2:	005b      	lsls	r3, r3, #1
     5c4:	e7f8      	b.n	5b8 <.divsi3_skip_div0_test+0x30>
     5c6:	4288      	cmp	r0, r1
     5c8:	d301      	bcc.n	5ce <.divsi3_skip_div0_test+0x46>
     5ca:	1a40      	subs	r0, r0, r1
     5cc:	431a      	orrs	r2, r3
     5ce:	084c      	lsrs	r4, r1, #1
     5d0:	42a0      	cmp	r0, r4
     5d2:	d302      	bcc.n	5da <.divsi3_skip_div0_test+0x52>
     5d4:	1b00      	subs	r0, r0, r4
     5d6:	085c      	lsrs	r4, r3, #1
     5d8:	4322      	orrs	r2, r4
     5da:	088c      	lsrs	r4, r1, #2
     5dc:	42a0      	cmp	r0, r4
     5de:	d302      	bcc.n	5e6 <.divsi3_skip_div0_test+0x5e>
     5e0:	1b00      	subs	r0, r0, r4
     5e2:	089c      	lsrs	r4, r3, #2
     5e4:	4322      	orrs	r2, r4
     5e6:	08cc      	lsrs	r4, r1, #3
     5e8:	42a0      	cmp	r0, r4
     5ea:	d302      	bcc.n	5f2 <.divsi3_skip_div0_test+0x6a>
     5ec:	1b00      	subs	r0, r0, r4
     5ee:	08dc      	lsrs	r4, r3, #3
     5f0:	4322      	orrs	r2, r4
     5f2:	2800      	cmp	r0, #0
     5f4:	d003      	beq.n	5fe <.divsi3_skip_div0_test+0x76>
     5f6:	091b      	lsrs	r3, r3, #4
     5f8:	d001      	beq.n	5fe <.divsi3_skip_div0_test+0x76>
     5fa:	0909      	lsrs	r1, r1, #4
     5fc:	e7e3      	b.n	5c6 <.divsi3_skip_div0_test+0x3e>
     5fe:	1c10      	adds	r0, r2, #0
     600:	4664      	mov	r4, ip
     602:	2c00      	cmp	r4, #0
     604:	d500      	bpl.n	608 <.divsi3_skip_div0_test+0x80>
     606:	4240      	negs	r0, r0
     608:	bc10      	pop	{r4}
     60a:	4770      	bx	lr
     60c:	2800      	cmp	r0, #0
     60e:	d006      	beq.n	61e <.divsi3_skip_div0_test+0x96>
     610:	db03      	blt.n	61a <.divsi3_skip_div0_test+0x92>
     612:	2000      	movs	r0, #0
     614:	43c0      	mvns	r0, r0
     616:	0840      	lsrs	r0, r0, #1
     618:	e001      	b.n	61e <.divsi3_skip_div0_test+0x96>
     61a:	2080      	movs	r0, #128	; 0x80
     61c:	0600      	lsls	r0, r0, #24
     61e:	b407      	push	{r0, r1, r2}
     620:	4802      	ldr	r0, [pc, #8]	; (62c <.divsi3_skip_div0_test+0xa4>)
     622:	a102      	add	r1, pc, #8	; (adr r1, 62c <.divsi3_skip_div0_test+0xa4>)
     624:	1840      	adds	r0, r0, r1
     626:	9002      	str	r0, [sp, #8]
     628:	bd03      	pop	{r0, r1, pc}
     62a:	46c0      	nop			; (mov r8, r8)
     62c:	00000019 	.word	0x00000019

00000630 <__aeabi_idivmod>:
__aeabi_idivmod():
     630:	2900      	cmp	r1, #0
     632:	d0eb      	beq.n	60c <.divsi3_skip_div0_test+0x84>
     634:	b503      	push	{r0, r1, lr}
     636:	f7ff ffa7 	bl	588 <.divsi3_skip_div0_test>
     63a:	bc0e      	pop	{r1, r2, r3}
     63c:	4342      	muls	r2, r0
     63e:	1a89      	subs	r1, r1, r2
     640:	4718      	bx	r3
     642:	46c0      	nop			; (mov r8, r8)

00000644 <__aeabi_idiv0>:
__aeabi_ldiv0():
     644:	4770      	bx	lr
     646:	46c0      	nop			; (mov r8, r8)

00000648 <cameraStartReading>:
cameraStartReading():
/home/marcelo/Documentos/GER/SDP/SDP-2016/KDS/SDP-2016/Debug/../Sources/CameraController.c:27
 **							-> TRUE: For it starts the serial communication.
 **
 **
 ** ===================================================================*/
void cameraStartReading(bool serialTest)
{
     648:	b580      	push	{r7, lr}
     64a:	b082      	sub	sp, #8
     64c:	af00      	add	r7, sp, #0
     64e:	1c02      	adds	r2, r0, #0
     650:	1dfb      	adds	r3, r7, #7
     652:	701a      	strb	r2, [r3, #0]
/home/marcelo/Documentos/GER/SDP/SDP-2016/KDS/SDP-2016/Debug/../Sources/CameraController.c:28
	if (serialTest == TRUE)
     654:	1dfb      	adds	r3, r7, #7
     656:	781b      	ldrb	r3, [r3, #0]
     658:	2b01      	cmp	r3, #1
     65a:	d102      	bne.n	662 <cameraStartReading+0x1a>
/home/marcelo/Documentos/GER/SDP/SDP-2016/KDS/SDP-2016/Debug/../Sources/CameraController.c:30
	{
		testMode();
     65c:	f000 f826 	bl	6ac <testMode>
     660:	e006      	b.n	670 <cameraStartReading+0x28>
/home/marcelo/Documentos/GER/SDP/SDP-2016/KDS/SDP-2016/Debug/../Sources/CameraController.c:36
	}

	else
	{
		// Initializes the camera
		initializeCamera();
     662:	f000 f80b 	bl	67c <initializeCamera>
/home/marcelo/Documentos/GER/SDP/SDP-2016/KDS/SDP-2016/Debug/../Sources/CameraController.c:39

		// Camera activation
		ClockInterruption_Enable();
     666:	4b04      	ldr	r3, [pc, #16]	; (678 <cameraStartReading+0x30>)
     668:	68db      	ldr	r3, [r3, #12]
     66a:	1c18      	adds	r0, r3, #0
     66c:	f001 f912 	bl	1894 <TimerIntLdd1_Enable>
/home/marcelo/Documentos/GER/SDP/SDP-2016/KDS/SDP-2016/Debug/../Sources/CameraController.c:42
	}

}
     670:	46bd      	mov	sp, r7
     672:	b002      	add	sp, #8
     674:	bd80      	pop	{r7, pc}
     676:	46c0      	nop			; (mov r8, r8)
     678:	1ffff0a8 	.word	0x1ffff0a8

0000067c <initializeCamera>:
initializeCamera():
/home/marcelo/Documentos/GER/SDP/SDP-2016/KDS/SDP-2016/Debug/../Sources/CameraController.c:45

void initializeCamera()
{
     67c:	b580      	push	{r7, lr}
     67e:	af00      	add	r7, sp, #0
/home/marcelo/Documentos/GER/SDP/SDP-2016/KDS/SDP-2016/Debug/../Sources/CameraController.c:47
	// Inicial state
	state = HALF_LOW_CLK;
     680:	4b06      	ldr	r3, [pc, #24]	; (69c <initializeCamera+0x20>)
     682:	2203      	movs	r2, #3
     684:	601a      	str	r2, [r3, #0]
/home/marcelo/Documentos/GER/SDP/SDP-2016/KDS/SDP-2016/Debug/../Sources/CameraController.c:49

	clockCounter = 0;
     686:	4b06      	ldr	r3, [pc, #24]	; (6a0 <initializeCamera+0x24>)
     688:	2200      	movs	r2, #0
     68a:	601a      	str	r2, [r3, #0]
/home/marcelo/Documentos/GER/SDP/SDP-2016/KDS/SDP-2016/Debug/../Sources/CameraController.c:51

	transferTime = 0;
     68c:	4b05      	ldr	r3, [pc, #20]	; (6a4 <initializeCamera+0x28>)
     68e:	2200      	movs	r2, #0
     690:	601a      	str	r2, [r3, #0]
/home/marcelo/Documentos/GER/SDP/SDP-2016/KDS/SDP-2016/Debug/../Sources/CameraController.c:53
	// Number of samples
	measuringCounter = 0;
     692:	4b05      	ldr	r3, [pc, #20]	; (6a8 <initializeCamera+0x2c>)
     694:	2200      	movs	r2, #0
     696:	601a      	str	r2, [r3, #0]
/home/marcelo/Documentos/GER/SDP/SDP-2016/KDS/SDP-2016/Debug/../Sources/CameraController.c:54
}
     698:	46bd      	mov	sp, r7
     69a:	bd80      	pop	{r7, pc}
     69c:	1ffff100 	.word	0x1ffff100
     6a0:	1ffff0f8 	.word	0x1ffff0f8
     6a4:	1ffff0fc 	.word	0x1ffff0fc
     6a8:	1ffff104 	.word	0x1ffff104

000006ac <testMode>:
testMode():
/home/marcelo/Documentos/GER/SDP/SDP-2016/KDS/SDP-2016/Debug/../Sources/CameraController.c:58

// Serial Communication Mode.
void testMode()
{
     6ac:	b580      	push	{r7, lr}
     6ae:	af00      	add	r7, sp, #0
/home/marcelo/Documentos/GER/SDP/SDP-2016/KDS/SDP-2016/Debug/../Sources/CameraController.c:62
	while(TRUE)
	{
		// Initializes the camera
		initializeCamera();
     6b0:	f7ff ffe4 	bl	67c <initializeCamera>
/home/marcelo/Documentos/GER/SDP/SDP-2016/KDS/SDP-2016/Debug/../Sources/CameraController.c:65

		// Camera activation
		ClockInterruption_Enable();
     6b4:	4b09      	ldr	r3, [pc, #36]	; (6dc <testMode+0x30>)
     6b6:	68db      	ldr	r3, [r3, #12]
     6b8:	1c18      	adds	r0, r3, #0
     6ba:	f001 f8eb 	bl	1894 <TimerIntLdd1_Enable>
/home/marcelo/Documentos/GER/SDP/SDP-2016/KDS/SDP-2016/Debug/../Sources/CameraController.c:68

		// Expects the camera to finish N readings
		while (measuringCounter != 10);
     6be:	46c0      	nop			; (mov r8, r8)
/home/marcelo/Documentos/GER/SDP/SDP-2016/KDS/SDP-2016/Debug/../Sources/CameraController.c:68 (discriminator 1)
     6c0:	4b07      	ldr	r3, [pc, #28]	; (6e0 <testMode+0x34>)
     6c2:	681b      	ldr	r3, [r3, #0]
     6c4:	2b0a      	cmp	r3, #10
     6c6:	d1fb      	bne.n	6c0 <testMode+0x14>
/home/marcelo/Documentos/GER/SDP/SDP-2016/KDS/SDP-2016/Debug/../Sources/CameraController.c:71

		// disable the camera
		ClockInterruption_Disable();
     6c8:	4b04      	ldr	r3, [pc, #16]	; (6dc <testMode+0x30>)
     6ca:	68db      	ldr	r3, [r3, #12]
     6cc:	1c18      	adds	r0, r3, #0
     6ce:	f001 f8f9 	bl	18c4 <TimerIntLdd1_Disable>
/home/marcelo/Documentos/GER/SDP/SDP-2016/KDS/SDP-2016/Debug/../Sources/CameraController.c:74

		// send array by serial communication
		sendArrayOfPixels(pixelArray[0]);
     6d2:	4b04      	ldr	r3, [pc, #16]	; (6e4 <testMode+0x38>)
     6d4:	1c18      	adds	r0, r3, #0
     6d6:	f000 f93d 	bl	954 <sendArrayOfPixels>
/home/marcelo/Documentos/GER/SDP/SDP-2016/KDS/SDP-2016/Debug/../Sources/CameraController.c:75
	}
     6da:	e7e9      	b.n	6b0 <testMode+0x4>
     6dc:	1ffff0a8 	.word	0x1ffff0a8
     6e0:	1ffff104 	.word	0x1ffff104
     6e4:	1ffff10c 	.word	0x1ffff10c

000006e8 <Cpu_OnNMIINT>:
Cpu_OnNMIINT():
/home/marcelo/Documentos/GER/SDP/SDP-2016/KDS/SDP-2016/Debug/../Sources/Events.c:53
 **         occurred. This event is automatically enabled when the [NMI
 **         interrupt] property is set to 'Enabled'.
 */
/* ===================================================================*/
void Cpu_OnNMIINT(void)
{
     6e8:	b580      	push	{r7, lr}
     6ea:	af00      	add	r7, sp, #0
/home/marcelo/Documentos/GER/SDP/SDP-2016/KDS/SDP-2016/Debug/../Sources/Events.c:55
	/* Write your code here ... */
}
     6ec:	46bd      	mov	sp, r7
     6ee:	bd80      	pop	{r7, pc}

000006f0 <ClockInterruption_OnInterrupt>:
ClockInterruption_OnInterrupt():
/home/marcelo/Documentos/GER/SDP/SDP-2016/KDS/SDP-2016/Debug/../Sources/Events.c:72
 **     Parameters  : None
 **     Returns     : Nothing
 ** ===================================================================
 */
void ClockInterruption_OnInterrupt(void)
{
     6f0:	b580      	push	{r7, lr}
     6f2:	af00      	add	r7, sp, #0
/home/marcelo/Documentos/GER/SDP/SDP-2016/KDS/SDP-2016/Debug/../Sources/Events.c:73
	switch (state)
     6f4:	4b3d      	ldr	r3, [pc, #244]	; (7ec <ClockInterruption_OnInterrupt+0xfc>)
     6f6:	681b      	ldr	r3, [r3, #0]
     6f8:	2b04      	cmp	r3, #4
     6fa:	d900      	bls.n	6fe <ClockInterruption_OnInterrupt+0xe>
     6fc:	e074      	b.n	7e8 <ClockInterruption_OnInterrupt+0xf8>
     6fe:	009a      	lsls	r2, r3, #2
     700:	4b3b      	ldr	r3, [pc, #236]	; (7f0 <ClockInterruption_OnInterrupt+0x100>)
     702:	18d3      	adds	r3, r2, r3
     704:	681b      	ldr	r3, [r3, #0]
     706:	469f      	mov	pc, r3
/home/marcelo/Documentos/GER/SDP/SDP-2016/KDS/SDP-2016/Debug/../Sources/Events.c:80

	case HALF_LOW_CLK:
	{

		// next state
		state = HIGH_CLK;
     708:	4b38      	ldr	r3, [pc, #224]	; (7ec <ClockInterruption_OnInterrupt+0xfc>)
     70a:	2200      	movs	r2, #0
     70c:	601a      	str	r2, [r3, #0]
/home/marcelo/Documentos/GER/SDP/SDP-2016/KDS/SDP-2016/Debug/../Sources/Events.c:82

		if (clockCounter == 0)
     70e:	4b39      	ldr	r3, [pc, #228]	; (7f4 <ClockInterruption_OnInterrupt+0x104>)
     710:	681b      	ldr	r3, [r3, #0]
     712:	2b00      	cmp	r3, #0
     714:	d10e      	bne.n	734 <ClockInterruption_OnInterrupt+0x44>
/home/marcelo/Documentos/GER/SDP/SDP-2016/KDS/SDP-2016/Debug/../Sources/Events.c:85
		{
			// SI High.
			SI_SetVal();
     716:	4b38      	ldr	r3, [pc, #224]	; (7f8 <ClockInterruption_OnInterrupt+0x108>)
     718:	681b      	ldr	r3, [r3, #0]
     71a:	1c18      	adds	r0, r3, #0
     71c:	f000 fbcc 	bl	eb8 <BitIoLdd1_SetVal>
/home/marcelo/Documentos/GER/SDP/SDP-2016/KDS/SDP-2016/Debug/../Sources/Events.c:86
			while (!SI_GetVal());
     720:	46c0      	nop			; (mov r8, r8)
/home/marcelo/Documentos/GER/SDP/SDP-2016/KDS/SDP-2016/Debug/../Sources/Events.c:86 (discriminator 1)
     722:	4b35      	ldr	r3, [pc, #212]	; (7f8 <ClockInterruption_OnInterrupt+0x108>)
     724:	681b      	ldr	r3, [r3, #0]
     726:	1c18      	adds	r0, r3, #0
     728:	f000 fba6 	bl	e78 <BitIoLdd1_GetVal>
     72c:	1c03      	adds	r3, r0, #0
     72e:	2b00      	cmp	r3, #0
     730:	d0f7      	beq.n	722 <ClockInterruption_OnInterrupt+0x32>
/home/marcelo/Documentos/GER/SDP/SDP-2016/KDS/SDP-2016/Debug/../Sources/Events.c:109
			{
				measuringCounter++;
			}
		}

		break;
     732:	e059      	b.n	7e8 <ClockInterruption_OnInterrupt+0xf8>
/home/marcelo/Documentos/GER/SDP/SDP-2016/KDS/SDP-2016/Debug/../Sources/Events.c:91
			while (!SI_GetVal());
		}

		// Fim de um ciclo.
		// A camera precisa de um clock a mais para enviar o ultimo pixel.
		else if (clockCounter == 129)
     734:	4b2f      	ldr	r3, [pc, #188]	; (7f4 <ClockInterruption_OnInterrupt+0x104>)
     736:	681b      	ldr	r3, [r3, #0]
     738:	2b81      	cmp	r3, #129	; 0x81
     73a:	d113      	bne.n	764 <ClockInterruption_OnInterrupt+0x74>
/home/marcelo/Documentos/GER/SDP/SDP-2016/KDS/SDP-2016/Debug/../Sources/Events.c:93
		{
			clockCounter = 0;
     73c:	4b2d      	ldr	r3, [pc, #180]	; (7f4 <ClockInterruption_OnInterrupt+0x104>)
     73e:	2200      	movs	r2, #0
     740:	601a      	str	r2, [r3, #0]
/home/marcelo/Documentos/GER/SDP/SDP-2016/KDS/SDP-2016/Debug/../Sources/Events.c:95
			// E 20 microssegundos para se preparar para o proximo ciclo.
			state = WAIT_TRANSFER_CHARGE;
     742:	4b2a      	ldr	r3, [pc, #168]	; (7ec <ClockInterruption_OnInterrupt+0xfc>)
     744:	2204      	movs	r2, #4
     746:	601a      	str	r2, [r3, #0]
/home/marcelo/Documentos/GER/SDP/SDP-2016/KDS/SDP-2016/Debug/../Sources/Events.c:98

			// Updates the control samples
			if (measuringCounter < 0)
     748:	4b2c      	ldr	r3, [pc, #176]	; (7fc <ClockInterruption_OnInterrupt+0x10c>)
     74a:	681b      	ldr	r3, [r3, #0]
     74c:	2b00      	cmp	r3, #0
     74e:	da03      	bge.n	758 <ClockInterruption_OnInterrupt+0x68>
/home/marcelo/Documentos/GER/SDP/SDP-2016/KDS/SDP-2016/Debug/../Sources/Events.c:101
			{
				// In this case happened overflow.
				measuringCounter = 0;
     750:	4b2a      	ldr	r3, [pc, #168]	; (7fc <ClockInterruption_OnInterrupt+0x10c>)
     752:	2200      	movs	r2, #0
     754:	601a      	str	r2, [r3, #0]
     756:	e005      	b.n	764 <ClockInterruption_OnInterrupt+0x74>
/home/marcelo/Documentos/GER/SDP/SDP-2016/KDS/SDP-2016/Debug/../Sources/Events.c:105
			}
			else
			{
				measuringCounter++;
     758:	4b28      	ldr	r3, [pc, #160]	; (7fc <ClockInterruption_OnInterrupt+0x10c>)
     75a:	681b      	ldr	r3, [r3, #0]
     75c:	1c5a      	adds	r2, r3, #1
     75e:	4b27      	ldr	r3, [pc, #156]	; (7fc <ClockInterruption_OnInterrupt+0x10c>)
     760:	601a      	str	r2, [r3, #0]
/home/marcelo/Documentos/GER/SDP/SDP-2016/KDS/SDP-2016/Debug/../Sources/Events.c:109
			}
		}

		break;
     762:	e041      	b.n	7e8 <ClockInterruption_OnInterrupt+0xf8>
     764:	e040      	b.n	7e8 <ClockInterruption_OnInterrupt+0xf8>
/home/marcelo/Documentos/GER/SDP/SDP-2016/KDS/SDP-2016/Debug/../Sources/Events.c:114
	}
	case HIGH_CLK:
	{
		// Clock High.
		CLK_SetVal();
     766:	4b24      	ldr	r3, [pc, #144]	; (7f8 <ClockInterruption_OnInterrupt+0x108>)
     768:	685b      	ldr	r3, [r3, #4]
     76a:	1c18      	adds	r0, r3, #0
     76c:	f000 fbec 	bl	f48 <BitIoLdd2_SetVal>
/home/marcelo/Documentos/GER/SDP/SDP-2016/KDS/SDP-2016/Debug/../Sources/Events.c:116

		clockCounter++;
     770:	4b20      	ldr	r3, [pc, #128]	; (7f4 <ClockInterruption_OnInterrupt+0x104>)
     772:	681b      	ldr	r3, [r3, #0]
     774:	1c5a      	adds	r2, r3, #1
     776:	4b1f      	ldr	r3, [pc, #124]	; (7f4 <ClockInterruption_OnInterrupt+0x104>)
     778:	601a      	str	r2, [r3, #0]
/home/marcelo/Documentos/GER/SDP/SDP-2016/KDS/SDP-2016/Debug/../Sources/Events.c:118

		state = HALF_HIGH_CLK;
     77a:	4b1c      	ldr	r3, [pc, #112]	; (7ec <ClockInterruption_OnInterrupt+0xfc>)
     77c:	2201      	movs	r2, #1
     77e:	601a      	str	r2, [r3, #0]
/home/marcelo/Documentos/GER/SDP/SDP-2016/KDS/SDP-2016/Debug/../Sources/Events.c:120

		break;
     780:	e032      	b.n	7e8 <ClockInterruption_OnInterrupt+0xf8>
/home/marcelo/Documentos/GER/SDP/SDP-2016/KDS/SDP-2016/Debug/../Sources/Events.c:124
	}
	case HALF_HIGH_CLK:
	{
		if (clockCounter == 1)
     782:	4b1c      	ldr	r3, [pc, #112]	; (7f4 <ClockInterruption_OnInterrupt+0x104>)
     784:	681b      	ldr	r3, [r3, #0]
     786:	2b01      	cmp	r3, #1
     788:	d10d      	bne.n	7a6 <ClockInterruption_OnInterrupt+0xb6>
/home/marcelo/Documentos/GER/SDP/SDP-2016/KDS/SDP-2016/Debug/../Sources/Events.c:127
		{
			// SI Low.
			SI_ClrVal();
     78a:	4b1b      	ldr	r3, [pc, #108]	; (7f8 <ClockInterruption_OnInterrupt+0x108>)
     78c:	681b      	ldr	r3, [r3, #0]
     78e:	1c18      	adds	r0, r3, #0
     790:	f000 fb86 	bl	ea0 <BitIoLdd1_ClrVal>
/home/marcelo/Documentos/GER/SDP/SDP-2016/KDS/SDP-2016/Debug/../Sources/Events.c:128
			while (SI_GetVal());
     794:	46c0      	nop			; (mov r8, r8)
/home/marcelo/Documentos/GER/SDP/SDP-2016/KDS/SDP-2016/Debug/../Sources/Events.c:128 (discriminator 1)
     796:	4b18      	ldr	r3, [pc, #96]	; (7f8 <ClockInterruption_OnInterrupt+0x108>)
     798:	681b      	ldr	r3, [r3, #0]
     79a:	1c18      	adds	r0, r3, #0
     79c:	f000 fb6c 	bl	e78 <BitIoLdd1_GetVal>
     7a0:	1c03      	adds	r3, r0, #0
     7a2:	2b00      	cmp	r3, #0
     7a4:	d1f7      	bne.n	796 <ClockInterruption_OnInterrupt+0xa6>
/home/marcelo/Documentos/GER/SDP/SDP-2016/KDS/SDP-2016/Debug/../Sources/Events.c:132
		}

		// Starts the AD convertion
		ImageConverter_Measure(FALSE);
     7a6:	2000      	movs	r0, #0
     7a8:	f000 fd3e 	bl	1228 <ImageConverter_Measure>
/home/marcelo/Documentos/GER/SDP/SDP-2016/KDS/SDP-2016/Debug/../Sources/Events.c:134

		state = LOW_CLK;
     7ac:	4b0f      	ldr	r3, [pc, #60]	; (7ec <ClockInterruption_OnInterrupt+0xfc>)
     7ae:	2202      	movs	r2, #2
     7b0:	601a      	str	r2, [r3, #0]
/home/marcelo/Documentos/GER/SDP/SDP-2016/KDS/SDP-2016/Debug/../Sources/Events.c:135
		break;
     7b2:	e019      	b.n	7e8 <ClockInterruption_OnInterrupt+0xf8>
/home/marcelo/Documentos/GER/SDP/SDP-2016/KDS/SDP-2016/Debug/../Sources/Events.c:140
	}
	case LOW_CLK:
	{
		// Clock Low.
		CLK_ClrVal();
     7b4:	4b10      	ldr	r3, [pc, #64]	; (7f8 <ClockInterruption_OnInterrupt+0x108>)
     7b6:	685b      	ldr	r3, [r3, #4]
     7b8:	1c18      	adds	r0, r3, #0
     7ba:	f000 fbb9 	bl	f30 <BitIoLdd2_ClrVal>
/home/marcelo/Documentos/GER/SDP/SDP-2016/KDS/SDP-2016/Debug/../Sources/Events.c:142

		state = HALF_LOW_CLK;
     7be:	4b0b      	ldr	r3, [pc, #44]	; (7ec <ClockInterruption_OnInterrupt+0xfc>)
     7c0:	2203      	movs	r2, #3
     7c2:	601a      	str	r2, [r3, #0]
/home/marcelo/Documentos/GER/SDP/SDP-2016/KDS/SDP-2016/Debug/../Sources/Events.c:144

		break;
     7c4:	e010      	b.n	7e8 <ClockInterruption_OnInterrupt+0xf8>
/home/marcelo/Documentos/GER/SDP/SDP-2016/KDS/SDP-2016/Debug/../Sources/Events.c:150
	}

	// Pixel charge transfer time
	case WAIT_TRANSFER_CHARGE:
	{
		if (transferTime)
     7c6:	4b0e      	ldr	r3, [pc, #56]	; (800 <ClockInterruption_OnInterrupt+0x110>)
     7c8:	681b      	ldr	r3, [r3, #0]
     7ca:	2b00      	cmp	r3, #0
     7cc:	d005      	beq.n	7da <ClockInterruption_OnInterrupt+0xea>
/home/marcelo/Documentos/GER/SDP/SDP-2016/KDS/SDP-2016/Debug/../Sources/Events.c:152
		{
			transferTime++;
     7ce:	4b0c      	ldr	r3, [pc, #48]	; (800 <ClockInterruption_OnInterrupt+0x110>)
     7d0:	681b      	ldr	r3, [r3, #0]
     7d2:	1c5a      	adds	r2, r3, #1
     7d4:	4b0a      	ldr	r3, [pc, #40]	; (800 <ClockInterruption_OnInterrupt+0x110>)
     7d6:	601a      	str	r2, [r3, #0]
     7d8:	e005      	b.n	7e6 <ClockInterruption_OnInterrupt+0xf6>
/home/marcelo/Documentos/GER/SDP/SDP-2016/KDS/SDP-2016/Debug/../Sources/Events.c:156
		}
		else
		{
			transferTime = 0;
     7da:	4b09      	ldr	r3, [pc, #36]	; (800 <ClockInterruption_OnInterrupt+0x110>)
     7dc:	2200      	movs	r2, #0
     7de:	601a      	str	r2, [r3, #0]
/home/marcelo/Documentos/GER/SDP/SDP-2016/KDS/SDP-2016/Debug/../Sources/Events.c:157
			state = HALF_LOW_CLK;
     7e0:	4b02      	ldr	r3, [pc, #8]	; (7ec <ClockInterruption_OnInterrupt+0xfc>)
     7e2:	2203      	movs	r2, #3
     7e4:	601a      	str	r2, [r3, #0]
/home/marcelo/Documentos/GER/SDP/SDP-2016/KDS/SDP-2016/Debug/../Sources/Events.c:160
		}

		break;
     7e6:	46c0      	nop			; (mov r8, r8)
/home/marcelo/Documentos/GER/SDP/SDP-2016/KDS/SDP-2016/Debug/../Sources/Events.c:163
	}
	}
}
     7e8:	46bd      	mov	sp, r7
     7ea:	bd80      	pop	{r7, pc}
     7ec:	1ffff100 	.word	0x1ffff100
     7f0:	000019a4 	.word	0x000019a4
     7f4:	1ffff0f8 	.word	0x1ffff0f8
     7f8:	1ffff0a8 	.word	0x1ffff0a8
     7fc:	1ffff104 	.word	0x1ffff104
     800:	1ffff0fc 	.word	0x1ffff0fc

00000804 <ImageConverter_OnEnd>:
ImageConverter_OnEnd():
/home/marcelo/Documentos/GER/SDP/SDP-2016/KDS/SDP-2016/Debug/../Sources/Events.c:180
 **     Parameters  : None
 **     Returns     : Nothing
 ** ===================================================================
 */
void ImageConverter_OnEnd(void)
{
     804:	b580      	push	{r7, lr}
     806:	af00      	add	r7, sp, #0
/home/marcelo/Documentos/GER/SDP/SDP-2016/KDS/SDP-2016/Debug/../Sources/Events.c:182

	ImageConverter_GetChanValue(0, &pixelArray[0][clockCounter]);
     808:	4b04      	ldr	r3, [pc, #16]	; (81c <ImageConverter_OnEnd+0x18>)
     80a:	681a      	ldr	r2, [r3, #0]
     80c:	4b04      	ldr	r3, [pc, #16]	; (820 <ImageConverter_OnEnd+0x1c>)
     80e:	18d3      	adds	r3, r2, r3
     810:	1c18      	adds	r0, r3, #0
     812:	f000 fd2d 	bl	1270 <PE_ImageConverter_GetChanValue>
/home/marcelo/Documentos/GER/SDP/SDP-2016/KDS/SDP-2016/Debug/../Sources/Events.c:183
}
     816:	46bd      	mov	sp, r7
     818:	bd80      	pop	{r7, pc}
     81a:	46c0      	nop			; (mov r8, r8)
     81c:	1ffff0f8 	.word	0x1ffff0f8
     820:	1ffff10c 	.word	0x1ffff10c

00000824 <ImageConverter_OnCalibrationEnd>:
ImageConverter_OnCalibrationEnd():
/home/marcelo/Documentos/GER/SDP/SDP-2016/KDS/SDP-2016/Debug/../Sources/Events.c:200
 **     Parameters  : None
 **     Returns     : Nothing
 ** ===================================================================
 */
void ImageConverter_OnCalibrationEnd(void)
{
     824:	b580      	push	{r7, lr}
     826:	af00      	add	r7, sp, #0
/home/marcelo/Documentos/GER/SDP/SDP-2016/KDS/SDP-2016/Debug/../Sources/Events.c:202
	/* Write your code here ... */
}
     828:	46bd      	mov	sp, r7
     82a:	bd80      	pop	{r7, pc}

0000082c <SerialCom_OnBlockReceived>:
SerialCom_OnBlockReceived():
/home/marcelo/Documentos/GER/SDP/SDP-2016/KDS/SDP-2016/Debug/../Sources/Events.c:221
 **                           RTOS specific data. This pointer is passed
 **                           as the parameter of Init method.
 */
/* ===================================================================*/
void SerialCom_OnBlockReceived(LDD_TUserData *UserDataPtr)
{
     82c:	b580      	push	{r7, lr}
     82e:	b082      	sub	sp, #8
     830:	af00      	add	r7, sp, #0
     832:	6078      	str	r0, [r7, #4]
/home/marcelo/Documentos/GER/SDP/SDP-2016/KDS/SDP-2016/Debug/../Sources/Events.c:223
	/* Write your code here ... */
}
     834:	46bd      	mov	sp, r7
     836:	b002      	add	sp, #8
     838:	bd80      	pop	{r7, pc}
     83a:	46c0      	nop			; (mov r8, r8)

0000083c <SerialCom_OnBlockSent>:
SerialCom_OnBlockSent():
/home/marcelo/Documentos/GER/SDP/SDP-2016/KDS/SDP-2016/Debug/../Sources/Events.c:242
 **                           RTOS specific data. This pointer is passed
 **                           as the parameter of Init method.
 */
/* ===================================================================*/
void SerialCom_OnBlockSent(LDD_TUserData *UserDataPtr)
{
     83c:	b580      	push	{r7, lr}
     83e:	b084      	sub	sp, #16
     840:	af00      	add	r7, sp, #0
     842:	6078      	str	r0, [r7, #4]
/home/marcelo/Documentos/GER/SDP/SDP-2016/KDS/SDP-2016/Debug/../Sources/Events.c:243
	Serial_Device *ptr = (Serial_Device*)UserDataPtr;
     844:	687b      	ldr	r3, [r7, #4]
     846:	60fb      	str	r3, [r7, #12]
/home/marcelo/Documentos/GER/SDP/SDP-2016/KDS/SDP-2016/Debug/../Sources/Events.c:245

	ptr->isSent = TRUE; /* set flag so sender knows we have finished */
     848:	68fb      	ldr	r3, [r7, #12]
     84a:	2201      	movs	r2, #1
     84c:	711a      	strb	r2, [r3, #4]
/home/marcelo/Documentos/GER/SDP/SDP-2016/KDS/SDP-2016/Debug/../Sources/Events.c:247

}
     84e:	46bd      	mov	sp, r7
     850:	b004      	add	sp, #16
     852:	bd80      	pop	{r7, pc}

00000854 <init_Serial>:
init_Serial():
/home/marcelo/Documentos/GER/SDP/Projeto/versão antiga/SDP-2016/Debug/../Sources/SerialCommunication.c:14
     854:	b580      	push	{r7, lr}
     856:	af00      	add	r7, sp, #0
/home/marcelo/Documentos/GER/SDP/Projeto/versão antiga/SDP-2016/Debug/../Sources/SerialCommunication.c:15
     858:	4b05      	ldr	r3, [pc, #20]	; (870 <init_Serial+0x1c>)
     85a:	1c18      	adds	r0, r3, #0
     85c:	f000 fd66 	bl	132c <SerialCom_Init>
     860:	1c02      	adds	r2, r0, #0
     862:	4b03      	ldr	r3, [pc, #12]	; (870 <init_Serial+0x1c>)
     864:	601a      	str	r2, [r3, #0]
/home/marcelo/Documentos/GER/SDP/Projeto/versão antiga/SDP-2016/Debug/../Sources/SerialCommunication.c:16
     866:	4b02      	ldr	r3, [pc, #8]	; (870 <init_Serial+0x1c>)
     868:	2200      	movs	r2, #0
     86a:	711a      	strb	r2, [r3, #4]
/home/marcelo/Documentos/GER/SDP/Projeto/versão antiga/SDP-2016/Debug/../Sources/SerialCommunication.c:17
     86c:	46bd      	mov	sp, r7
     86e:	bd80      	pop	{r7, pc}
     870:	1ffff07c 	.word	0x1ffff07c

00000874 <sendChar>:
sendChar():
/home/marcelo/Documentos/GER/SDP/Projeto/versão antiga/SDP-2016/Debug/../Sources/SerialCommunication.c:20
     874:	b580      	push	{r7, lr}
     876:	b082      	sub	sp, #8
     878:	af00      	add	r7, sp, #0
     87a:	1c02      	adds	r2, r0, #0
     87c:	1dfb      	adds	r3, r7, #7
     87e:	701a      	strb	r2, [r3, #0]
/home/marcelo/Documentos/GER/SDP/Projeto/versão antiga/SDP-2016/Debug/../Sources/SerialCommunication.c:21
     880:	4b0c      	ldr	r3, [pc, #48]	; (8b4 <sendChar+0x40>)
     882:	2200      	movs	r2, #0
     884:	711a      	strb	r2, [r3, #4]
/home/marcelo/Documentos/GER/SDP/Projeto/versão antiga/SDP-2016/Debug/../Sources/SerialCommunication.c:22
     886:	46c0      	nop			; (mov r8, r8)
/home/marcelo/Documentos/GER/SDP/Projeto/versão antiga/SDP-2016/Debug/../Sources/SerialCommunication.c:22 (discriminator 1)
     888:	4b0a      	ldr	r3, [pc, #40]	; (8b4 <sendChar+0x40>)
     88a:	681a      	ldr	r2, [r3, #0]
     88c:	1dfb      	adds	r3, r7, #7
     88e:	1c10      	adds	r0, r2, #0
     890:	1c19      	adds	r1, r3, #0
     892:	2201      	movs	r2, #1
     894:	f000 fe22 	bl	14dc <SerialCom_SendBlock>
     898:	1c03      	adds	r3, r0, #0
     89a:	2b00      	cmp	r3, #0
     89c:	d1f4      	bne.n	888 <sendChar+0x14>
/home/marcelo/Documentos/GER/SDP/Projeto/versão antiga/SDP-2016/Debug/../Sources/SerialCommunication.c:23
     89e:	46c0      	nop			; (mov r8, r8)
/home/marcelo/Documentos/GER/SDP/Projeto/versão antiga/SDP-2016/Debug/../Sources/SerialCommunication.c:23 (discriminator 1)
     8a0:	4b04      	ldr	r3, [pc, #16]	; (8b4 <sendChar+0x40>)
     8a2:	791b      	ldrb	r3, [r3, #4]
     8a4:	b2db      	uxtb	r3, r3
     8a6:	2b00      	cmp	r3, #0
     8a8:	d0fa      	beq.n	8a0 <sendChar+0x2c>
/home/marcelo/Documentos/GER/SDP/Projeto/versão antiga/SDP-2016/Debug/../Sources/SerialCommunication.c:24
     8aa:	1c18      	adds	r0, r3, #0
     8ac:	46bd      	mov	sp, r7
     8ae:	b002      	add	sp, #8
     8b0:	bd80      	pop	{r7, pc}
     8b2:	46c0      	nop			; (mov r8, r8)
     8b4:	1ffff07c 	.word	0x1ffff07c

000008b8 <itoa_8_bit>:
itoa_8_bit():
/home/marcelo/Documentos/GER/SDP/Projeto/versão antiga/SDP-2016/Debug/../Sources/SerialCommunication.c:27
     8b8:	b580      	push	{r7, lr}
     8ba:	b088      	sub	sp, #32
     8bc:	af00      	add	r7, sp, #0
     8be:	1c02      	adds	r2, r0, #0
     8c0:	1dfb      	adds	r3, r7, #7
     8c2:	701a      	strb	r2, [r3, #0]
/home/marcelo/Documentos/GER/SDP/Projeto/versão antiga/SDP-2016/Debug/../Sources/SerialCommunication.c:37
     8c4:	1dfb      	adds	r3, r7, #7
     8c6:	781b      	ldrb	r3, [r3, #0]
     8c8:	1c18      	adds	r0, r3, #0
     8ca:	210a      	movs	r1, #10
     8cc:	f7ff fe50 	bl	570 <__aeabi_uidivmod>
     8d0:	1c0b      	adds	r3, r1, #0
     8d2:	b2da      	uxtb	r2, r3
     8d4:	1c3b      	adds	r3, r7, #0
     8d6:	331f      	adds	r3, #31
     8d8:	3230      	adds	r2, #48	; 0x30
     8da:	701a      	strb	r2, [r3, #0]
/home/marcelo/Documentos/GER/SDP/Projeto/versão antiga/SDP-2016/Debug/../Sources/SerialCommunication.c:38
     8dc:	1dfb      	adds	r3, r7, #7
     8de:	781b      	ldrb	r3, [r3, #0]
     8e0:	1c18      	adds	r0, r3, #0
     8e2:	210a      	movs	r1, #10
     8e4:	f7ff fe00 	bl	4e8 <__aeabi_uidiv>
     8e8:	1c03      	adds	r3, r0, #0
     8ea:	b2db      	uxtb	r3, r3
     8ec:	61bb      	str	r3, [r7, #24]
/home/marcelo/Documentos/GER/SDP/Projeto/versão antiga/SDP-2016/Debug/../Sources/SerialCommunication.c:40
     8ee:	69bb      	ldr	r3, [r7, #24]
     8f0:	1c18      	adds	r0, r3, #0
     8f2:	210a      	movs	r1, #10
     8f4:	f7ff fe9c 	bl	630 <__aeabi_idivmod>
     8f8:	1c0b      	adds	r3, r1, #0
     8fa:	b2da      	uxtb	r2, r3
     8fc:	1c3b      	adds	r3, r7, #0
     8fe:	3317      	adds	r3, #23
     900:	3230      	adds	r2, #48	; 0x30
     902:	701a      	strb	r2, [r3, #0]
/home/marcelo/Documentos/GER/SDP/Projeto/versão antiga/SDP-2016/Debug/../Sources/SerialCommunication.c:41
     904:	69bb      	ldr	r3, [r7, #24]
     906:	1c18      	adds	r0, r3, #0
     908:	210a      	movs	r1, #10
     90a:	f7ff fe3b 	bl	584 <__aeabi_idiv>
     90e:	1c03      	adds	r3, r0, #0
     910:	613b      	str	r3, [r7, #16]
/home/marcelo/Documentos/GER/SDP/Projeto/versão antiga/SDP-2016/Debug/../Sources/SerialCommunication.c:43
     912:	693b      	ldr	r3, [r7, #16]
     914:	1c18      	adds	r0, r3, #0
     916:	210a      	movs	r1, #10
     918:	f7ff fe8a 	bl	630 <__aeabi_idivmod>
     91c:	1c0b      	adds	r3, r1, #0
     91e:	b2da      	uxtb	r2, r3
     920:	1c3b      	adds	r3, r7, #0
     922:	330f      	adds	r3, #15
     924:	3230      	adds	r2, #48	; 0x30
     926:	701a      	strb	r2, [r3, #0]
/home/marcelo/Documentos/GER/SDP/Projeto/versão antiga/SDP-2016/Debug/../Sources/SerialCommunication.c:45
     928:	1c3b      	adds	r3, r7, #0
     92a:	330f      	adds	r3, #15
     92c:	781b      	ldrb	r3, [r3, #0]
     92e:	1c18      	adds	r0, r3, #0
     930:	f7ff ffa0 	bl	874 <sendChar>
/home/marcelo/Documentos/GER/SDP/Projeto/versão antiga/SDP-2016/Debug/../Sources/SerialCommunication.c:46
     934:	1c3b      	adds	r3, r7, #0
     936:	3317      	adds	r3, #23
     938:	781b      	ldrb	r3, [r3, #0]
     93a:	1c18      	adds	r0, r3, #0
     93c:	f7ff ff9a 	bl	874 <sendChar>
/home/marcelo/Documentos/GER/SDP/Projeto/versão antiga/SDP-2016/Debug/../Sources/SerialCommunication.c:47
     940:	1c3b      	adds	r3, r7, #0
     942:	331f      	adds	r3, #31
     944:	781b      	ldrb	r3, [r3, #0]
     946:	1c18      	adds	r0, r3, #0
     948:	f7ff ff94 	bl	874 <sendChar>
/home/marcelo/Documentos/GER/SDP/Projeto/versão antiga/SDP-2016/Debug/../Sources/SerialCommunication.c:48
     94c:	46bd      	mov	sp, r7
     94e:	b008      	add	sp, #32
     950:	bd80      	pop	{r7, pc}
     952:	46c0      	nop			; (mov r8, r8)

00000954 <sendArrayOfPixels>:
sendArrayOfPixels():
/home/marcelo/Documentos/GER/SDP/Projeto/versão antiga/SDP-2016/Debug/../Sources/SerialCommunication.c:51
     954:	b580      	push	{r7, lr}
     956:	b084      	sub	sp, #16
     958:	af00      	add	r7, sp, #0
     95a:	6078      	str	r0, [r7, #4]
/home/marcelo/Documentos/GER/SDP/Projeto/versão antiga/SDP-2016/Debug/../Sources/SerialCommunication.c:52
     95c:	f7ff ff7a 	bl	854 <init_Serial>
/home/marcelo/Documentos/GER/SDP/Projeto/versão antiga/SDP-2016/Debug/../Sources/SerialCommunication.c:54
     960:	2300      	movs	r3, #0
     962:	60fb      	str	r3, [r7, #12]
     964:	e00c      	b.n	980 <sendArrayOfPixels+0x2c>
/home/marcelo/Documentos/GER/SDP/Projeto/versão antiga/SDP-2016/Debug/../Sources/SerialCommunication.c:56 (discriminator 2)
     966:	68fb      	ldr	r3, [r7, #12]
     968:	687a      	ldr	r2, [r7, #4]
     96a:	18d3      	adds	r3, r2, r3
     96c:	781b      	ldrb	r3, [r3, #0]
     96e:	1c18      	adds	r0, r3, #0
     970:	f7ff ffa2 	bl	8b8 <itoa_8_bit>
/home/marcelo/Documentos/GER/SDP/Projeto/versão antiga/SDP-2016/Debug/../Sources/SerialCommunication.c:57 (discriminator 2)
     974:	2020      	movs	r0, #32
     976:	f7ff ff7d 	bl	874 <sendChar>
/home/marcelo/Documentos/GER/SDP/Projeto/versão antiga/SDP-2016/Debug/../Sources/SerialCommunication.c:54 (discriminator 2)
     97a:	68fb      	ldr	r3, [r7, #12]
     97c:	3301      	adds	r3, #1
     97e:	60fb      	str	r3, [r7, #12]
/home/marcelo/Documentos/GER/SDP/Projeto/versão antiga/SDP-2016/Debug/../Sources/SerialCommunication.c:54 (discriminator 1)
     980:	68fb      	ldr	r3, [r7, #12]
     982:	2b7f      	cmp	r3, #127	; 0x7f
     984:	ddef      	ble.n	966 <sendArrayOfPixels+0x12>
/home/marcelo/Documentos/GER/SDP/Projeto/versão antiga/SDP-2016/Debug/../Sources/SerialCommunication.c:60
     986:	200a      	movs	r0, #10
     988:	f7ff ff74 	bl	874 <sendChar>
/home/marcelo/Documentos/GER/SDP/Projeto/versão antiga/SDP-2016/Debug/../Sources/SerialCommunication.c:61
     98c:	200d      	movs	r0, #13
     98e:	f7ff ff71 	bl	874 <sendChar>
/home/marcelo/Documentos/GER/SDP/Projeto/versão antiga/SDP-2016/Debug/../Sources/SerialCommunication.c:63
     992:	4b03      	ldr	r3, [pc, #12]	; (9a0 <sendArrayOfPixels+0x4c>)
     994:	2201      	movs	r2, #1
     996:	701a      	strb	r2, [r3, #0]
/home/marcelo/Documentos/GER/SDP/Projeto/versão antiga/SDP-2016/Debug/../Sources/SerialCommunication.c:64
     998:	46bd      	mov	sp, r7
     99a:	b004      	add	sp, #16
     99c:	bd80      	pop	{r7, pc}
     99e:	46c0      	nop			; (mov r8, r8)
     9a0:	1ffff109 	.word	0x1ffff109

000009a4 <main>:
main():
/home/marcelo/Documentos/GER/SDP/SDP-2016/KDS/SDP-2016/Debug/../Sources/main.c:59


/*lint -save  -e970 Disable MISRA rule (6.3) checking. */
int main(void)
/*lint -restore Enable MISRA rule (6.3) checking. */
{
     9a4:	b580      	push	{r7, lr}
     9a6:	af00      	add	r7, sp, #0
/home/marcelo/Documentos/GER/SDP/SDP-2016/KDS/SDP-2016/Debug/../Sources/main.c:63
	/* Write your local variable definition here */

	/*** Processor Expert internal initialization. DON'T REMOVE THIS CODE!!! ***/
	PE_low_level_init();
     9a8:	f000 fba8 	bl	10fc <PE_low_level_init>
/home/marcelo/Documentos/GER/SDP/SDP-2016/KDS/SDP-2016/Debug/../Sources/main.c:67
	/*** End of Processor Expert internal initialization.                    ***/

	/* Write your code here */
	cameraStartReading(TRUE);
     9ac:	2001      	movs	r0, #1
     9ae:	f7ff fe4b 	bl	648 <cameraStartReading>
/home/marcelo/Documentos/GER/SDP/SDP-2016/KDS/SDP-2016/Debug/../Sources/main.c:76 (discriminator 1)
  #ifdef PEX_RTOS_START
    PEX_RTOS_START();                  /* Startup of the selected RTOS. Macro is defined by the RTOS component. */
  #endif
  /*** End of RTOS startup code.  ***/
  /*** Processor Expert end of main routine. DON'T MODIFY THIS CODE!!! ***/
  for(;;){}
     9b2:	e7fe      	b.n	9b2 <main+0xe>

000009b4 <__copy_rom_section>:
__copy_rom_section():
/home/marcelo/Documentos/GER/SDP/Projeto/SDP-2016/Debug/../Project_Settings/Startup_Code/startup.c:44
     9b4:	b580      	push	{r7, lr}
     9b6:	b08a      	sub	sp, #40	; 0x28
     9b8:	af00      	add	r7, sp, #0
     9ba:	60f8      	str	r0, [r7, #12]
     9bc:	60b9      	str	r1, [r7, #8]
     9be:	607a      	str	r2, [r7, #4]
/home/marcelo/Documentos/GER/SDP/Projeto/SDP-2016/Debug/../Project_Settings/Startup_Code/startup.c:45
     9c0:	687b      	ldr	r3, [r7, #4]
     9c2:	627b      	str	r3, [r7, #36]	; 0x24
/home/marcelo/Documentos/GER/SDP/Projeto/SDP-2016/Debug/../Project_Settings/Startup_Code/startup.c:47
     9c4:	2304      	movs	r3, #4
     9c6:	623b      	str	r3, [r7, #32]
/home/marcelo/Documentos/GER/SDP/Projeto/SDP-2016/Debug/../Project_Settings/Startup_Code/startup.c:48
     9c8:	2303      	movs	r3, #3
     9ca:	61fb      	str	r3, [r7, #28]
/home/marcelo/Documentos/GER/SDP/Projeto/SDP-2016/Debug/../Project_Settings/Startup_Code/startup.c:50
     9cc:	2302      	movs	r3, #2
     9ce:	61bb      	str	r3, [r7, #24]
/home/marcelo/Documentos/GER/SDP/Projeto/SDP-2016/Debug/../Project_Settings/Startup_Code/startup.c:51
     9d0:	2301      	movs	r3, #1
     9d2:	617b      	str	r3, [r7, #20]
/home/marcelo/Documentos/GER/SDP/Projeto/SDP-2016/Debug/../Project_Settings/Startup_Code/startup.c:53
     9d4:	2301      	movs	r3, #1
     9d6:	613b      	str	r3, [r7, #16]
/home/marcelo/Documentos/GER/SDP/Projeto/SDP-2016/Debug/../Project_Settings/Startup_Code/startup.c:55
     9d8:	68fa      	ldr	r2, [r7, #12]
     9da:	68bb      	ldr	r3, [r7, #8]
     9dc:	429a      	cmp	r2, r3
     9de:	d002      	beq.n	9e6 <__copy_rom_section+0x32>
/home/marcelo/Documentos/GER/SDP/Projeto/SDP-2016/Debug/../Project_Settings/Startup_Code/startup.c:55 (discriminator 1)
     9e0:	687b      	ldr	r3, [r7, #4]
     9e2:	2b00      	cmp	r3, #0
     9e4:	d100      	bne.n	9e8 <__copy_rom_section+0x34>
/home/marcelo/Documentos/GER/SDP/Projeto/SDP-2016/Debug/../Project_Settings/Startup_Code/startup.c:57
     9e6:	e04d      	b.n	a84 <__copy_rom_section+0xd0>
/home/marcelo/Documentos/GER/SDP/Projeto/SDP-2016/Debug/../Project_Settings/Startup_Code/startup.c:61
     9e8:	e049      	b.n	a7e <__copy_rom_section+0xca>
/home/marcelo/Documentos/GER/SDP/Projeto/SDP-2016/Debug/../Project_Settings/Startup_Code/startup.c:64
     9ea:	68bb      	ldr	r3, [r7, #8]
     9ec:	69fa      	ldr	r2, [r7, #28]
     9ee:	4013      	ands	r3, r2
     9f0:	d118      	bne.n	a24 <__copy_rom_section+0x70>
/home/marcelo/Documentos/GER/SDP/Projeto/SDP-2016/Debug/../Project_Settings/Startup_Code/startup.c:64 (discriminator 1)
     9f2:	68fb      	ldr	r3, [r7, #12]
     9f4:	69fa      	ldr	r2, [r7, #28]
     9f6:	4013      	ands	r3, r2
     9f8:	d114      	bne.n	a24 <__copy_rom_section+0x70>
     9fa:	6a7a      	ldr	r2, [r7, #36]	; 0x24
     9fc:	6a3b      	ldr	r3, [r7, #32]
     9fe:	429a      	cmp	r2, r3
     a00:	d310      	bcc.n	a24 <__copy_rom_section+0x70>
/home/marcelo/Documentos/GER/SDP/Projeto/SDP-2016/Debug/../Project_Settings/Startup_Code/startup.c:66
     a02:	68fb      	ldr	r3, [r7, #12]
     a04:	68ba      	ldr	r2, [r7, #8]
     a06:	6812      	ldr	r2, [r2, #0]
     a08:	601a      	str	r2, [r3, #0]
/home/marcelo/Documentos/GER/SDP/Projeto/SDP-2016/Debug/../Project_Settings/Startup_Code/startup.c:67
     a0a:	68fa      	ldr	r2, [r7, #12]
     a0c:	6a3b      	ldr	r3, [r7, #32]
     a0e:	18d3      	adds	r3, r2, r3
     a10:	60fb      	str	r3, [r7, #12]
/home/marcelo/Documentos/GER/SDP/Projeto/SDP-2016/Debug/../Project_Settings/Startup_Code/startup.c:68
     a12:	68ba      	ldr	r2, [r7, #8]
     a14:	6a3b      	ldr	r3, [r7, #32]
     a16:	18d3      	adds	r3, r2, r3
     a18:	60bb      	str	r3, [r7, #8]
/home/marcelo/Documentos/GER/SDP/Projeto/SDP-2016/Debug/../Project_Settings/Startup_Code/startup.c:69
     a1a:	6a7a      	ldr	r2, [r7, #36]	; 0x24
     a1c:	6a3b      	ldr	r3, [r7, #32]
     a1e:	1ad3      	subs	r3, r2, r3
     a20:	627b      	str	r3, [r7, #36]	; 0x24
     a22:	e02c      	b.n	a7e <__copy_rom_section+0xca>
/home/marcelo/Documentos/GER/SDP/Projeto/SDP-2016/Debug/../Project_Settings/Startup_Code/startup.c:71
     a24:	68bb      	ldr	r3, [r7, #8]
     a26:	697a      	ldr	r2, [r7, #20]
     a28:	4013      	ands	r3, r2
     a2a:	d118      	bne.n	a5e <__copy_rom_section+0xaa>
/home/marcelo/Documentos/GER/SDP/Projeto/SDP-2016/Debug/../Project_Settings/Startup_Code/startup.c:71 (discriminator 1)
     a2c:	68fb      	ldr	r3, [r7, #12]
     a2e:	697a      	ldr	r2, [r7, #20]
     a30:	4013      	ands	r3, r2
     a32:	d114      	bne.n	a5e <__copy_rom_section+0xaa>
     a34:	6a7a      	ldr	r2, [r7, #36]	; 0x24
     a36:	69bb      	ldr	r3, [r7, #24]
     a38:	429a      	cmp	r2, r3
     a3a:	d310      	bcc.n	a5e <__copy_rom_section+0xaa>
/home/marcelo/Documentos/GER/SDP/Projeto/SDP-2016/Debug/../Project_Settings/Startup_Code/startup.c:73
     a3c:	68fb      	ldr	r3, [r7, #12]
     a3e:	68ba      	ldr	r2, [r7, #8]
     a40:	8812      	ldrh	r2, [r2, #0]
     a42:	801a      	strh	r2, [r3, #0]
/home/marcelo/Documentos/GER/SDP/Projeto/SDP-2016/Debug/../Project_Settings/Startup_Code/startup.c:74
     a44:	68fa      	ldr	r2, [r7, #12]
     a46:	69bb      	ldr	r3, [r7, #24]
     a48:	18d3      	adds	r3, r2, r3
     a4a:	60fb      	str	r3, [r7, #12]
/home/marcelo/Documentos/GER/SDP/Projeto/SDP-2016/Debug/../Project_Settings/Startup_Code/startup.c:75
     a4c:	68ba      	ldr	r2, [r7, #8]
     a4e:	69bb      	ldr	r3, [r7, #24]
     a50:	18d3      	adds	r3, r2, r3
     a52:	60bb      	str	r3, [r7, #8]
/home/marcelo/Documentos/GER/SDP/Projeto/SDP-2016/Debug/../Project_Settings/Startup_Code/startup.c:76
     a54:	6a7a      	ldr	r2, [r7, #36]	; 0x24
     a56:	69bb      	ldr	r3, [r7, #24]
     a58:	1ad3      	subs	r3, r2, r3
     a5a:	627b      	str	r3, [r7, #36]	; 0x24
     a5c:	e00f      	b.n	a7e <__copy_rom_section+0xca>
/home/marcelo/Documentos/GER/SDP/Projeto/SDP-2016/Debug/../Project_Settings/Startup_Code/startup.c:80
     a5e:	68fb      	ldr	r3, [r7, #12]
     a60:	68ba      	ldr	r2, [r7, #8]
     a62:	7812      	ldrb	r2, [r2, #0]
     a64:	701a      	strb	r2, [r3, #0]
/home/marcelo/Documentos/GER/SDP/Projeto/SDP-2016/Debug/../Project_Settings/Startup_Code/startup.c:81
     a66:	68fa      	ldr	r2, [r7, #12]
     a68:	693b      	ldr	r3, [r7, #16]
     a6a:	18d3      	adds	r3, r2, r3
     a6c:	60fb      	str	r3, [r7, #12]
/home/marcelo/Documentos/GER/SDP/Projeto/SDP-2016/Debug/../Project_Settings/Startup_Code/startup.c:82
     a6e:	68ba      	ldr	r2, [r7, #8]
     a70:	693b      	ldr	r3, [r7, #16]
     a72:	18d3      	adds	r3, r2, r3
     a74:	60bb      	str	r3, [r7, #8]
/home/marcelo/Documentos/GER/SDP/Projeto/SDP-2016/Debug/../Project_Settings/Startup_Code/startup.c:83
     a76:	6a7a      	ldr	r2, [r7, #36]	; 0x24
     a78:	693b      	ldr	r3, [r7, #16]
     a7a:	1ad3      	subs	r3, r2, r3
     a7c:	627b      	str	r3, [r7, #36]	; 0x24
/home/marcelo/Documentos/GER/SDP/Projeto/SDP-2016/Debug/../Project_Settings/Startup_Code/startup.c:61 (discriminator 1)
     a7e:	6a7b      	ldr	r3, [r7, #36]	; 0x24
     a80:	2b00      	cmp	r3, #0
     a82:	d1b2      	bne.n	9ea <__copy_rom_section+0x36>
/home/marcelo/Documentos/GER/SDP/Projeto/SDP-2016/Debug/../Project_Settings/Startup_Code/startup.c:86
     a84:	46bd      	mov	sp, r7
     a86:	b00a      	add	sp, #40	; 0x28
     a88:	bd80      	pop	{r7, pc}
     a8a:	46c0      	nop			; (mov r8, r8)

00000a8c <__copy_rom_sections_to_ram>:
__copy_rom_sections_to_ram():
/home/marcelo/Documentos/GER/SDP/Projeto/SDP-2016/Debug/../Project_Settings/Startup_Code/startup.c:98
     a8c:	b590      	push	{r4, r7, lr}
     a8e:	b083      	sub	sp, #12
     a90:	af00      	add	r7, sp, #0
/home/marcelo/Documentos/GER/SDP/Projeto/SDP-2016/Debug/../Project_Settings/Startup_Code/startup.c:102
     a92:	4b23      	ldr	r3, [pc, #140]	; (b20 <__copy_rom_sections_to_ram+0x94>)
     a94:	2b00      	cmp	r3, #0
     a96:	d100      	bne.n	a9a <__copy_rom_sections_to_ram+0xe>
/home/marcelo/Documentos/GER/SDP/Projeto/SDP-2016/Debug/../Project_Settings/Startup_Code/startup.c:102 (discriminator 1)
     a98:	e03e      	b.n	b18 <__copy_rom_sections_to_ram+0x8c>
/home/marcelo/Documentos/GER/SDP/Projeto/SDP-2016/Debug/../Project_Settings/Startup_Code/startup.c:107
     a9a:	2300      	movs	r3, #0
     a9c:	607b      	str	r3, [r7, #4]
     a9e:	e01d      	b.n	adc <__copy_rom_sections_to_ram+0x50>
/home/marcelo/Documentos/GER/SDP/Projeto/SDP-2016/Debug/../Project_Settings/Startup_Code/startup.c:113
     aa0:	491f      	ldr	r1, [pc, #124]	; (b20 <__copy_rom_sections_to_ram+0x94>)
     aa2:	687a      	ldr	r2, [r7, #4]
     aa4:	1c13      	adds	r3, r2, #0
     aa6:	005b      	lsls	r3, r3, #1
     aa8:	189b      	adds	r3, r3, r2
     aaa:	009b      	lsls	r3, r3, #2
     aac:	18cb      	adds	r3, r1, r3
     aae:	6858      	ldr	r0, [r3, #4]
     ab0:	491b      	ldr	r1, [pc, #108]	; (b20 <__copy_rom_sections_to_ram+0x94>)
     ab2:	687a      	ldr	r2, [r7, #4]
     ab4:	1c13      	adds	r3, r2, #0
     ab6:	005b      	lsls	r3, r3, #1
     ab8:	189b      	adds	r3, r3, r2
     aba:	009b      	lsls	r3, r3, #2
     abc:	5859      	ldr	r1, [r3, r1]
     abe:	4c18      	ldr	r4, [pc, #96]	; (b20 <__copy_rom_sections_to_ram+0x94>)
     ac0:	687a      	ldr	r2, [r7, #4]
     ac2:	1c13      	adds	r3, r2, #0
     ac4:	005b      	lsls	r3, r3, #1
     ac6:	189b      	adds	r3, r3, r2
     ac8:	009b      	lsls	r3, r3, #2
     aca:	18e3      	adds	r3, r4, r3
     acc:	3308      	adds	r3, #8
     ace:	681b      	ldr	r3, [r3, #0]
     ad0:	1c1a      	adds	r2, r3, #0
     ad2:	f7ff ff6f 	bl	9b4 <__copy_rom_section>
/home/marcelo/Documentos/GER/SDP/Projeto/SDP-2016/Debug/../Project_Settings/Startup_Code/startup.c:111
     ad6:	687b      	ldr	r3, [r7, #4]
     ad8:	3301      	adds	r3, #1
     ada:	607b      	str	r3, [r7, #4]
/home/marcelo/Documentos/GER/SDP/Projeto/SDP-2016/Debug/../Project_Settings/Startup_Code/startup.c:108 (discriminator 1)
     adc:	4910      	ldr	r1, [pc, #64]	; (b20 <__copy_rom_sections_to_ram+0x94>)
     ade:	687a      	ldr	r2, [r7, #4]
     ae0:	1c13      	adds	r3, r2, #0
     ae2:	005b      	lsls	r3, r3, #1
     ae4:	189b      	adds	r3, r3, r2
     ae6:	009b      	lsls	r3, r3, #2
     ae8:	585b      	ldr	r3, [r3, r1]
/home/marcelo/Documentos/GER/SDP/Projeto/SDP-2016/Debug/../Project_Settings/Startup_Code/startup.c:107 (discriminator 1)
     aea:	2b00      	cmp	r3, #0
     aec:	d1d8      	bne.n	aa0 <__copy_rom_sections_to_ram+0x14>
/home/marcelo/Documentos/GER/SDP/Projeto/SDP-2016/Debug/../Project_Settings/Startup_Code/startup.c:109
     aee:	490c      	ldr	r1, [pc, #48]	; (b20 <__copy_rom_sections_to_ram+0x94>)
     af0:	687a      	ldr	r2, [r7, #4]
     af2:	1c13      	adds	r3, r2, #0
     af4:	005b      	lsls	r3, r3, #1
     af6:	189b      	adds	r3, r3, r2
     af8:	009b      	lsls	r3, r3, #2
     afa:	18cb      	adds	r3, r1, r3
     afc:	685b      	ldr	r3, [r3, #4]
/home/marcelo/Documentos/GER/SDP/Projeto/SDP-2016/Debug/../Project_Settings/Startup_Code/startup.c:108
     afe:	2b00      	cmp	r3, #0
     b00:	d1ce      	bne.n	aa0 <__copy_rom_sections_to_ram+0x14>
/home/marcelo/Documentos/GER/SDP/Projeto/SDP-2016/Debug/../Project_Settings/Startup_Code/startup.c:110
     b02:	4907      	ldr	r1, [pc, #28]	; (b20 <__copy_rom_sections_to_ram+0x94>)
     b04:	687a      	ldr	r2, [r7, #4]
     b06:	1c13      	adds	r3, r2, #0
     b08:	005b      	lsls	r3, r3, #1
     b0a:	189b      	adds	r3, r3, r2
     b0c:	009b      	lsls	r3, r3, #2
     b0e:	18cb      	adds	r3, r1, r3
     b10:	3308      	adds	r3, #8
     b12:	681b      	ldr	r3, [r3, #0]
/home/marcelo/Documentos/GER/SDP/Projeto/SDP-2016/Debug/../Project_Settings/Startup_Code/startup.c:109
     b14:	2b00      	cmp	r3, #0
     b16:	d1c3      	bne.n	aa0 <__copy_rom_sections_to_ram+0x14>
/home/marcelo/Documentos/GER/SDP/Projeto/SDP-2016/Debug/../Project_Settings/Startup_Code/startup.c:118
     b18:	46bd      	mov	sp, r7
     b1a:	b003      	add	sp, #12
     b1c:	bd90      	pop	{r4, r7, pc}
     b1e:	46c0      	nop			; (mov r8, r8)
     b20:	00001a48 	.word	0x00001a48

00000b24 <__init_registers>:
__init_registers():
/home/marcelo/Documentos/GER/SDP/Projeto/SDP-2016/Debug/../Project_Settings/Startup_Code/startup.c:168
     b24:	b580      	push	{r7, lr}
     b26:	af00      	add	r7, sp, #0
/home/marcelo/Documentos/GER/SDP/Projeto/SDP-2016/Debug/../Project_Settings/Startup_Code/startup.c:174
     b28:	46bd      	mov	sp, r7
     b2a:	bd80      	pop	{r7, pc}

00000b2c <__init_user>:
__init_user():
/home/marcelo/Documentos/GER/SDP/Projeto/SDP-2016/Debug/../Project_Settings/Startup_Code/startup.c:182
     b2c:	b580      	push	{r7, lr}
     b2e:	af00      	add	r7, sp, #0
/home/marcelo/Documentos/GER/SDP/Projeto/SDP-2016/Debug/../Project_Settings/Startup_Code/startup.c:184
     b30:	46bd      	mov	sp, r7
     b32:	bd80      	pop	{r7, pc}

00000b34 <__thumb_startup>:
__thumb_startup():
/home/marcelo/Documentos/GER/SDP/Projeto/SDP-2016/Debug/../Project_Settings/Startup_Code/startup.c:197
     b34:	4c0a      	ldr	r4, [pc, #40]	; (b60 <skip_sp+0x18>)
/home/marcelo/Documentos/GER/SDP/Projeto/SDP-2016/Debug/../Project_Settings/Startup_Code/startup.c:202
     b36:	1c20      	adds	r0, r4, #0
     b38:	2800      	cmp	r0, #0
     b3a:	d005      	beq.n	b48 <skip_sp>
     b3c:	4685      	mov	sp, r0
     b3e:	b081      	sub	sp, #4
     b40:	2000      	movs	r0, #0
     b42:	43c0      	mvns	r0, r0
     b44:	9000      	str	r0, [sp, #0]
     b46:	b001      	add	sp, #4

00000b48 <skip_sp>:
/home/marcelo/Documentos/GER/SDP/Projeto/SDP-2016/Debug/../Project_Settings/Startup_Code/startup.c:216
     b48:	f7ff ffec 	bl	b24 <__init_registers>
/home/marcelo/Documentos/GER/SDP/Projeto/SDP-2016/Debug/../Project_Settings/Startup_Code/startup.c:219
     b4c:	f000 fa4e 	bl	fec <__init_hardware>
/home/marcelo/Documentos/GER/SDP/Projeto/SDP-2016/Debug/../Project_Settings/Startup_Code/startup.c:222
     b50:	f7ff ff9c 	bl	a8c <__copy_rom_sections_to_ram>
/home/marcelo/Documentos/GER/SDP/Projeto/SDP-2016/Debug/../Project_Settings/Startup_Code/startup.c:225
     b54:	f7ff ffea 	bl	b2c <__init_user>
/home/marcelo/Documentos/GER/SDP/Projeto/SDP-2016/Debug/../Project_Settings/Startup_Code/startup.c:228
     b58:	f7ff fc8a 	bl	470 <_mainCRTStartup>
/home/marcelo/Documentos/GER/SDP/Projeto/SDP-2016/Debug/../Project_Settings/Startup_Code/startup.c:238 (discriminator 1)
     b5c:	e7fe      	b.n	b5c <skip_sp+0x14>
     b5e:	46c0      	nop			; (mov r8, r8)
     b60:	20003000 	.word	0x20003000

00000b64 <AdcLdd1_Init>:
AdcLdd1_Init():
/home/marcelo/Documentos/GER/SDP/Projeto/versão antiga/SDP-2016/Debug/../Generated_Code/AdcLdd1.c:176
     b64:	b580      	push	{r7, lr}
     b66:	b084      	sub	sp, #16
     b68:	af00      	add	r7, sp, #0
     b6a:	6078      	str	r0, [r7, #4]
/home/marcelo/Documentos/GER/SDP/Projeto/versão antiga/SDP-2016/Debug/../Generated_Code/AdcLdd1.c:181
     b6c:	4b25      	ldr	r3, [pc, #148]	; (c04 <AdcLdd1_Init+0xa0>)
     b6e:	60fb      	str	r3, [r7, #12]
/home/marcelo/Documentos/GER/SDP/Projeto/versão antiga/SDP-2016/Debug/../Generated_Code/AdcLdd1.c:182
     b70:	68fb      	ldr	r3, [r7, #12]
     b72:	687a      	ldr	r2, [r7, #4]
     b74:	605a      	str	r2, [r3, #4]
/home/marcelo/Documentos/GER/SDP/Projeto/versão antiga/SDP-2016/Debug/../Generated_Code/AdcLdd1.c:185
     b76:	4b24      	ldr	r3, [pc, #144]	; (c08 <AdcLdd1_Init+0xa4>)
     b78:	68fa      	ldr	r2, [r7, #12]
     b7a:	601a      	str	r2, [r3, #0]
/home/marcelo/Documentos/GER/SDP/Projeto/versão antiga/SDP-2016/Debug/../Generated_Code/AdcLdd1.c:186
     b7c:	68fb      	ldr	r3, [r7, #12]
     b7e:	2200      	movs	r2, #0
     b80:	701a      	strb	r2, [r3, #0]
/home/marcelo/Documentos/GER/SDP/Projeto/versão antiga/SDP-2016/Debug/../Generated_Code/AdcLdd1.c:187
     b82:	68fb      	ldr	r3, [r7, #12]
     b84:	2200      	movs	r2, #0
     b86:	709a      	strb	r2, [r3, #2]
/home/marcelo/Documentos/GER/SDP/Projeto/versão antiga/SDP-2016/Debug/../Generated_Code/AdcLdd1.c:189
     b88:	4a20      	ldr	r2, [pc, #128]	; (c0c <AdcLdd1_Init+0xa8>)
     b8a:	4920      	ldr	r1, [pc, #128]	; (c0c <AdcLdd1_Init+0xa8>)
     b8c:	4b20      	ldr	r3, [pc, #128]	; (c10 <AdcLdd1_Init+0xac>)
     b8e:	58cb      	ldr	r3, [r1, r3]
     b90:	2180      	movs	r1, #128	; 0x80
     b92:	0509      	lsls	r1, r1, #20
     b94:	4319      	orrs	r1, r3
     b96:	4b1e      	ldr	r3, [pc, #120]	; (c10 <AdcLdd1_Init+0xac>)
     b98:	50d1      	str	r1, [r2, r3]
/home/marcelo/Documentos/GER/SDP/Projeto/versão antiga/SDP-2016/Debug/../Generated_Code/AdcLdd1.c:192
     b9a:	4a1e      	ldr	r2, [pc, #120]	; (c14 <AdcLdd1_Init+0xb0>)
     b9c:	491d      	ldr	r1, [pc, #116]	; (c14 <AdcLdd1_Init+0xb0>)
     b9e:	23c3      	movs	r3, #195	; 0xc3
     ba0:	009b      	lsls	r3, r3, #2
     ba2:	58cb      	ldr	r3, [r1, r3]
     ba4:	009b      	lsls	r3, r3, #2
     ba6:	0899      	lsrs	r1, r3, #2
     ba8:	23c3      	movs	r3, #195	; 0xc3
     baa:	009b      	lsls	r3, r3, #2
     bac:	50d1      	str	r1, [r2, r3]
/home/marcelo/Documentos/GER/SDP/Projeto/versão antiga/SDP-2016/Debug/../Generated_Code/AdcLdd1.c:198
     bae:	4b19      	ldr	r3, [pc, #100]	; (c14 <AdcLdd1_Init+0xb0>)
     bb0:	4a18      	ldr	r2, [pc, #96]	; (c14 <AdcLdd1_Init+0xb0>)
     bb2:	6812      	ldr	r2, [r2, #0]
     bb4:	2180      	movs	r1, #128	; 0x80
     bb6:	0209      	lsls	r1, r1, #8
     bb8:	430a      	orrs	r2, r1
     bba:	601a      	str	r2, [r3, #0]
/home/marcelo/Documentos/GER/SDP/Projeto/versão antiga/SDP-2016/Debug/../Generated_Code/AdcLdd1.c:200
     bbc:	4b16      	ldr	r3, [pc, #88]	; (c18 <AdcLdd1_Init+0xb4>)
     bbe:	4a16      	ldr	r2, [pc, #88]	; (c18 <AdcLdd1_Init+0xb4>)
     bc0:	6951      	ldr	r1, [r2, #20]
     bc2:	4a16      	ldr	r2, [pc, #88]	; (c1c <AdcLdd1_Init+0xb8>)
     bc4:	400a      	ands	r2, r1
     bc6:	615a      	str	r2, [r3, #20]
/home/marcelo/Documentos/GER/SDP/Projeto/versão antiga/SDP-2016/Debug/../Generated_Code/AdcLdd1.c:202
     bc8:	4b15      	ldr	r3, [pc, #84]	; (c20 <AdcLdd1_Init+0xbc>)
     bca:	4a15      	ldr	r2, [pc, #84]	; (c20 <AdcLdd1_Init+0xbc>)
     bcc:	68d2      	ldr	r2, [r2, #12]
     bce:	2110      	movs	r1, #16
     bd0:	430a      	orrs	r2, r1
     bd2:	60da      	str	r2, [r3, #12]
/home/marcelo/Documentos/GER/SDP/Projeto/versão antiga/SDP-2016/Debug/../Generated_Code/AdcLdd1.c:204
     bd4:	4b12      	ldr	r3, [pc, #72]	; (c20 <AdcLdd1_Init+0xbc>)
     bd6:	2260      	movs	r2, #96	; 0x60
     bd8:	609a      	str	r2, [r3, #8]
/home/marcelo/Documentos/GER/SDP/Projeto/versão antiga/SDP-2016/Debug/../Generated_Code/AdcLdd1.c:209
     bda:	4b11      	ldr	r3, [pc, #68]	; (c20 <AdcLdd1_Init+0xbc>)
     bdc:	4a10      	ldr	r2, [pc, #64]	; (c20 <AdcLdd1_Init+0xbc>)
     bde:	68d2      	ldr	r2, [r2, #12]
     be0:	210f      	movs	r1, #15
     be2:	438a      	bics	r2, r1
     be4:	60da      	str	r2, [r3, #12]
/home/marcelo/Documentos/GER/SDP/Projeto/versão antiga/SDP-2016/Debug/../Generated_Code/AdcLdd1.c:215
     be6:	4b0e      	ldr	r3, [pc, #56]	; (c20 <AdcLdd1_Init+0xbc>)
     be8:	2200      	movs	r2, #0
     bea:	621a      	str	r2, [r3, #32]
/home/marcelo/Documentos/GER/SDP/Projeto/versão antiga/SDP-2016/Debug/../Generated_Code/AdcLdd1.c:217
     bec:	4b0c      	ldr	r3, [pc, #48]	; (c20 <AdcLdd1_Init+0xbc>)
     bee:	2240      	movs	r2, #64	; 0x40
     bf0:	625a      	str	r2, [r3, #36]	; 0x24
/home/marcelo/Documentos/GER/SDP/Projeto/versão antiga/SDP-2016/Debug/../Generated_Code/AdcLdd1.c:219
     bf2:	4b0c      	ldr	r3, [pc, #48]	; (c24 <AdcLdd1_Init+0xc0>)
     bf4:	68fa      	ldr	r2, [r7, #12]
     bf6:	615a      	str	r2, [r3, #20]
/home/marcelo/Documentos/GER/SDP/Projeto/versão antiga/SDP-2016/Debug/../Generated_Code/AdcLdd1.c:220
     bf8:	68fb      	ldr	r3, [r7, #12]
/home/marcelo/Documentos/GER/SDP/Projeto/versão antiga/SDP-2016/Debug/../Generated_Code/AdcLdd1.c:221
     bfa:	1c18      	adds	r0, r3, #0
     bfc:	46bd      	mov	sp, r7
     bfe:	b004      	add	sp, #16
     c00:	bd80      	pop	{r7, pc}
     c02:	46c0      	nop			; (mov r8, r8)
     c04:	1ffff084 	.word	0x1ffff084
     c08:	1ffff08c 	.word	0x1ffff08c
     c0c:	40047000 	.word	0x40047000
     c10:	0000103c 	.word	0x0000103c
     c14:	e000e100 	.word	0xe000e100
     c18:	4004c000 	.word	0x4004c000
     c1c:	fefff8ff 	.word	0xfefff8ff
     c20:	4003b000 	.word	0x4003b000
     c24:	1ffff0a8 	.word	0x1ffff0a8

00000c28 <AdcLdd1_StartSingleMeasurement>:
AdcLdd1_StartSingleMeasurement():
/home/marcelo/Documentos/GER/SDP/Projeto/versão antiga/SDP-2016/Debug/../Generated_Code/AdcLdd1.c:262
     c28:	b580      	push	{r7, lr}
     c2a:	b082      	sub	sp, #8
     c2c:	af00      	add	r7, sp, #0
     c2e:	6078      	str	r0, [r7, #4]
/home/marcelo/Documentos/GER/SDP/Projeto/versão antiga/SDP-2016/Debug/../Generated_Code/AdcLdd1.c:264
     c30:	4b0d      	ldr	r3, [pc, #52]	; (c68 <AdcLdd1_StartSingleMeasurement+0x40>)
     c32:	6a1a      	ldr	r2, [r3, #32]
     c34:	2380      	movs	r3, #128	; 0x80
     c36:	4013      	ands	r3, r2
     c38:	d001      	beq.n	c3e <AdcLdd1_StartSingleMeasurement+0x16>
/home/marcelo/Documentos/GER/SDP/Projeto/versão antiga/SDP-2016/Debug/../Generated_Code/AdcLdd1.c:265
     c3a:	2308      	movs	r3, #8
     c3c:	e010      	b.n	c60 <AdcLdd1_StartSingleMeasurement+0x38>
/home/marcelo/Documentos/GER/SDP/Projeto/versão antiga/SDP-2016/Debug/../Generated_Code/AdcLdd1.c:267
     c3e:	4b0a      	ldr	r3, [pc, #40]	; (c68 <AdcLdd1_StartSingleMeasurement+0x40>)
     c40:	4a09      	ldr	r2, [pc, #36]	; (c68 <AdcLdd1_StartSingleMeasurement+0x40>)
     c42:	6a52      	ldr	r2, [r2, #36]	; 0x24
     c44:	2148      	movs	r1, #72	; 0x48
     c46:	438a      	bics	r2, r1
     c48:	625a      	str	r2, [r3, #36]	; 0x24
/home/marcelo/Documentos/GER/SDP/Projeto/versão antiga/SDP-2016/Debug/../Generated_Code/AdcLdd1.c:268
     c4a:	4b07      	ldr	r3, [pc, #28]	; (c68 <AdcLdd1_StartSingleMeasurement+0x40>)
     c4c:	4a06      	ldr	r2, [pc, #24]	; (c68 <AdcLdd1_StartSingleMeasurement+0x40>)
     c4e:	6a12      	ldr	r2, [r2, #32]
     c50:	2140      	movs	r1, #64	; 0x40
     c52:	438a      	bics	r2, r1
     c54:	621a      	str	r2, [r3, #32]
/home/marcelo/Documentos/GER/SDP/Projeto/versão antiga/SDP-2016/Debug/../Generated_Code/AdcLdd1.c:269
     c56:	4b04      	ldr	r3, [pc, #16]	; (c68 <AdcLdd1_StartSingleMeasurement+0x40>)
     c58:	687a      	ldr	r2, [r7, #4]
     c5a:	7852      	ldrb	r2, [r2, #1]
     c5c:	601a      	str	r2, [r3, #0]
/home/marcelo/Documentos/GER/SDP/Projeto/versão antiga/SDP-2016/Debug/../Generated_Code/AdcLdd1.c:270
     c5e:	2300      	movs	r3, #0
/home/marcelo/Documentos/GER/SDP/Projeto/versão antiga/SDP-2016/Debug/../Generated_Code/AdcLdd1.c:271
     c60:	1c18      	adds	r0, r3, #0
     c62:	46bd      	mov	sp, r7
     c64:	b002      	add	sp, #8
     c66:	bd80      	pop	{r7, pc}
     c68:	4003b000 	.word	0x4003b000

00000c6c <AdcLdd1_CreateSampleGroup>:
AdcLdd1_CreateSampleGroup():
/home/marcelo/Documentos/GER/SDP/Projeto/versão antiga/SDP-2016/Debug/../Generated_Code/AdcLdd1.c:345
     c6c:	b580      	push	{r7, lr}
     c6e:	b086      	sub	sp, #24
     c70:	af00      	add	r7, sp, #0
     c72:	60f8      	str	r0, [r7, #12]
     c74:	60b9      	str	r1, [r7, #8]
     c76:	1dfb      	adds	r3, r7, #7
     c78:	701a      	strb	r2, [r3, #0]
/home/marcelo/Documentos/GER/SDP/Projeto/versão antiga/SDP-2016/Debug/../Generated_Code/AdcLdd1.c:346
     c7a:	68fb      	ldr	r3, [r7, #12]
     c7c:	617b      	str	r3, [r7, #20]
/home/marcelo/Documentos/GER/SDP/Projeto/versão antiga/SDP-2016/Debug/../Generated_Code/AdcLdd1.c:350
     c7e:	1dfb      	adds	r3, r7, #7
     c80:	781b      	ldrb	r3, [r3, #0]
     c82:	2b01      	cmp	r3, #1
     c84:	d803      	bhi.n	c8e <AdcLdd1_CreateSampleGroup+0x22>
/home/marcelo/Documentos/GER/SDP/Projeto/versão antiga/SDP-2016/Debug/../Generated_Code/AdcLdd1.c:350 (discriminator 1)
     c86:	1dfb      	adds	r3, r7, #7
     c88:	781b      	ldrb	r3, [r3, #0]
     c8a:	2b00      	cmp	r3, #0
     c8c:	d101      	bne.n	c92 <AdcLdd1_CreateSampleGroup+0x26>
/home/marcelo/Documentos/GER/SDP/Projeto/versão antiga/SDP-2016/Debug/../Generated_Code/AdcLdd1.c:351
     c8e:	2396      	movs	r3, #150	; 0x96
     c90:	e017      	b.n	cc2 <AdcLdd1_CreateSampleGroup+0x56>
/home/marcelo/Documentos/GER/SDP/Projeto/versão antiga/SDP-2016/Debug/../Generated_Code/AdcLdd1.c:353
     c92:	4b0e      	ldr	r3, [pc, #56]	; (ccc <AdcLdd1_CreateSampleGroup+0x60>)
     c94:	6a1a      	ldr	r2, [r3, #32]
     c96:	2380      	movs	r3, #128	; 0x80
     c98:	4013      	ands	r3, r2
     c9a:	d001      	beq.n	ca0 <AdcLdd1_CreateSampleGroup+0x34>
/home/marcelo/Documentos/GER/SDP/Projeto/versão antiga/SDP-2016/Debug/../Generated_Code/AdcLdd1.c:354
     c9c:	2308      	movs	r3, #8
     c9e:	e010      	b.n	cc2 <AdcLdd1_CreateSampleGroup+0x56>
/home/marcelo/Documentos/GER/SDP/Projeto/versão antiga/SDP-2016/Debug/../Generated_Code/AdcLdd1.c:356
     ca0:	697b      	ldr	r3, [r7, #20]
     ca2:	1dfa      	adds	r2, r7, #7
     ca4:	7812      	ldrb	r2, [r2, #0]
     ca6:	701a      	strb	r2, [r3, #0]
/home/marcelo/Documentos/GER/SDP/Projeto/versão antiga/SDP-2016/Debug/../Generated_Code/AdcLdd1.c:359
     ca8:	68bb      	ldr	r3, [r7, #8]
     caa:	781b      	ldrb	r3, [r3, #0]
     cac:	2b00      	cmp	r3, #0
     cae:	d001      	beq.n	cb4 <AdcLdd1_CreateSampleGroup+0x48>
/home/marcelo/Documentos/GER/SDP/Projeto/versão antiga/SDP-2016/Debug/../Generated_Code/AdcLdd1.c:360
     cb0:	2382      	movs	r3, #130	; 0x82
     cb2:	e006      	b.n	cc2 <AdcLdd1_CreateSampleGroup+0x56>
/home/marcelo/Documentos/GER/SDP/Projeto/versão antiga/SDP-2016/Debug/../Generated_Code/AdcLdd1.c:362
     cb4:	2346      	movs	r3, #70	; 0x46
     cb6:	2240      	movs	r2, #64	; 0x40
     cb8:	4313      	orrs	r3, r2
     cba:	b2da      	uxtb	r2, r3
     cbc:	697b      	ldr	r3, [r7, #20]
     cbe:	705a      	strb	r2, [r3, #1]
/home/marcelo/Documentos/GER/SDP/Projeto/versão antiga/SDP-2016/Debug/../Generated_Code/AdcLdd1.c:363
     cc0:	2300      	movs	r3, #0
/home/marcelo/Documentos/GER/SDP/Projeto/versão antiga/SDP-2016/Debug/../Generated_Code/AdcLdd1.c:364
     cc2:	1c18      	adds	r0, r3, #0
     cc4:	46bd      	mov	sp, r7
     cc6:	b006      	add	sp, #24
     cc8:	bd80      	pop	{r7, pc}
     cca:	46c0      	nop			; (mov r8, r8)
     ccc:	4003b000 	.word	0x4003b000

00000cd0 <AdcLdd1_GetMeasuredValues>:
AdcLdd1_GetMeasuredValues():
/home/marcelo/Documentos/GER/SDP/Projeto/versão antiga/SDP-2016/Debug/../Generated_Code/AdcLdd1.c:399
     cd0:	b580      	push	{r7, lr}
     cd2:	b084      	sub	sp, #16
     cd4:	af00      	add	r7, sp, #0
     cd6:	6078      	str	r0, [r7, #4]
     cd8:	6039      	str	r1, [r7, #0]
/home/marcelo/Documentos/GER/SDP/Projeto/versão antiga/SDP-2016/Debug/../Generated_Code/AdcLdd1.c:401
     cda:	683b      	ldr	r3, [r7, #0]
     cdc:	60bb      	str	r3, [r7, #8]
/home/marcelo/Documentos/GER/SDP/Projeto/versão antiga/SDP-2016/Debug/../Generated_Code/AdcLdd1.c:405
     cde:	1c3b      	adds	r3, r7, #0
     ce0:	330f      	adds	r3, #15
     ce2:	2200      	movs	r2, #0
     ce4:	701a      	strb	r2, [r3, #0]
     ce6:	e014      	b.n	d12 <AdcLdd1_GetMeasuredValues+0x42>
/home/marcelo/Documentos/GER/SDP/Projeto/versão antiga/SDP-2016/Debug/../Generated_Code/AdcLdd1.c:406 (discriminator 2)
     ce8:	1c3b      	adds	r3, r7, #0
     cea:	330f      	adds	r3, #15
     cec:	781b      	ldrb	r3, [r3, #0]
     cee:	68ba      	ldr	r2, [r7, #8]
     cf0:	18d3      	adds	r3, r2, r3
     cf2:	4a0e      	ldr	r2, [pc, #56]	; (d2c <AdcLdd1_GetMeasuredValues+0x5c>)
     cf4:	1c39      	adds	r1, r7, #0
     cf6:	310f      	adds	r1, #15
     cf8:	7809      	ldrb	r1, [r1, #0]
     cfa:	3104      	adds	r1, #4
     cfc:	0089      	lsls	r1, r1, #2
     cfe:	588a      	ldr	r2, [r1, r2]
     d00:	b2d2      	uxtb	r2, r2
     d02:	701a      	strb	r2, [r3, #0]
/home/marcelo/Documentos/GER/SDP/Projeto/versão antiga/SDP-2016/Debug/../Generated_Code/AdcLdd1.c:405 (discriminator 2)
     d04:	1c3b      	adds	r3, r7, #0
     d06:	330f      	adds	r3, #15
     d08:	781a      	ldrb	r2, [r3, #0]
     d0a:	1c3b      	adds	r3, r7, #0
     d0c:	330f      	adds	r3, #15
     d0e:	3201      	adds	r2, #1
     d10:	701a      	strb	r2, [r3, #0]
/home/marcelo/Documentos/GER/SDP/Projeto/versão antiga/SDP-2016/Debug/../Generated_Code/AdcLdd1.c:405 (discriminator 1)
     d12:	687b      	ldr	r3, [r7, #4]
     d14:	781b      	ldrb	r3, [r3, #0]
     d16:	1c3a      	adds	r2, r7, #0
     d18:	320f      	adds	r2, #15
     d1a:	7812      	ldrb	r2, [r2, #0]
     d1c:	429a      	cmp	r2, r3
     d1e:	d3e3      	bcc.n	ce8 <AdcLdd1_GetMeasuredValues+0x18>
/home/marcelo/Documentos/GER/SDP/Projeto/versão antiga/SDP-2016/Debug/../Generated_Code/AdcLdd1.c:408
     d20:	2300      	movs	r3, #0
/home/marcelo/Documentos/GER/SDP/Projeto/versão antiga/SDP-2016/Debug/../Generated_Code/AdcLdd1.c:409
     d22:	1c18      	adds	r0, r3, #0
     d24:	46bd      	mov	sp, r7
     d26:	b004      	add	sp, #16
     d28:	bd80      	pop	{r7, pc}
     d2a:	46c0      	nop			; (mov r8, r8)
     d2c:	4003b000 	.word	0x4003b000

00000d30 <AdcLdd1_GetCalibrationResultStatus>:
AdcLdd1_GetCalibrationResultStatus():
/home/marcelo/Documentos/GER/SDP/Projeto/versão antiga/SDP-2016/Debug/../Generated_Code/AdcLdd1.c:497
     d30:	b580      	push	{r7, lr}
     d32:	b084      	sub	sp, #16
     d34:	af00      	add	r7, sp, #0
     d36:	6078      	str	r0, [r7, #4]
/home/marcelo/Documentos/GER/SDP/Projeto/versão antiga/SDP-2016/Debug/../Generated_Code/AdcLdd1.c:501
     d38:	4b2a      	ldr	r3, [pc, #168]	; (de4 <AdcLdd1_GetCalibrationResultStatus+0xb4>)
     d3a:	6a5a      	ldr	r2, [r3, #36]	; 0x24
     d3c:	2340      	movs	r3, #64	; 0x40
     d3e:	4013      	ands	r3, r2
     d40:	d001      	beq.n	d46 <AdcLdd1_GetCalibrationResultStatus+0x16>
/home/marcelo/Documentos/GER/SDP/Projeto/versão antiga/SDP-2016/Debug/../Generated_Code/AdcLdd1.c:502
     d42:	231b      	movs	r3, #27
     d44:	e04a      	b.n	ddc <AdcLdd1_GetCalibrationResultStatus+0xac>
/home/marcelo/Documentos/GER/SDP/Projeto/versão antiga/SDP-2016/Debug/../Generated_Code/AdcLdd1.c:506
     d46:	4b27      	ldr	r3, [pc, #156]	; (de4 <AdcLdd1_GetCalibrationResultStatus+0xb4>)
     d48:	6cdb      	ldr	r3, [r3, #76]	; 0x4c
     d4a:	60fb      	str	r3, [r7, #12]
/home/marcelo/Documentos/GER/SDP/Projeto/versão antiga/SDP-2016/Debug/../Generated_Code/AdcLdd1.c:507
     d4c:	4b25      	ldr	r3, [pc, #148]	; (de4 <AdcLdd1_GetCalibrationResultStatus+0xb4>)
     d4e:	6c9b      	ldr	r3, [r3, #72]	; 0x48
     d50:	68fa      	ldr	r2, [r7, #12]
     d52:	18d3      	adds	r3, r2, r3
     d54:	60fb      	str	r3, [r7, #12]
/home/marcelo/Documentos/GER/SDP/Projeto/versão antiga/SDP-2016/Debug/../Generated_Code/AdcLdd1.c:508
     d56:	4b23      	ldr	r3, [pc, #140]	; (de4 <AdcLdd1_GetCalibrationResultStatus+0xb4>)
     d58:	6c5b      	ldr	r3, [r3, #68]	; 0x44
     d5a:	68fa      	ldr	r2, [r7, #12]
     d5c:	18d3      	adds	r3, r2, r3
     d5e:	60fb      	str	r3, [r7, #12]
/home/marcelo/Documentos/GER/SDP/Projeto/versão antiga/SDP-2016/Debug/../Generated_Code/AdcLdd1.c:509
     d60:	4b20      	ldr	r3, [pc, #128]	; (de4 <AdcLdd1_GetCalibrationResultStatus+0xb4>)
     d62:	6c1b      	ldr	r3, [r3, #64]	; 0x40
     d64:	68fa      	ldr	r2, [r7, #12]
     d66:	18d3      	adds	r3, r2, r3
     d68:	60fb      	str	r3, [r7, #12]
/home/marcelo/Documentos/GER/SDP/Projeto/versão antiga/SDP-2016/Debug/../Generated_Code/AdcLdd1.c:510
     d6a:	4b1e      	ldr	r3, [pc, #120]	; (de4 <AdcLdd1_GetCalibrationResultStatus+0xb4>)
     d6c:	6bdb      	ldr	r3, [r3, #60]	; 0x3c
     d6e:	68fa      	ldr	r2, [r7, #12]
     d70:	18d3      	adds	r3, r2, r3
     d72:	60fb      	str	r3, [r7, #12]
/home/marcelo/Documentos/GER/SDP/Projeto/versão antiga/SDP-2016/Debug/../Generated_Code/AdcLdd1.c:511
     d74:	4b1b      	ldr	r3, [pc, #108]	; (de4 <AdcLdd1_GetCalibrationResultStatus+0xb4>)
     d76:	6b9b      	ldr	r3, [r3, #56]	; 0x38
     d78:	68fa      	ldr	r2, [r7, #12]
     d7a:	18d3      	adds	r3, r2, r3
     d7c:	60fb      	str	r3, [r7, #12]
/home/marcelo/Documentos/GER/SDP/Projeto/versão antiga/SDP-2016/Debug/../Generated_Code/AdcLdd1.c:512
     d7e:	68fb      	ldr	r3, [r7, #12]
     d80:	085b      	lsrs	r3, r3, #1
     d82:	2280      	movs	r2, #128	; 0x80
     d84:	0212      	lsls	r2, r2, #8
     d86:	4313      	orrs	r3, r2
     d88:	60fb      	str	r3, [r7, #12]
/home/marcelo/Documentos/GER/SDP/Projeto/versão antiga/SDP-2016/Debug/../Generated_Code/AdcLdd1.c:513
     d8a:	4b16      	ldr	r3, [pc, #88]	; (de4 <AdcLdd1_GetCalibrationResultStatus+0xb4>)
     d8c:	68fa      	ldr	r2, [r7, #12]
     d8e:	62da      	str	r2, [r3, #44]	; 0x2c
/home/marcelo/Documentos/GER/SDP/Projeto/versão antiga/SDP-2016/Debug/../Generated_Code/AdcLdd1.c:514
     d90:	4b14      	ldr	r3, [pc, #80]	; (de4 <AdcLdd1_GetCalibrationResultStatus+0xb4>)
     d92:	6edb      	ldr	r3, [r3, #108]	; 0x6c
     d94:	60fb      	str	r3, [r7, #12]
/home/marcelo/Documentos/GER/SDP/Projeto/versão antiga/SDP-2016/Debug/../Generated_Code/AdcLdd1.c:515
     d96:	4b13      	ldr	r3, [pc, #76]	; (de4 <AdcLdd1_GetCalibrationResultStatus+0xb4>)
     d98:	6e9b      	ldr	r3, [r3, #104]	; 0x68
     d9a:	68fa      	ldr	r2, [r7, #12]
     d9c:	18d3      	adds	r3, r2, r3
     d9e:	60fb      	str	r3, [r7, #12]
/home/marcelo/Documentos/GER/SDP/Projeto/versão antiga/SDP-2016/Debug/../Generated_Code/AdcLdd1.c:516
     da0:	4b10      	ldr	r3, [pc, #64]	; (de4 <AdcLdd1_GetCalibrationResultStatus+0xb4>)
     da2:	6e5b      	ldr	r3, [r3, #100]	; 0x64
     da4:	68fa      	ldr	r2, [r7, #12]
     da6:	18d3      	adds	r3, r2, r3
     da8:	60fb      	str	r3, [r7, #12]
/home/marcelo/Documentos/GER/SDP/Projeto/versão antiga/SDP-2016/Debug/../Generated_Code/AdcLdd1.c:517
     daa:	4b0e      	ldr	r3, [pc, #56]	; (de4 <AdcLdd1_GetCalibrationResultStatus+0xb4>)
     dac:	6e1b      	ldr	r3, [r3, #96]	; 0x60
     dae:	68fa      	ldr	r2, [r7, #12]
     db0:	18d3      	adds	r3, r2, r3
     db2:	60fb      	str	r3, [r7, #12]
/home/marcelo/Documentos/GER/SDP/Projeto/versão antiga/SDP-2016/Debug/../Generated_Code/AdcLdd1.c:518
     db4:	4b0b      	ldr	r3, [pc, #44]	; (de4 <AdcLdd1_GetCalibrationResultStatus+0xb4>)
     db6:	6ddb      	ldr	r3, [r3, #92]	; 0x5c
     db8:	68fa      	ldr	r2, [r7, #12]
     dba:	18d3      	adds	r3, r2, r3
     dbc:	60fb      	str	r3, [r7, #12]
/home/marcelo/Documentos/GER/SDP/Projeto/versão antiga/SDP-2016/Debug/../Generated_Code/AdcLdd1.c:519
     dbe:	4b09      	ldr	r3, [pc, #36]	; (de4 <AdcLdd1_GetCalibrationResultStatus+0xb4>)
     dc0:	6d9b      	ldr	r3, [r3, #88]	; 0x58
     dc2:	68fa      	ldr	r2, [r7, #12]
     dc4:	18d3      	adds	r3, r2, r3
     dc6:	60fb      	str	r3, [r7, #12]
/home/marcelo/Documentos/GER/SDP/Projeto/versão antiga/SDP-2016/Debug/../Generated_Code/AdcLdd1.c:520
     dc8:	68fb      	ldr	r3, [r7, #12]
     dca:	085b      	lsrs	r3, r3, #1
     dcc:	2280      	movs	r2, #128	; 0x80
     dce:	0212      	lsls	r2, r2, #8
     dd0:	4313      	orrs	r3, r2
     dd2:	60fb      	str	r3, [r7, #12]
/home/marcelo/Documentos/GER/SDP/Projeto/versão antiga/SDP-2016/Debug/../Generated_Code/AdcLdd1.c:521
     dd4:	4b03      	ldr	r3, [pc, #12]	; (de4 <AdcLdd1_GetCalibrationResultStatus+0xb4>)
     dd6:	68fa      	ldr	r2, [r7, #12]
     dd8:	631a      	str	r2, [r3, #48]	; 0x30
/home/marcelo/Documentos/GER/SDP/Projeto/versão antiga/SDP-2016/Debug/../Generated_Code/AdcLdd1.c:522
     dda:	2300      	movs	r3, #0
/home/marcelo/Documentos/GER/SDP/Projeto/versão antiga/SDP-2016/Debug/../Generated_Code/AdcLdd1.c:523
     ddc:	1c18      	adds	r0, r3, #0
     dde:	46bd      	mov	sp, r7
     de0:	b004      	add	sp, #16
     de2:	bd80      	pop	{r7, pc}
     de4:	4003b000 	.word	0x4003b000

00000de8 <AdcLdd1_MeasurementCompleteInterrupt>:
AdcLdd1_MeasurementCompleteInterrupt():
/home/marcelo/Documentos/GER/SDP/Projeto/versão antiga/SDP-2016/Debug/../Generated_Code/AdcLdd1.c:535
     de8:	b580      	push	{r7, lr}
     dea:	b082      	sub	sp, #8
     dec:	af00      	add	r7, sp, #0
/home/marcelo/Documentos/GER/SDP/Projeto/versão antiga/SDP-2016/Debug/../Generated_Code/AdcLdd1.c:537
     dee:	4b08      	ldr	r3, [pc, #32]	; (e10 <AdcLdd1_MeasurementCompleteInterrupt+0x28>)
     df0:	681b      	ldr	r3, [r3, #0]
     df2:	607b      	str	r3, [r7, #4]
/home/marcelo/Documentos/GER/SDP/Projeto/versão antiga/SDP-2016/Debug/../Generated_Code/AdcLdd1.c:538
     df4:	687b      	ldr	r3, [r7, #4]
     df6:	2201      	movs	r2, #1
     df8:	709a      	strb	r2, [r3, #2]
/home/marcelo/Documentos/GER/SDP/Projeto/versão antiga/SDP-2016/Debug/../Generated_Code/AdcLdd1.c:539
     dfa:	687b      	ldr	r3, [r7, #4]
     dfc:	685b      	ldr	r3, [r3, #4]
     dfe:	1c18      	adds	r0, r3, #0
     e00:	f000 fa50 	bl	12a4 <AdcLdd1_OnMeasurementComplete>
/home/marcelo/Documentos/GER/SDP/Projeto/versão antiga/SDP-2016/Debug/../Generated_Code/AdcLdd1.c:540
     e04:	4b03      	ldr	r3, [pc, #12]	; (e14 <AdcLdd1_MeasurementCompleteInterrupt+0x2c>)
     e06:	691b      	ldr	r3, [r3, #16]
/home/marcelo/Documentos/GER/SDP/Projeto/versão antiga/SDP-2016/Debug/../Generated_Code/AdcLdd1.c:541
     e08:	46bd      	mov	sp, r7
     e0a:	b002      	add	sp, #8
     e0c:	bd80      	pop	{r7, pc}
     e0e:	46c0      	nop			; (mov r8, r8)
     e10:	1ffff08c 	.word	0x1ffff08c
     e14:	4003b000 	.word	0x4003b000

00000e18 <BitIoLdd1_Init>:
BitIoLdd1_Init():
/home/marcelo/Documentos/GER/SDP/Projeto/versão antiga/SDP-2016/Debug/../Generated_Code/BitIoLdd1.c:123
     e18:	b580      	push	{r7, lr}
     e1a:	b084      	sub	sp, #16
     e1c:	af00      	add	r7, sp, #0
     e1e:	6078      	str	r0, [r7, #4]
/home/marcelo/Documentos/GER/SDP/Projeto/versão antiga/SDP-2016/Debug/../Generated_Code/BitIoLdd1.c:128
     e20:	4b10      	ldr	r3, [pc, #64]	; (e64 <BitIoLdd1_Init+0x4c>)
     e22:	60fb      	str	r3, [r7, #12]
/home/marcelo/Documentos/GER/SDP/Projeto/versão antiga/SDP-2016/Debug/../Generated_Code/BitIoLdd1.c:129
     e24:	68fb      	ldr	r3, [r7, #12]
     e26:	687a      	ldr	r2, [r7, #4]
     e28:	601a      	str	r2, [r3, #0]
/home/marcelo/Documentos/GER/SDP/Projeto/versão antiga/SDP-2016/Debug/../Generated_Code/BitIoLdd1.c:132
     e2a:	4b0f      	ldr	r3, [pc, #60]	; (e68 <BitIoLdd1_Init+0x50>)
     e2c:	4a0e      	ldr	r2, [pc, #56]	; (e68 <BitIoLdd1_Init+0x50>)
     e2e:	6952      	ldr	r2, [r2, #20]
     e30:	2180      	movs	r1, #128	; 0x80
     e32:	430a      	orrs	r2, r1
     e34:	615a      	str	r2, [r3, #20]
/home/marcelo/Documentos/GER/SDP/Projeto/versão antiga/SDP-2016/Debug/../Generated_Code/BitIoLdd1.c:135
     e36:	4b0c      	ldr	r3, [pc, #48]	; (e68 <BitIoLdd1_Init+0x50>)
     e38:	4a0b      	ldr	r2, [pc, #44]	; (e68 <BitIoLdd1_Init+0x50>)
     e3a:	6812      	ldr	r2, [r2, #0]
     e3c:	2180      	movs	r1, #128	; 0x80
     e3e:	438a      	bics	r2, r1
     e40:	601a      	str	r2, [r3, #0]
/home/marcelo/Documentos/GER/SDP/Projeto/versão antiga/SDP-2016/Debug/../Generated_Code/BitIoLdd1.c:138
     e42:	4b0a      	ldr	r3, [pc, #40]	; (e6c <BitIoLdd1_Init+0x54>)
     e44:	4a09      	ldr	r2, [pc, #36]	; (e6c <BitIoLdd1_Init+0x54>)
     e46:	69d1      	ldr	r1, [r2, #28]
     e48:	4a09      	ldr	r2, [pc, #36]	; (e70 <BitIoLdd1_Init+0x58>)
     e4a:	400a      	ands	r2, r1
     e4c:	2180      	movs	r1, #128	; 0x80
     e4e:	0049      	lsls	r1, r1, #1
     e50:	430a      	orrs	r2, r1
     e52:	61da      	str	r2, [r3, #28]
/home/marcelo/Documentos/GER/SDP/Projeto/versão antiga/SDP-2016/Debug/../Generated_Code/BitIoLdd1.c:145
     e54:	4b07      	ldr	r3, [pc, #28]	; (e74 <BitIoLdd1_Init+0x5c>)
     e56:	68fa      	ldr	r2, [r7, #12]
     e58:	601a      	str	r2, [r3, #0]
/home/marcelo/Documentos/GER/SDP/Projeto/versão antiga/SDP-2016/Debug/../Generated_Code/BitIoLdd1.c:146
     e5a:	68fb      	ldr	r3, [r7, #12]
/home/marcelo/Documentos/GER/SDP/Projeto/versão antiga/SDP-2016/Debug/../Generated_Code/BitIoLdd1.c:147
     e5c:	1c18      	adds	r0, r3, #0
     e5e:	46bd      	mov	sp, r7
     e60:	b004      	add	sp, #16
     e62:	bd80      	pop	{r7, pc}
     e64:	1ffff090 	.word	0x1ffff090
     e68:	400ff0c0 	.word	0x400ff0c0
     e6c:	4004c000 	.word	0x4004c000
     e70:	fefff8ff 	.word	0xfefff8ff
     e74:	1ffff0a8 	.word	0x1ffff0a8

00000e78 <BitIoLdd1_GetVal>:
BitIoLdd1_GetVal():
/home/marcelo/Documentos/GER/SDP/Projeto/versão antiga/SDP-2016/Debug/../Generated_Code/BitIoLdd1.c:169
     e78:	b580      	push	{r7, lr}
     e7a:	b084      	sub	sp, #16
     e7c:	af00      	add	r7, sp, #0
     e7e:	6078      	str	r0, [r7, #4]
/home/marcelo/Documentos/GER/SDP/Projeto/versão antiga/SDP-2016/Debug/../Generated_Code/BitIoLdd1.c:173
     e80:	4b06      	ldr	r3, [pc, #24]	; (e9c <BitIoLdd1_GetVal+0x24>)
     e82:	681a      	ldr	r2, [r3, #0]
     e84:	2380      	movs	r3, #128	; 0x80
     e86:	4013      	ands	r3, r2
     e88:	60fb      	str	r3, [r7, #12]
/home/marcelo/Documentos/GER/SDP/Projeto/versão antiga/SDP-2016/Debug/../Generated_Code/BitIoLdd1.c:174
     e8a:	68fb      	ldr	r3, [r7, #12]
     e8c:	1e5a      	subs	r2, r3, #1
     e8e:	4193      	sbcs	r3, r2
     e90:	b2db      	uxtb	r3, r3
/home/marcelo/Documentos/GER/SDP/Projeto/versão antiga/SDP-2016/Debug/../Generated_Code/BitIoLdd1.c:175
     e92:	1c18      	adds	r0, r3, #0
     e94:	46bd      	mov	sp, r7
     e96:	b004      	add	sp, #16
     e98:	bd80      	pop	{r7, pc}
     e9a:	46c0      	nop			; (mov r8, r8)
     e9c:	f80ff0c0 	.word	0xf80ff0c0

00000ea0 <BitIoLdd1_ClrVal>:
BitIoLdd1_ClrVal():
/home/marcelo/Documentos/GER/SDP/Projeto/versão antiga/SDP-2016/Debug/../Generated_Code/BitIoLdd1.c:226
     ea0:	b580      	push	{r7, lr}
     ea2:	b082      	sub	sp, #8
     ea4:	af00      	add	r7, sp, #0
     ea6:	6078      	str	r0, [r7, #4]
/home/marcelo/Documentos/GER/SDP/Projeto/versão antiga/SDP-2016/Debug/../Generated_Code/BitIoLdd1.c:228
     ea8:	4b02      	ldr	r3, [pc, #8]	; (eb4 <BitIoLdd1_ClrVal+0x14>)
     eaa:	2280      	movs	r2, #128	; 0x80
     eac:	609a      	str	r2, [r3, #8]
/home/marcelo/Documentos/GER/SDP/Projeto/versão antiga/SDP-2016/Debug/../Generated_Code/BitIoLdd1.c:229
     eae:	46bd      	mov	sp, r7
     eb0:	b002      	add	sp, #8
     eb2:	bd80      	pop	{r7, pc}
     eb4:	f80ff0c0 	.word	0xf80ff0c0

00000eb8 <BitIoLdd1_SetVal>:
BitIoLdd1_SetVal():
/home/marcelo/Documentos/GER/SDP/Projeto/versão antiga/SDP-2016/Debug/../Generated_Code/BitIoLdd1.c:246
     eb8:	b580      	push	{r7, lr}
     eba:	b082      	sub	sp, #8
     ebc:	af00      	add	r7, sp, #0
     ebe:	6078      	str	r0, [r7, #4]
/home/marcelo/Documentos/GER/SDP/Projeto/versão antiga/SDP-2016/Debug/../Generated_Code/BitIoLdd1.c:248
     ec0:	4b02      	ldr	r3, [pc, #8]	; (ecc <BitIoLdd1_SetVal+0x14>)
     ec2:	2280      	movs	r2, #128	; 0x80
     ec4:	605a      	str	r2, [r3, #4]
/home/marcelo/Documentos/GER/SDP/Projeto/versão antiga/SDP-2016/Debug/../Generated_Code/BitIoLdd1.c:249
     ec6:	46bd      	mov	sp, r7
     ec8:	b002      	add	sp, #8
     eca:	bd80      	pop	{r7, pc}
     ecc:	f80ff0c0 	.word	0xf80ff0c0

00000ed0 <BitIoLdd2_Init>:
BitIoLdd2_Init():
/home/marcelo/Documentos/GER/SDP/Projeto/versão antiga/SDP-2016/Debug/../Generated_Code/BitIoLdd2.c:123
     ed0:	b580      	push	{r7, lr}
     ed2:	b084      	sub	sp, #16
     ed4:	af00      	add	r7, sp, #0
     ed6:	6078      	str	r0, [r7, #4]
/home/marcelo/Documentos/GER/SDP/Projeto/versão antiga/SDP-2016/Debug/../Generated_Code/BitIoLdd2.c:128
     ed8:	4b10      	ldr	r3, [pc, #64]	; (f1c <BitIoLdd2_Init+0x4c>)
     eda:	60fb      	str	r3, [r7, #12]
/home/marcelo/Documentos/GER/SDP/Projeto/versão antiga/SDP-2016/Debug/../Generated_Code/BitIoLdd2.c:129
     edc:	68fb      	ldr	r3, [r7, #12]
     ede:	687a      	ldr	r2, [r7, #4]
     ee0:	601a      	str	r2, [r3, #0]
/home/marcelo/Documentos/GER/SDP/Projeto/versão antiga/SDP-2016/Debug/../Generated_Code/BitIoLdd2.c:132
     ee2:	4b0f      	ldr	r3, [pc, #60]	; (f20 <BitIoLdd2_Init+0x50>)
     ee4:	4a0e      	ldr	r2, [pc, #56]	; (f20 <BitIoLdd2_Init+0x50>)
     ee6:	6952      	ldr	r2, [r2, #20]
     ee8:	2102      	movs	r1, #2
     eea:	430a      	orrs	r2, r1
     eec:	615a      	str	r2, [r3, #20]
/home/marcelo/Documentos/GER/SDP/Projeto/versão antiga/SDP-2016/Debug/../Generated_Code/BitIoLdd2.c:135
     eee:	4b0c      	ldr	r3, [pc, #48]	; (f20 <BitIoLdd2_Init+0x50>)
     ef0:	4a0b      	ldr	r2, [pc, #44]	; (f20 <BitIoLdd2_Init+0x50>)
     ef2:	6812      	ldr	r2, [r2, #0]
     ef4:	2102      	movs	r1, #2
     ef6:	438a      	bics	r2, r1
     ef8:	601a      	str	r2, [r3, #0]
/home/marcelo/Documentos/GER/SDP/Projeto/versão antiga/SDP-2016/Debug/../Generated_Code/BitIoLdd2.c:138
     efa:	4b0a      	ldr	r3, [pc, #40]	; (f24 <BitIoLdd2_Init+0x54>)
     efc:	4a09      	ldr	r2, [pc, #36]	; (f24 <BitIoLdd2_Init+0x54>)
     efe:	6851      	ldr	r1, [r2, #4]
     f00:	4a09      	ldr	r2, [pc, #36]	; (f28 <BitIoLdd2_Init+0x58>)
     f02:	400a      	ands	r2, r1
     f04:	2180      	movs	r1, #128	; 0x80
     f06:	0049      	lsls	r1, r1, #1
     f08:	430a      	orrs	r2, r1
     f0a:	605a      	str	r2, [r3, #4]
/home/marcelo/Documentos/GER/SDP/Projeto/versão antiga/SDP-2016/Debug/../Generated_Code/BitIoLdd2.c:145
     f0c:	4b07      	ldr	r3, [pc, #28]	; (f2c <BitIoLdd2_Init+0x5c>)
     f0e:	68fa      	ldr	r2, [r7, #12]
     f10:	605a      	str	r2, [r3, #4]
/home/marcelo/Documentos/GER/SDP/Projeto/versão antiga/SDP-2016/Debug/../Generated_Code/BitIoLdd2.c:146
     f12:	68fb      	ldr	r3, [r7, #12]
/home/marcelo/Documentos/GER/SDP/Projeto/versão antiga/SDP-2016/Debug/../Generated_Code/BitIoLdd2.c:147
     f14:	1c18      	adds	r0, r3, #0
     f16:	46bd      	mov	sp, r7
     f18:	b004      	add	sp, #16
     f1a:	bd80      	pop	{r7, pc}
     f1c:	1ffff094 	.word	0x1ffff094
     f20:	400ff100 	.word	0x400ff100
     f24:	4004d000 	.word	0x4004d000
     f28:	fefff8ff 	.word	0xfefff8ff
     f2c:	1ffff0a8 	.word	0x1ffff0a8

00000f30 <BitIoLdd2_ClrVal>:
BitIoLdd2_ClrVal():
/home/marcelo/Documentos/GER/SDP/Projeto/versão antiga/SDP-2016/Debug/../Generated_Code/BitIoLdd2.c:226
     f30:	b580      	push	{r7, lr}
     f32:	b082      	sub	sp, #8
     f34:	af00      	add	r7, sp, #0
     f36:	6078      	str	r0, [r7, #4]
/home/marcelo/Documentos/GER/SDP/Projeto/versão antiga/SDP-2016/Debug/../Generated_Code/BitIoLdd2.c:228
     f38:	4b02      	ldr	r3, [pc, #8]	; (f44 <BitIoLdd2_ClrVal+0x14>)
     f3a:	2202      	movs	r2, #2
     f3c:	609a      	str	r2, [r3, #8]
/home/marcelo/Documentos/GER/SDP/Projeto/versão antiga/SDP-2016/Debug/../Generated_Code/BitIoLdd2.c:229
     f3e:	46bd      	mov	sp, r7
     f40:	b002      	add	sp, #8
     f42:	bd80      	pop	{r7, pc}
     f44:	f80ff100 	.word	0xf80ff100

00000f48 <BitIoLdd2_SetVal>:
BitIoLdd2_SetVal():
/home/marcelo/Documentos/GER/SDP/Projeto/versão antiga/SDP-2016/Debug/../Generated_Code/BitIoLdd2.c:246
     f48:	b580      	push	{r7, lr}
     f4a:	b082      	sub	sp, #8
     f4c:	af00      	add	r7, sp, #0
     f4e:	6078      	str	r0, [r7, #4]
/home/marcelo/Documentos/GER/SDP/Projeto/versão antiga/SDP-2016/Debug/../Generated_Code/BitIoLdd2.c:248
     f50:	4b02      	ldr	r3, [pc, #8]	; (f5c <BitIoLdd2_SetVal+0x14>)
     f52:	2202      	movs	r2, #2
     f54:	605a      	str	r2, [r3, #4]
/home/marcelo/Documentos/GER/SDP/Projeto/versão antiga/SDP-2016/Debug/../Generated_Code/BitIoLdd2.c:249
     f56:	46bd      	mov	sp, r7
     f58:	b002      	add	sp, #8
     f5a:	bd80      	pop	{r7, pc}
     f5c:	f80ff100 	.word	0xf80ff100

00000f60 <BitIoLdd3_Init>:
BitIoLdd3_Init():
/home/marcelo/Documentos/GER/SDP/Projeto/versão antiga/SDP-2016/Debug/../Generated_Code/BitIoLdd3.c:123
     f60:	b580      	push	{r7, lr}
     f62:	b084      	sub	sp, #16
     f64:	af00      	add	r7, sp, #0
     f66:	6078      	str	r0, [r7, #4]
/home/marcelo/Documentos/GER/SDP/Projeto/versão antiga/SDP-2016/Debug/../Generated_Code/BitIoLdd3.c:128
     f68:	4b10      	ldr	r3, [pc, #64]	; (fac <BitIoLdd3_Init+0x4c>)
     f6a:	60fb      	str	r3, [r7, #12]
/home/marcelo/Documentos/GER/SDP/Projeto/versão antiga/SDP-2016/Debug/../Generated_Code/BitIoLdd3.c:129
     f6c:	68fb      	ldr	r3, [r7, #12]
     f6e:	687a      	ldr	r2, [r7, #4]
     f70:	601a      	str	r2, [r3, #0]
/home/marcelo/Documentos/GER/SDP/Projeto/versão antiga/SDP-2016/Debug/../Generated_Code/BitIoLdd3.c:132
     f72:	4b0f      	ldr	r3, [pc, #60]	; (fb0 <BitIoLdd3_Init+0x50>)
     f74:	4a0e      	ldr	r2, [pc, #56]	; (fb0 <BitIoLdd3_Init+0x50>)
     f76:	6952      	ldr	r2, [r2, #20]
     f78:	2101      	movs	r1, #1
     f7a:	430a      	orrs	r2, r1
     f7c:	615a      	str	r2, [r3, #20]
/home/marcelo/Documentos/GER/SDP/Projeto/versão antiga/SDP-2016/Debug/../Generated_Code/BitIoLdd3.c:135
     f7e:	4b0c      	ldr	r3, [pc, #48]	; (fb0 <BitIoLdd3_Init+0x50>)
     f80:	4a0b      	ldr	r2, [pc, #44]	; (fb0 <BitIoLdd3_Init+0x50>)
     f82:	6812      	ldr	r2, [r2, #0]
     f84:	2101      	movs	r1, #1
     f86:	430a      	orrs	r2, r1
     f88:	601a      	str	r2, [r3, #0]
/home/marcelo/Documentos/GER/SDP/Projeto/versão antiga/SDP-2016/Debug/../Generated_Code/BitIoLdd3.c:138
     f8a:	4b0a      	ldr	r3, [pc, #40]	; (fb4 <BitIoLdd3_Init+0x54>)
     f8c:	4a09      	ldr	r2, [pc, #36]	; (fb4 <BitIoLdd3_Init+0x54>)
     f8e:	6811      	ldr	r1, [r2, #0]
     f90:	4a09      	ldr	r2, [pc, #36]	; (fb8 <BitIoLdd3_Init+0x58>)
     f92:	400a      	ands	r2, r1
     f94:	2180      	movs	r1, #128	; 0x80
     f96:	0049      	lsls	r1, r1, #1
     f98:	430a      	orrs	r2, r1
     f9a:	601a      	str	r2, [r3, #0]
/home/marcelo/Documentos/GER/SDP/Projeto/versão antiga/SDP-2016/Debug/../Generated_Code/BitIoLdd3.c:145
     f9c:	4b07      	ldr	r3, [pc, #28]	; (fbc <BitIoLdd3_Init+0x5c>)
     f9e:	68fa      	ldr	r2, [r7, #12]
     fa0:	611a      	str	r2, [r3, #16]
/home/marcelo/Documentos/GER/SDP/Projeto/versão antiga/SDP-2016/Debug/../Generated_Code/BitIoLdd3.c:146
     fa2:	68fb      	ldr	r3, [r7, #12]
/home/marcelo/Documentos/GER/SDP/Projeto/versão antiga/SDP-2016/Debug/../Generated_Code/BitIoLdd3.c:147
     fa4:	1c18      	adds	r0, r3, #0
     fa6:	46bd      	mov	sp, r7
     fa8:	b004      	add	sp, #16
     faa:	bd80      	pop	{r7, pc}
     fac:	1ffff098 	.word	0x1ffff098
     fb0:	400ff040 	.word	0x400ff040
     fb4:	4004a000 	.word	0x4004a000
     fb8:	fefff8ff 	.word	0xfefff8ff
     fbc:	1ffff0a8 	.word	0x1ffff0a8

00000fc0 <TimerIntLdd1_OnInterrupt>:
TimerIntLdd1_OnInterrupt():
/home/marcelo/Documentos/GER/SDP/SDP-2016/KDS/SDP-2016/Debug/../Generated_Code/ClockInterruption.c:186
**     Description :
**         This method is internal. It is used by Processor Expert only.
** ===================================================================
*/
void TimerIntLdd1_OnInterrupt(LDD_TUserData *UserDataPtr)
{
     fc0:	b580      	push	{r7, lr}
     fc2:	b082      	sub	sp, #8
     fc4:	af00      	add	r7, sp, #0
     fc6:	6078      	str	r0, [r7, #4]
/home/marcelo/Documentos/GER/SDP/SDP-2016/KDS/SDP-2016/Debug/../Generated_Code/ClockInterruption.c:188
  (void)UserDataPtr;                   /* Parameter is not used, suppress unused argument warning */
  ClockInterruption_OnInterrupt();     /* Invoke OnInterrupt event */
     fc8:	f7ff fb92 	bl	6f0 <ClockInterruption_OnInterrupt>
/home/marcelo/Documentos/GER/SDP/SDP-2016/KDS/SDP-2016/Debug/../Generated_Code/ClockInterruption.c:189
}
     fcc:	46bd      	mov	sp, r7
     fce:	b002      	add	sp, #8
     fd0:	bd80      	pop	{r7, pc}
     fd2:	46c0      	nop			; (mov r8, r8)

00000fd4 <Cpu_INT_NMIInterrupt>:
Cpu_INT_NMIInterrupt():
/home/marcelo/Documentos/GER/SDP/SDP-2016/KDS/SDP-2016/Debug/../Generated_Code/Cpu.c:284
**         This ISR services the Non Maskable Interrupt interrupt.
**         This method is internal. It is used by Processor Expert only.
** ===================================================================
*/
PE_ISR(Cpu_INT_NMIInterrupt)
{
     fd4:	b580      	push	{r7, lr}
     fd6:	af00      	add	r7, sp, #0
/home/marcelo/Documentos/GER/SDP/SDP-2016/KDS/SDP-2016/Debug/../Generated_Code/Cpu.c:285
  Cpu_OnNMIINT();
     fd8:	f7ff fb86 	bl	6e8 <Cpu_OnNMIINT>
/home/marcelo/Documentos/GER/SDP/SDP-2016/KDS/SDP-2016/Debug/../Generated_Code/Cpu.c:286
}
     fdc:	46bd      	mov	sp, r7
     fde:	bd80      	pop	{r7, pc}

00000fe0 <Cpu_Interrupt>:
Cpu_Interrupt():
/home/marcelo/Documentos/GER/SDP/SDP-2016/KDS/SDP-2016/Debug/../Generated_Code/Cpu.c:298
**         This ISR services an unused interrupt/exception vector.
**         This method is internal. It is used by Processor Expert only.
** ===================================================================
*/
PE_ISR(Cpu_Interrupt)
{
     fe0:	b580      	push	{r7, lr}
     fe2:	af00      	add	r7, sp, #0
/home/marcelo/Documentos/GER/SDP/SDP-2016/KDS/SDP-2016/Debug/../Generated_Code/Cpu.c:300
  /* This code can be changed using the CPU component property "Build Options / Unhandled int code" */
  PE_DEBUGHALT();
     fe4:	beff      	bkpt	0x00ff
/home/marcelo/Documentos/GER/SDP/SDP-2016/KDS/SDP-2016/Debug/../Generated_Code/Cpu.c:301
}
     fe6:	46bd      	mov	sp, r7
     fe8:	bd80      	pop	{r7, pc}
     fea:	46c0      	nop			; (mov r8, r8)

00000fec <__init_hardware>:
__init_hardware():
/home/marcelo/Documentos/GER/SDP/SDP-2016/KDS/SDP-2016/Debug/../Generated_Code/Cpu.c:309
/*** !!! Here you can place your own code using property "User data declarations" on the build options tab. !!! ***/

/*lint -esym(765,__init_hardware) Disable MISRA rule (8.10) checking for symbols (__init_hardware). The function is linked to the EWL library */
/*lint -esym(765,Cpu_Interrupt) Disable MISRA rule (8.10) checking for symbols (Cpu_Interrupt). */
void __init_hardware(void)
{
     fec:	b580      	push	{r7, lr}
     fee:	af00      	add	r7, sp, #0
/home/marcelo/Documentos/GER/SDP/SDP-2016/KDS/SDP-2016/Debug/../Generated_Code/Cpu.c:315

  /*** !!! Here you can place your own code before PE initialization using property "User code before PE initialization" on the build options tab. !!! ***/

  /*** ### MKL25Z128VLK4 "Cpu" init code ... ***/
  /*** PE initialization code after reset ***/
  SCB_VTOR = (uint32_t)(&__vect_table); /* Set the interrupt vector table position */
     ff0:	4a36      	ldr	r2, [pc, #216]	; (10cc <__init_hardware+0xe0>)
     ff2:	4937      	ldr	r1, [pc, #220]	; (10d0 <__init_hardware+0xe4>)
     ff4:	4b37      	ldr	r3, [pc, #220]	; (10d4 <__init_hardware+0xe8>)
     ff6:	50d1      	str	r1, [r2, r3]
/home/marcelo/Documentos/GER/SDP/SDP-2016/KDS/SDP-2016/Debug/../Generated_Code/Cpu.c:318
  /* Disable the WDOG module */
  /* SIM_COPC: ??=0,??=0,??=0,??=0,??=0,??=0,??=0,??=0,??=0,??=0,??=0,??=0,??=0,??=0,??=0,??=0,??=0,??=0,??=0,??=0,??=0,??=0,??=0,??=0,??=0,??=0,??=0,??=0,COPT=0,COPCLKS=0,COPW=0 */
  SIM_COPC = SIM_COPC_COPT(0x00);
     ff8:	4a37      	ldr	r2, [pc, #220]	; (10d8 <__init_hardware+0xec>)
     ffa:	2388      	movs	r3, #136	; 0x88
     ffc:	015b      	lsls	r3, r3, #5
     ffe:	2100      	movs	r1, #0
    1000:	50d1      	str	r1, [r2, r3]
/home/marcelo/Documentos/GER/SDP/SDP-2016/KDS/SDP-2016/Debug/../Generated_Code/Cpu.c:322

  /* System clock initialization */
  /* SIM_CLKDIV1: OUTDIV1=0,??=0,??=0,??=0,??=0,??=0,??=0,??=0,??=0,??=0,OUTDIV4=3,??=0,??=0,??=0,??=0,??=0,??=0,??=0,??=0,??=0,??=0,??=0,??=0,??=0,??=0,??=0,??=0 */
  SIM_CLKDIV1 = (SIM_CLKDIV1_OUTDIV1(0x00) | SIM_CLKDIV1_OUTDIV4(0x03)); /* Set the system prescalers to safe value */
    1002:	4a35      	ldr	r2, [pc, #212]	; (10d8 <__init_hardware+0xec>)
    1004:	4b35      	ldr	r3, [pc, #212]	; (10dc <__init_hardware+0xf0>)
    1006:	21c0      	movs	r1, #192	; 0xc0
    1008:	0289      	lsls	r1, r1, #10
    100a:	50d1      	str	r1, [r2, r3]
/home/marcelo/Documentos/GER/SDP/SDP-2016/KDS/SDP-2016/Debug/../Generated_Code/Cpu.c:324
  /* SIM_SCGC5: PORTE=1,PORTD=1,PORTB=1,PORTA=1 */
  SIM_SCGC5 |= SIM_SCGC5_PORTE_MASK |
    100c:	4a32      	ldr	r2, [pc, #200]	; (10d8 <__init_hardware+0xec>)
    100e:	4932      	ldr	r1, [pc, #200]	; (10d8 <__init_hardware+0xec>)
    1010:	4b33      	ldr	r3, [pc, #204]	; (10e0 <__init_hardware+0xf4>)
    1012:	58cb      	ldr	r3, [r1, r3]
    1014:	21d8      	movs	r1, #216	; 0xd8
    1016:	0189      	lsls	r1, r1, #6
    1018:	4319      	orrs	r1, r3
    101a:	4b31      	ldr	r3, [pc, #196]	; (10e0 <__init_hardware+0xf4>)
    101c:	50d1      	str	r1, [r2, r3]
/home/marcelo/Documentos/GER/SDP/SDP-2016/KDS/SDP-2016/Debug/../Generated_Code/Cpu.c:328
               SIM_SCGC5_PORTD_MASK |
               SIM_SCGC5_PORTB_MASK |
               SIM_SCGC5_PORTA_MASK;   /* Enable clock gate for ports to enable pin routing */
  if ((PMC_REGSC & PMC_REGSC_ACKISO_MASK) != 0x0U) {
    101e:	4b31      	ldr	r3, [pc, #196]	; (10e4 <__init_hardware+0xf8>)
    1020:	789b      	ldrb	r3, [r3, #2]
    1022:	b2db      	uxtb	r3, r3
    1024:	1c1a      	adds	r2, r3, #0
    1026:	2308      	movs	r3, #8
    1028:	4013      	ands	r3, r2
    102a:	d007      	beq.n	103c <__init_hardware+0x50>
/home/marcelo/Documentos/GER/SDP/SDP-2016/KDS/SDP-2016/Debug/../Generated_Code/Cpu.c:330
    /* PMC_REGSC: ACKISO=1 */
    PMC_REGSC |= PMC_REGSC_ACKISO_MASK; /* Release IO pads after wakeup from VLLS mode. */
    102c:	4b2d      	ldr	r3, [pc, #180]	; (10e4 <__init_hardware+0xf8>)
    102e:	4a2d      	ldr	r2, [pc, #180]	; (10e4 <__init_hardware+0xf8>)
    1030:	7892      	ldrb	r2, [r2, #2]
    1032:	b2d2      	uxtb	r2, r2
    1034:	2108      	movs	r1, #8
    1036:	430a      	orrs	r2, r1
    1038:	b2d2      	uxtb	r2, r2
    103a:	709a      	strb	r2, [r3, #2]
/home/marcelo/Documentos/GER/SDP/SDP-2016/KDS/SDP-2016/Debug/../Generated_Code/Cpu.c:333
  }
  /* SIM_CLKDIV1: OUTDIV1=0,??=0,??=0,??=0,??=0,??=0,??=0,??=0,??=0,??=0,OUTDIV4=0,??=0,??=0,??=0,??=0,??=0,??=0,??=0,??=0,??=0,??=0,??=0,??=0,??=0,??=0,??=0,??=0 */
  SIM_CLKDIV1 = (SIM_CLKDIV1_OUTDIV1(0x00) | SIM_CLKDIV1_OUTDIV4(0x00)); /* Update system prescalers */
    103c:	4a26      	ldr	r2, [pc, #152]	; (10d8 <__init_hardware+0xec>)
    103e:	4b27      	ldr	r3, [pc, #156]	; (10dc <__init_hardware+0xf0>)
    1040:	2100      	movs	r1, #0
    1042:	50d1      	str	r1, [r2, r3]
/home/marcelo/Documentos/GER/SDP/SDP-2016/KDS/SDP-2016/Debug/../Generated_Code/Cpu.c:335
  /* SIM_SOPT2: ??=0,PLLFLLSEL=0 */
  SIM_SOPT2 &= (uint32_t)~(uint32_t)((SIM_SOPT2_PLLFLLSEL_MASK | 0x00020000U)); /* Select FLL as a clock source for various peripherals */
    1044:	4a24      	ldr	r2, [pc, #144]	; (10d8 <__init_hardware+0xec>)
    1046:	4924      	ldr	r1, [pc, #144]	; (10d8 <__init_hardware+0xec>)
    1048:	4b27      	ldr	r3, [pc, #156]	; (10e8 <__init_hardware+0xfc>)
    104a:	58c9      	ldr	r1, [r1, r3]
    104c:	4b27      	ldr	r3, [pc, #156]	; (10ec <__init_hardware+0x100>)
    104e:	4019      	ands	r1, r3
    1050:	4b25      	ldr	r3, [pc, #148]	; (10e8 <__init_hardware+0xfc>)
    1052:	50d1      	str	r1, [r2, r3]
/home/marcelo/Documentos/GER/SDP/SDP-2016/KDS/SDP-2016/Debug/../Generated_Code/Cpu.c:337
  /* SIM_SOPT1: OSC32KSEL=3 */
  SIM_SOPT1 |= SIM_SOPT1_OSC32KSEL(0x03); /* LPO 1kHz oscillator drives 32 kHz clock for various peripherals */
    1054:	4b20      	ldr	r3, [pc, #128]	; (10d8 <__init_hardware+0xec>)
    1056:	4a20      	ldr	r2, [pc, #128]	; (10d8 <__init_hardware+0xec>)
    1058:	6812      	ldr	r2, [r2, #0]
    105a:	21c0      	movs	r1, #192	; 0xc0
    105c:	0309      	lsls	r1, r1, #12
    105e:	430a      	orrs	r2, r1
    1060:	601a      	str	r2, [r3, #0]
/home/marcelo/Documentos/GER/SDP/SDP-2016/KDS/SDP-2016/Debug/../Generated_Code/Cpu.c:339
  /* SIM_SOPT2: TPMSRC=1 */
  SIM_SOPT2 = (uint32_t)((SIM_SOPT2 & (uint32_t)~(uint32_t)(
    1062:	4a1d      	ldr	r2, [pc, #116]	; (10d8 <__init_hardware+0xec>)
    1064:	491c      	ldr	r1, [pc, #112]	; (10d8 <__init_hardware+0xec>)
    1066:	4b20      	ldr	r3, [pc, #128]	; (10e8 <__init_hardware+0xfc>)
    1068:	58c9      	ldr	r1, [r1, r3]
    106a:	4b21      	ldr	r3, [pc, #132]	; (10f0 <__init_hardware+0x104>)
    106c:	400b      	ands	r3, r1
    106e:	2180      	movs	r1, #128	; 0x80
    1070:	0449      	lsls	r1, r1, #17
    1072:	4319      	orrs	r1, r3
    1074:	4b1c      	ldr	r3, [pc, #112]	; (10e8 <__init_hardware+0xfc>)
    1076:	50d1      	str	r1, [r2, r3]
/home/marcelo/Documentos/GER/SDP/SDP-2016/KDS/SDP-2016/Debug/../Generated_Code/Cpu.c:346
              )) | (uint32_t)(
               SIM_SOPT2_TPMSRC(0x01)
              ));                      /* Set the TPM clock */
  /* Switch to FEI Mode */
  /* MCG_C1: CLKS=0,FRDIV=0,IREFS=1,IRCLKEN=1,IREFSTEN=0 */
  MCG_C1 = MCG_C1_CLKS(0x00) |
    1078:	4b1e      	ldr	r3, [pc, #120]	; (10f4 <__init_hardware+0x108>)
    107a:	2206      	movs	r2, #6
    107c:	701a      	strb	r2, [r3, #0]
/home/marcelo/Documentos/GER/SDP/SDP-2016/KDS/SDP-2016/Debug/../Generated_Code/Cpu.c:351
           MCG_C1_FRDIV(0x00) |
           MCG_C1_IREFS_MASK |
           MCG_C1_IRCLKEN_MASK;
  /* MCG_C2: LOCRE0=0,??=0,RANGE0=0,HGO0=0,EREFS0=0,LP=0,IRCS=0 */
  MCG_C2 = MCG_C2_RANGE0(0x00);
    107e:	4b1d      	ldr	r3, [pc, #116]	; (10f4 <__init_hardware+0x108>)
    1080:	2200      	movs	r2, #0
    1082:	705a      	strb	r2, [r3, #1]
/home/marcelo/Documentos/GER/SDP/SDP-2016/KDS/SDP-2016/Debug/../Generated_Code/Cpu.c:353
  /* MCG_C4: DMX32=0,DRST_DRS=0 */
  MCG_C4 &= (uint8_t)~(uint8_t)((MCG_C4_DMX32_MASK | MCG_C4_DRST_DRS(0x03)));
    1084:	4b1b      	ldr	r3, [pc, #108]	; (10f4 <__init_hardware+0x108>)
    1086:	4a1b      	ldr	r2, [pc, #108]	; (10f4 <__init_hardware+0x108>)
    1088:	78d2      	ldrb	r2, [r2, #3]
    108a:	b2d1      	uxtb	r1, r2
    108c:	221f      	movs	r2, #31
    108e:	400a      	ands	r2, r1
    1090:	b2d2      	uxtb	r2, r2
    1092:	70da      	strb	r2, [r3, #3]
/home/marcelo/Documentos/GER/SDP/SDP-2016/KDS/SDP-2016/Debug/../Generated_Code/Cpu.c:355
  /* OSC0_CR: ERCLKEN=1,??=0,EREFSTEN=0,??=0,SC2P=0,SC4P=0,SC8P=0,SC16P=0 */
  OSC0_CR = OSC_CR_ERCLKEN_MASK;
    1094:	4b18      	ldr	r3, [pc, #96]	; (10f8 <__init_hardware+0x10c>)
    1096:	2280      	movs	r2, #128	; 0x80
    1098:	701a      	strb	r2, [r3, #0]
/home/marcelo/Documentos/GER/SDP/SDP-2016/KDS/SDP-2016/Debug/../Generated_Code/Cpu.c:357
  /* MCG_C5: ??=0,PLLCLKEN0=0,PLLSTEN0=0,PRDIV0=0 */
  MCG_C5 = MCG_C5_PRDIV0(0x00);
    109a:	4b16      	ldr	r3, [pc, #88]	; (10f4 <__init_hardware+0x108>)
    109c:	2200      	movs	r2, #0
    109e:	711a      	strb	r2, [r3, #4]
/home/marcelo/Documentos/GER/SDP/SDP-2016/KDS/SDP-2016/Debug/../Generated_Code/Cpu.c:359
  /* MCG_C6: LOLIE0=0,PLLS=0,CME0=0,VDIV0=0 */
  MCG_C6 = MCG_C6_VDIV0(0x00);
    10a0:	4b14      	ldr	r3, [pc, #80]	; (10f4 <__init_hardware+0x108>)
    10a2:	2200      	movs	r2, #0
    10a4:	715a      	strb	r2, [r3, #5]
/home/marcelo/Documentos/GER/SDP/SDP-2016/KDS/SDP-2016/Debug/../Generated_Code/Cpu.c:360
  while((MCG_S & MCG_S_IREFST_MASK) == 0x00U) { /* Check that the source of the FLL reference clock is the internal reference clock. */
    10a6:	46c0      	nop			; (mov r8, r8)
/home/marcelo/Documentos/GER/SDP/SDP-2016/KDS/SDP-2016/Debug/../Generated_Code/Cpu.c:360 (discriminator 1)
    10a8:	4b12      	ldr	r3, [pc, #72]	; (10f4 <__init_hardware+0x108>)
    10aa:	799b      	ldrb	r3, [r3, #6]
    10ac:	b2db      	uxtb	r3, r3
    10ae:	1c1a      	adds	r2, r3, #0
    10b0:	2310      	movs	r3, #16
    10b2:	4013      	ands	r3, r2
    10b4:	d0f8      	beq.n	10a8 <__init_hardware+0xbc>
/home/marcelo/Documentos/GER/SDP/SDP-2016/KDS/SDP-2016/Debug/../Generated_Code/Cpu.c:362
  }
  while((MCG_S & 0x0CU) != 0x00U) {    /* Wait until output of the FLL is selected */
    10b6:	46c0      	nop			; (mov r8, r8)
/home/marcelo/Documentos/GER/SDP/SDP-2016/KDS/SDP-2016/Debug/../Generated_Code/Cpu.c:362 (discriminator 1)
    10b8:	4b0e      	ldr	r3, [pc, #56]	; (10f4 <__init_hardware+0x108>)
    10ba:	799b      	ldrb	r3, [r3, #6]
    10bc:	b2db      	uxtb	r3, r3
    10be:	1c1a      	adds	r2, r3, #0
    10c0:	230c      	movs	r3, #12
    10c2:	4013      	ands	r3, r2
    10c4:	d1f8      	bne.n	10b8 <__init_hardware+0xcc>
/home/marcelo/Documentos/GER/SDP/SDP-2016/KDS/SDP-2016/Debug/../Generated_Code/Cpu.c:368
  }
  /*** End of PE initialization code after reset ***/

  /*** !!! Here you can place your own code after PE initialization using property "User code after PE initialization" on the build options tab. !!! ***/

}
    10c6:	46bd      	mov	sp, r7
    10c8:	bd80      	pop	{r7, pc}
    10ca:	46c0      	nop			; (mov r8, r8)
    10cc:	e000e000 	.word	0xe000e000
    10d0:	00000000 	.word	0x00000000
    10d4:	00000d08 	.word	0x00000d08
    10d8:	40047000 	.word	0x40047000
    10dc:	00001044 	.word	0x00001044
    10e0:	00001038 	.word	0x00001038
    10e4:	4007d000 	.word	0x4007d000
    10e8:	00001004 	.word	0x00001004
    10ec:	fffcffff 	.word	0xfffcffff
    10f0:	fcffffff 	.word	0xfcffffff
    10f4:	40064000 	.word	0x40064000
    10f8:	40065000 	.word	0x40065000

000010fc <PE_low_level_init>:
PE_low_level_init():
/home/marcelo/Documentos/GER/SDP/SDP-2016/KDS/SDP-2016/Debug/../Generated_Code/Cpu.c:384
**         application initialization code.
**         This method is internal. It is used by Processor Expert only.
** ===================================================================
*/
void PE_low_level_init(void)
{
    10fc:	b580      	push	{r7, lr}
    10fe:	af00      	add	r7, sp, #0
/home/marcelo/Documentos/GER/SDP/SDP-2016/KDS/SDP-2016/Debug/../Generated_Code/Cpu.c:390
  #ifdef PEX_RTOS_INIT
    PEX_RTOS_INIT();                   /* Initialization of the selected RTOS. Macro is defined by the RTOS component. */
  #endif
      /* Initialization of the SIM module */
  /* PORTA_PCR4: ISF=0,MUX=7 */
  PORTA_PCR4 = (uint32_t)((PORTA_PCR4 & (uint32_t)~(uint32_t)(
    1100:	4b30      	ldr	r3, [pc, #192]	; (11c4 <PE_low_level_init+0xc8>)
    1102:	4a30      	ldr	r2, [pc, #192]	; (11c4 <PE_low_level_init+0xc8>)
    1104:	6911      	ldr	r1, [r2, #16]
    1106:	4a30      	ldr	r2, [pc, #192]	; (11c8 <PE_low_level_init+0xcc>)
    1108:	400a      	ands	r2, r1
    110a:	21e0      	movs	r1, #224	; 0xe0
    110c:	00c9      	lsls	r1, r1, #3
    110e:	430a      	orrs	r2, r1
    1110:	611a      	str	r2, [r3, #16]
/home/marcelo/Documentos/GER/SDP/SDP-2016/KDS/SDP-2016/Debug/../Generated_Code/Cpu.c:397
               )) | (uint32_t)(
                PORT_PCR_MUX(0x07)
               ));
        /* Initialization of the RCM module */
  /* RCM_RPFW: RSTFLTSEL=0 */
  RCM_RPFW &= (uint8_t)~(uint8_t)(RCM_RPFW_RSTFLTSEL(0x1F));
    1112:	4b2e      	ldr	r3, [pc, #184]	; (11cc <PE_low_level_init+0xd0>)
    1114:	4a2d      	ldr	r2, [pc, #180]	; (11cc <PE_low_level_init+0xd0>)
    1116:	7952      	ldrb	r2, [r2, #5]
    1118:	b2d2      	uxtb	r2, r2
    111a:	211f      	movs	r1, #31
    111c:	438a      	bics	r2, r1
    111e:	b2d2      	uxtb	r2, r2
    1120:	715a      	strb	r2, [r3, #5]
/home/marcelo/Documentos/GER/SDP/SDP-2016/KDS/SDP-2016/Debug/../Generated_Code/Cpu.c:399
  /* RCM_RPFC: RSTFLTSS=0,RSTFLTSRW=0 */
  RCM_RPFC &= (uint8_t)~(uint8_t)(
    1122:	4b2a      	ldr	r3, [pc, #168]	; (11cc <PE_low_level_init+0xd0>)
    1124:	4a29      	ldr	r2, [pc, #164]	; (11cc <PE_low_level_init+0xd0>)
    1126:	7912      	ldrb	r2, [r2, #4]
    1128:	b2d2      	uxtb	r2, r2
    112a:	2107      	movs	r1, #7
    112c:	438a      	bics	r2, r1
    112e:	b2d2      	uxtb	r2, r2
    1130:	711a      	strb	r2, [r3, #4]
/home/marcelo/Documentos/GER/SDP/SDP-2016/KDS/SDP-2016/Debug/../Generated_Code/Cpu.c:406
               RCM_RPFC_RSTFLTSRW(0x03)
              );
        /* Initialization of the FTFL_FlashConfig module */
      /* Initialization of the PMC module */
  /* PMC_LVDSC1: LVDACK=1,LVDIE=0,LVDRE=1,LVDV=0 */
  PMC_LVDSC1 = (uint8_t)((PMC_LVDSC1 & (uint8_t)~(uint8_t)(
    1132:	4b27      	ldr	r3, [pc, #156]	; (11d0 <PE_low_level_init+0xd4>)
    1134:	4a26      	ldr	r2, [pc, #152]	; (11d0 <PE_low_level_init+0xd4>)
    1136:	7812      	ldrb	r2, [r2, #0]
    1138:	b2d2      	uxtb	r2, r2
    113a:	b2d2      	uxtb	r2, r2
    113c:	2173      	movs	r1, #115	; 0x73
    113e:	438a      	bics	r2, r1
    1140:	b2d2      	uxtb	r2, r2
    1142:	2150      	movs	r1, #80	; 0x50
    1144:	430a      	orrs	r2, r1
    1146:	b2d2      	uxtb	r2, r2
    1148:	b2d2      	uxtb	r2, r2
    114a:	701a      	strb	r2, [r3, #0]
/home/marcelo/Documentos/GER/SDP/SDP-2016/KDS/SDP-2016/Debug/../Generated_Code/Cpu.c:414
               )) | (uint8_t)(
                PMC_LVDSC1_LVDACK_MASK |
                PMC_LVDSC1_LVDRE_MASK
               ));
  /* PMC_LVDSC2: LVWACK=1,LVWIE=0,LVWV=0 */
  PMC_LVDSC2 = (uint8_t)((PMC_LVDSC2 & (uint8_t)~(uint8_t)(
    114c:	4b20      	ldr	r3, [pc, #128]	; (11d0 <PE_low_level_init+0xd4>)
    114e:	4a20      	ldr	r2, [pc, #128]	; (11d0 <PE_low_level_init+0xd4>)
    1150:	7852      	ldrb	r2, [r2, #1]
    1152:	b2d2      	uxtb	r2, r2
    1154:	b2d2      	uxtb	r2, r2
    1156:	2163      	movs	r1, #99	; 0x63
    1158:	438a      	bics	r2, r1
    115a:	b2d2      	uxtb	r2, r2
    115c:	2140      	movs	r1, #64	; 0x40
    115e:	430a      	orrs	r2, r1
    1160:	b2d2      	uxtb	r2, r2
    1162:	b2d2      	uxtb	r2, r2
    1164:	705a      	strb	r2, [r3, #1]
/home/marcelo/Documentos/GER/SDP/SDP-2016/KDS/SDP-2016/Debug/../Generated_Code/Cpu.c:421
                PMC_LVDSC2_LVWV(0x03)
               )) | (uint8_t)(
                PMC_LVDSC2_LVWACK_MASK
               ));
  /* PMC_REGSC: BGEN=0,ACKISO=0,BGBE=0 */
  PMC_REGSC &= (uint8_t)~(uint8_t)(
    1166:	4b1a      	ldr	r3, [pc, #104]	; (11d0 <PE_low_level_init+0xd4>)
    1168:	4a19      	ldr	r2, [pc, #100]	; (11d0 <PE_low_level_init+0xd4>)
    116a:	7892      	ldrb	r2, [r2, #2]
    116c:	b2d2      	uxtb	r2, r2
    116e:	2119      	movs	r1, #25
    1170:	438a      	bics	r2, r1
    1172:	b2d2      	uxtb	r2, r2
    1174:	709a      	strb	r2, [r3, #2]
/home/marcelo/Documentos/GER/SDP/SDP-2016/KDS/SDP-2016/Debug/../Generated_Code/Cpu.c:427
                PMC_REGSC_BGEN_MASK |
                PMC_REGSC_ACKISO_MASK |
                PMC_REGSC_BGBE_MASK
               );
  /* SMC_PMPROT: ??=0,??=0,AVLP=0,??=0,ALLS=0,??=0,AVLLS=0,??=0 */
  SMC_PMPROT = 0x00U;                  /* Setup Power mode protection register */
    1176:	4b17      	ldr	r3, [pc, #92]	; (11d4 <PE_low_level_init+0xd8>)
    1178:	2200      	movs	r2, #0
    117a:	701a      	strb	r2, [r3, #0]
/home/marcelo/Documentos/GER/SDP/SDP-2016/KDS/SDP-2016/Debug/../Generated_Code/Cpu.c:430
  /* Common initialization of the CPU registers */
  /* PORTA_PCR20: ISF=0,MUX=7 */
  PORTA_PCR20 = (uint32_t)((PORTA_PCR20 & (uint32_t)~(uint32_t)(
    117c:	4b11      	ldr	r3, [pc, #68]	; (11c4 <PE_low_level_init+0xc8>)
    117e:	4a11      	ldr	r2, [pc, #68]	; (11c4 <PE_low_level_init+0xc8>)
    1180:	6d11      	ldr	r1, [r2, #80]	; 0x50
    1182:	4a11      	ldr	r2, [pc, #68]	; (11c8 <PE_low_level_init+0xcc>)
    1184:	400a      	ands	r2, r1
    1186:	21e0      	movs	r1, #224	; 0xe0
    1188:	00c9      	lsls	r1, r1, #3
    118a:	430a      	orrs	r2, r1
    118c:	651a      	str	r2, [r3, #80]	; 0x50
/home/marcelo/Documentos/GER/SDP/SDP-2016/KDS/SDP-2016/Debug/../Generated_Code/Cpu.c:436
                 PORT_PCR_ISF_MASK
                )) | (uint32_t)(
                 PORT_PCR_MUX(0x07)
                ));
  /* NVIC_IPR1: PRI_6=0 */
  NVIC_IPR1 &= (uint32_t)~(uint32_t)(NVIC_IP_PRI_6(0xFF));
    118e:	4a12      	ldr	r2, [pc, #72]	; (11d8 <PE_low_level_init+0xdc>)
    1190:	4911      	ldr	r1, [pc, #68]	; (11d8 <PE_low_level_init+0xdc>)
    1192:	23c1      	movs	r3, #193	; 0xc1
    1194:	009b      	lsls	r3, r3, #2
    1196:	58c9      	ldr	r1, [r1, r3]
    1198:	4b10      	ldr	r3, [pc, #64]	; (11dc <PE_low_level_init+0xe0>)
    119a:	4019      	ands	r1, r3
    119c:	23c1      	movs	r3, #193	; 0xc1
    119e:	009b      	lsls	r3, r3, #2
    11a0:	50d1      	str	r1, [r2, r3]
/home/marcelo/Documentos/GER/SDP/SDP-2016/KDS/SDP-2016/Debug/../Generated_Code/Cpu.c:438
  /* ### BitIO_LDD "BitIoLdd1" component auto initialization. Auto initialization feature can be disabled by component property "Auto initialization". */
  (void)BitIoLdd1_Init(NULL);
    11a2:	2000      	movs	r0, #0
    11a4:	f7ff fe38 	bl	e18 <BitIoLdd1_Init>
/home/marcelo/Documentos/GER/SDP/SDP-2016/KDS/SDP-2016/Debug/../Generated_Code/Cpu.c:440
  /* ### BitIO_LDD "BitIoLdd2" component auto initialization. Auto initialization feature can be disabled by component property "Auto initialization". */
  (void)BitIoLdd2_Init(NULL);
    11a8:	2000      	movs	r0, #0
    11aa:	f7ff fe91 	bl	ed0 <BitIoLdd2_Init>
/home/marcelo/Documentos/GER/SDP/SDP-2016/KDS/SDP-2016/Debug/../Generated_Code/Cpu.c:442
  /* ### TimerInt_LDD "TimerIntLdd1" component auto initialization. Auto initialization feature can be disabled by component property "Auto initialization". */
  (void)TimerIntLdd1_Init(NULL);
    11ae:	2000      	movs	r0, #0
    11b0:	f000 fb48 	bl	1844 <TimerIntLdd1_Init>
/home/marcelo/Documentos/GER/SDP/SDP-2016/KDS/SDP-2016/Debug/../Generated_Code/Cpu.c:445
  /* ### TimerInt "ClockInterruption" init code ... */
  /* ### BitIO_LDD "BitIoLdd3" component auto initialization. Auto initialization feature can be disabled by component property "Auto initialization". */
  (void)BitIoLdd3_Init(NULL);
    11b4:	2000      	movs	r0, #0
    11b6:	f7ff fed3 	bl	f60 <BitIoLdd3_Init>
/home/marcelo/Documentos/GER/SDP/SDP-2016/KDS/SDP-2016/Debug/../Generated_Code/Cpu.c:447
  /* ### ADC "ImageConverter" init code ... */
  ImageConverter_Init();
    11ba:	f000 f8a1 	bl	1300 <ImageConverter_Init>
/home/marcelo/Documentos/GER/SDP/SDP-2016/KDS/SDP-2016/Debug/../Generated_Code/Cpu.c:448
  __EI();
    11be:	b662      	cpsie	i
/home/marcelo/Documentos/GER/SDP/SDP-2016/KDS/SDP-2016/Debug/../Generated_Code/Cpu.c:449
}
    11c0:	46bd      	mov	sp, r7
    11c2:	bd80      	pop	{r7, pc}
    11c4:	40049000 	.word	0x40049000
    11c8:	fefff8ff 	.word	0xfefff8ff
    11cc:	4007f000 	.word	0x4007f000
    11d0:	4007d000 	.word	0x4007d000
    11d4:	4007e000 	.word	0x4007e000
    11d8:	e000e100 	.word	0xe000e100
    11dc:	ff3fffff 	.word	0xff3fffff

000011e0 <ImageConverter_HWEnDi>:
ImageConverter_HWEnDi():
/home/marcelo/Documentos/GER/SDP/SDP-2016/KDS/SDP-2016/Debug/../Generated_Code/ImageConverter.c:127
**         Enable and Disable methods and several internal methods.
**         This method is internal. It is used by Processor Expert only.
** ===================================================================
*/
void ImageConverter_HWEnDi(void)
{
    11e0:	b580      	push	{r7, lr}
    11e2:	af00      	add	r7, sp, #0
/home/marcelo/Documentos/GER/SDP/SDP-2016/KDS/SDP-2016/Debug/../Generated_Code/ImageConverter.c:128
  if (ModeFlg) {                       /* Start or stop measurement? */
    11e4:	4b0c      	ldr	r3, [pc, #48]	; (1218 <ImageConverter_HWEnDi+0x38>)
    11e6:	781b      	ldrb	r3, [r3, #0]
    11e8:	b2db      	uxtb	r3, r3
    11ea:	2b00      	cmp	r3, #0
    11ec:	d012      	beq.n	1214 <ImageConverter_HWEnDi+0x34>
/home/marcelo/Documentos/GER/SDP/SDP-2016/KDS/SDP-2016/Debug/../Generated_Code/ImageConverter.c:129
    OutFlg = FALSE;                    /* Output value isn't available */
    11ee:	4b0b      	ldr	r3, [pc, #44]	; (121c <ImageConverter_HWEnDi+0x3c>)
    11f0:	2200      	movs	r2, #0
    11f2:	701a      	strb	r2, [r3, #0]
/home/marcelo/Documentos/GER/SDP/SDP-2016/KDS/SDP-2016/Debug/../Generated_Code/ImageConverter.c:130
    SampleGroup[0].ChannelIdx = 0U;
    11f4:	4b0a      	ldr	r3, [pc, #40]	; (1220 <ImageConverter_HWEnDi+0x40>)
    11f6:	2200      	movs	r2, #0
    11f8:	701a      	strb	r2, [r3, #0]
/home/marcelo/Documentos/GER/SDP/SDP-2016/KDS/SDP-2016/Debug/../Generated_Code/ImageConverter.c:131
    (void)AdcLdd1_CreateSampleGroup(AdcLdd1_DeviceDataPtr, (LDD_ADC_TSample *)SampleGroup, 1U); /* Configure sample group */
    11fa:	4b0a      	ldr	r3, [pc, #40]	; (1224 <ImageConverter_HWEnDi+0x44>)
    11fc:	681a      	ldr	r2, [r3, #0]
    11fe:	4b08      	ldr	r3, [pc, #32]	; (1220 <ImageConverter_HWEnDi+0x40>)
    1200:	1c10      	adds	r0, r2, #0
    1202:	1c19      	adds	r1, r3, #0
    1204:	2201      	movs	r2, #1
    1206:	f7ff fd31 	bl	c6c <AdcLdd1_CreateSampleGroup>
/home/marcelo/Documentos/GER/SDP/SDP-2016/KDS/SDP-2016/Debug/../Generated_Code/ImageConverter.c:132
    (void)AdcLdd1_StartSingleMeasurement(AdcLdd1_DeviceDataPtr);
    120a:	4b06      	ldr	r3, [pc, #24]	; (1224 <ImageConverter_HWEnDi+0x44>)
    120c:	681b      	ldr	r3, [r3, #0]
    120e:	1c18      	adds	r0, r3, #0
    1210:	f7ff fd0a 	bl	c28 <AdcLdd1_StartSingleMeasurement>
/home/marcelo/Documentos/GER/SDP/SDP-2016/KDS/SDP-2016/Debug/../Generated_Code/ImageConverter.c:134
  }
}
    1214:	46bd      	mov	sp, r7
    1216:	bd80      	pop	{r7, pc}
    1218:	1ffff09d 	.word	0x1ffff09d
    121c:	1ffff0a4 	.word	0x1ffff0a4
    1220:	1ffff0a0 	.word	0x1ffff0a0
    1224:	1ffff214 	.word	0x1ffff214

00001228 <ImageConverter_Measure>:
ImageConverter_Measure():
/home/marcelo/Documentos/GER/SDP/SDP-2016/KDS/SDP-2016/Debug/../Generated_Code/ImageConverter.c:170
**                           ERR_DISABLED - Device is disabled
**                           ERR_BUSY - A conversion is already running
*/
/* ===================================================================*/
byte ImageConverter_Measure(bool WaitForResult)
{
    1228:	b580      	push	{r7, lr}
    122a:	b082      	sub	sp, #8
    122c:	af00      	add	r7, sp, #0
    122e:	1c02      	adds	r2, r0, #0
    1230:	1dfb      	adds	r3, r7, #7
    1232:	701a      	strb	r2, [r3, #0]
/home/marcelo/Documentos/GER/SDP/SDP-2016/KDS/SDP-2016/Debug/../Generated_Code/ImageConverter.c:171
  if (ModeFlg != STOP) {               /* Is the device in different mode than "stop"? */
    1234:	4b0d      	ldr	r3, [pc, #52]	; (126c <ImageConverter_Measure+0x44>)
    1236:	781b      	ldrb	r3, [r3, #0]
    1238:	b2db      	uxtb	r3, r3
    123a:	2b00      	cmp	r3, #0
    123c:	d001      	beq.n	1242 <ImageConverter_Measure+0x1a>
/home/marcelo/Documentos/GER/SDP/SDP-2016/KDS/SDP-2016/Debug/../Generated_Code/ImageConverter.c:172
    return ERR_BUSY;                   /* If yes then error */
    123e:	2308      	movs	r3, #8
    1240:	e00f      	b.n	1262 <ImageConverter_Measure+0x3a>
/home/marcelo/Documentos/GER/SDP/SDP-2016/KDS/SDP-2016/Debug/../Generated_Code/ImageConverter.c:174
  }
  ModeFlg = MEASURE;                   /* Set state of device to the measure mode */
    1242:	4b0a      	ldr	r3, [pc, #40]	; (126c <ImageConverter_Measure+0x44>)
    1244:	2201      	movs	r2, #1
    1246:	701a      	strb	r2, [r3, #0]
/home/marcelo/Documentos/GER/SDP/SDP-2016/KDS/SDP-2016/Debug/../Generated_Code/ImageConverter.c:175
  ImageConverter_HWEnDi();             /* Enable the device */
    1248:	f7ff ffca 	bl	11e0 <ImageConverter_HWEnDi>
/home/marcelo/Documentos/GER/SDP/SDP-2016/KDS/SDP-2016/Debug/../Generated_Code/ImageConverter.c:176
  if (WaitForResult) {                 /* Is WaitForResult TRUE? */
    124c:	1dfb      	adds	r3, r7, #7
    124e:	781b      	ldrb	r3, [r3, #0]
    1250:	2b00      	cmp	r3, #0
    1252:	d005      	beq.n	1260 <ImageConverter_Measure+0x38>
/home/marcelo/Documentos/GER/SDP/SDP-2016/KDS/SDP-2016/Debug/../Generated_Code/ImageConverter.c:177
    while (ModeFlg == MEASURE) {}      /* If yes then wait for end of measurement */
    1254:	46c0      	nop			; (mov r8, r8)
/home/marcelo/Documentos/GER/SDP/SDP-2016/KDS/SDP-2016/Debug/../Generated_Code/ImageConverter.c:177 (discriminator 1)
    1256:	4b05      	ldr	r3, [pc, #20]	; (126c <ImageConverter_Measure+0x44>)
    1258:	781b      	ldrb	r3, [r3, #0]
    125a:	b2db      	uxtb	r3, r3
    125c:	2b01      	cmp	r3, #1
    125e:	d0fa      	beq.n	1256 <ImageConverter_Measure+0x2e>
/home/marcelo/Documentos/GER/SDP/SDP-2016/KDS/SDP-2016/Debug/../Generated_Code/ImageConverter.c:179
  }
  return ERR_OK;                       /* OK */
    1260:	2300      	movs	r3, #0
/home/marcelo/Documentos/GER/SDP/SDP-2016/KDS/SDP-2016/Debug/../Generated_Code/ImageConverter.c:180
}
    1262:	1c18      	adds	r0, r3, #0
    1264:	46bd      	mov	sp, r7
    1266:	b002      	add	sp, #8
    1268:	bd80      	pop	{r7, pc}
    126a:	46c0      	nop			; (mov r8, r8)
    126c:	1ffff09d 	.word	0x1ffff09d

00001270 <PE_ImageConverter_GetChanValue>:
PE_ImageConverter_GetChanValue():
/home/marcelo/Documentos/GER/SDP/SDP-2016/KDS/SDP-2016/Debug/../Generated_Code/ImageConverter.c:315
byte ImageConverter_GetChanValue(byte Channel, void* Value)
was optimised based on the current component setting. An appropriate macro has been defined 
in the AD1.h to maintain API compatibility.
*/
byte PE_ImageConverter_GetChanValue(void* Value)
{
    1270:	b580      	push	{r7, lr}
    1272:	b082      	sub	sp, #8
    1274:	af00      	add	r7, sp, #0
    1276:	6078      	str	r0, [r7, #4]
/home/marcelo/Documentos/GER/SDP/SDP-2016/KDS/SDP-2016/Debug/../Generated_Code/ImageConverter.c:316
  if (!OutFlg) {                       /* Is output flag set? */
    1278:	4b08      	ldr	r3, [pc, #32]	; (129c <PE_ImageConverter_GetChanValue+0x2c>)
    127a:	781b      	ldrb	r3, [r3, #0]
    127c:	b2db      	uxtb	r3, r3
    127e:	2b00      	cmp	r3, #0
    1280:	d101      	bne.n	1286 <PE_ImageConverter_GetChanValue+0x16>
/home/marcelo/Documentos/GER/SDP/SDP-2016/KDS/SDP-2016/Debug/../Generated_Code/ImageConverter.c:317
    return ERR_NOTAVAIL;               /* If no then error */
    1282:	2309      	movs	r3, #9
    1284:	e005      	b.n	1292 <PE_ImageConverter_GetChanValue+0x22>
/home/marcelo/Documentos/GER/SDP/SDP-2016/KDS/SDP-2016/Debug/../Generated_Code/ImageConverter.c:320
  }
  /* Copy value from temporary buffer */
  *(AdcLdd1_TResultData *)Value = ImageConverter_OutV;
    1286:	4b06      	ldr	r3, [pc, #24]	; (12a0 <PE_ImageConverter_GetChanValue+0x30>)
    1288:	781b      	ldrb	r3, [r3, #0]
    128a:	b2da      	uxtb	r2, r3
    128c:	687b      	ldr	r3, [r7, #4]
    128e:	701a      	strb	r2, [r3, #0]
/home/marcelo/Documentos/GER/SDP/SDP-2016/KDS/SDP-2016/Debug/../Generated_Code/ImageConverter.c:321
  return ERR_OK;
    1290:	2300      	movs	r3, #0
/home/marcelo/Documentos/GER/SDP/SDP-2016/KDS/SDP-2016/Debug/../Generated_Code/ImageConverter.c:322
}
    1292:	1c18      	adds	r0, r3, #0
    1294:	46bd      	mov	sp, r7
    1296:	b002      	add	sp, #8
    1298:	bd80      	pop	{r7, pc}
    129a:	46c0      	nop			; (mov r8, r8)
    129c:	1ffff0a4 	.word	0x1ffff0a4
    12a0:	1ffff210 	.word	0x1ffff210

000012a4 <AdcLdd1_OnMeasurementComplete>:
AdcLdd1_OnMeasurementComplete():
/home/marcelo/Documentos/GER/SDP/SDP-2016/KDS/SDP-2016/Debug/../Generated_Code/ImageConverter.c:380
**         event(s).
**         This method is internal. It is used by Processor Expert only.
** ===================================================================
*/
void AdcLdd1_OnMeasurementComplete(LDD_TUserData *UserDataPtr)
{
    12a4:	b580      	push	{r7, lr}
    12a6:	b082      	sub	sp, #8
    12a8:	af00      	add	r7, sp, #0
    12aa:	6078      	str	r0, [r7, #4]
/home/marcelo/Documentos/GER/SDP/SDP-2016/KDS/SDP-2016/Debug/../Generated_Code/ImageConverter.c:382
  (void)UserDataPtr;                   /* Parameter is not used, suppress unused argument warning */
  if (ModeFlg == CALIBRATING) {        /* If the driver is in CALIBRATING mode */
    12ac:	4b10      	ldr	r3, [pc, #64]	; (12f0 <AdcLdd1_OnMeasurementComplete+0x4c>)
    12ae:	781b      	ldrb	r3, [r3, #0]
    12b0:	b2db      	uxtb	r3, r3
    12b2:	2b04      	cmp	r3, #4
    12b4:	d10a      	bne.n	12cc <AdcLdd1_OnMeasurementComplete+0x28>
/home/marcelo/Documentos/GER/SDP/SDP-2016/KDS/SDP-2016/Debug/../Generated_Code/ImageConverter.c:383
    (void)AdcLdd1_GetCalibrationResultStatus(AdcLdd1_DeviceDataPtr);
    12b6:	4b0f      	ldr	r3, [pc, #60]	; (12f4 <AdcLdd1_OnMeasurementComplete+0x50>)
    12b8:	681b      	ldr	r3, [r3, #0]
    12ba:	1c18      	adds	r0, r3, #0
    12bc:	f7ff fd38 	bl	d30 <AdcLdd1_GetCalibrationResultStatus>
/home/marcelo/Documentos/GER/SDP/SDP-2016/KDS/SDP-2016/Debug/../Generated_Code/ImageConverter.c:384
    ModeFlg = STOP;                    /* Set the device to the stop mode */
    12c0:	4b0b      	ldr	r3, [pc, #44]	; (12f0 <AdcLdd1_OnMeasurementComplete+0x4c>)
    12c2:	2200      	movs	r2, #0
    12c4:	701a      	strb	r2, [r3, #0]
/home/marcelo/Documentos/GER/SDP/SDP-2016/KDS/SDP-2016/Debug/../Generated_Code/ImageConverter.c:385
    ImageConverter_OnCalibrationEnd(); /* If yes then invoke user event */
    12c6:	f7ff faad 	bl	824 <ImageConverter_OnCalibrationEnd>
/home/marcelo/Documentos/GER/SDP/SDP-2016/KDS/SDP-2016/Debug/../Generated_Code/ImageConverter.c:386
    return;                            /* Return from interrupt */
    12ca:	e00e      	b.n	12ea <AdcLdd1_OnMeasurementComplete+0x46>
/home/marcelo/Documentos/GER/SDP/SDP-2016/KDS/SDP-2016/Debug/../Generated_Code/ImageConverter.c:388
  }
  AdcLdd1_GetMeasuredValues(AdcLdd1_DeviceDataPtr, (LDD_TData *)&ImageConverter_OutV);
    12cc:	4b09      	ldr	r3, [pc, #36]	; (12f4 <AdcLdd1_OnMeasurementComplete+0x50>)
    12ce:	681a      	ldr	r2, [r3, #0]
    12d0:	4b09      	ldr	r3, [pc, #36]	; (12f8 <AdcLdd1_OnMeasurementComplete+0x54>)
    12d2:	1c10      	adds	r0, r2, #0
    12d4:	1c19      	adds	r1, r3, #0
    12d6:	f7ff fcfb 	bl	cd0 <AdcLdd1_GetMeasuredValues>
/home/marcelo/Documentos/GER/SDP/SDP-2016/KDS/SDP-2016/Debug/../Generated_Code/ImageConverter.c:389
  OutFlg = TRUE;                       /* Measured value is available */
    12da:	4b08      	ldr	r3, [pc, #32]	; (12fc <AdcLdd1_OnMeasurementComplete+0x58>)
    12dc:	2201      	movs	r2, #1
    12de:	701a      	strb	r2, [r3, #0]
/home/marcelo/Documentos/GER/SDP/SDP-2016/KDS/SDP-2016/Debug/../Generated_Code/ImageConverter.c:390
  ImageConverter_OnEnd();              /* If yes then invoke user event */
    12e0:	f7ff fa90 	bl	804 <ImageConverter_OnEnd>
/home/marcelo/Documentos/GER/SDP/SDP-2016/KDS/SDP-2016/Debug/../Generated_Code/ImageConverter.c:391
  ModeFlg = STOP;                      /* Set the device to the stop mode */
    12e4:	4b02      	ldr	r3, [pc, #8]	; (12f0 <AdcLdd1_OnMeasurementComplete+0x4c>)
    12e6:	2200      	movs	r2, #0
    12e8:	701a      	strb	r2, [r3, #0]
/home/marcelo/Documentos/GER/SDP/SDP-2016/KDS/SDP-2016/Debug/../Generated_Code/ImageConverter.c:392
}
    12ea:	46bd      	mov	sp, r7
    12ec:	b002      	add	sp, #8
    12ee:	bd80      	pop	{r7, pc}
    12f0:	1ffff09d 	.word	0x1ffff09d
    12f4:	1ffff214 	.word	0x1ffff214
    12f8:	1ffff210 	.word	0x1ffff210
    12fc:	1ffff0a4 	.word	0x1ffff0a4

00001300 <ImageConverter_Init>:
ImageConverter_Init():
/home/marcelo/Documentos/GER/SDP/SDP-2016/KDS/SDP-2016/Debug/../Generated_Code/ImageConverter.c:406
**         part of the application initialization code.
**         This method is internal. It is used by Processor Expert only.
** ===================================================================
*/
void ImageConverter_Init(void)
{
    1300:	b580      	push	{r7, lr}
    1302:	af00      	add	r7, sp, #0
/home/marcelo/Documentos/GER/SDP/SDP-2016/KDS/SDP-2016/Debug/../Generated_Code/ImageConverter.c:407
  OutFlg = FALSE;                      /* No measured value */
    1304:	4b06      	ldr	r3, [pc, #24]	; (1320 <ImageConverter_Init+0x20>)
    1306:	2200      	movs	r2, #0
    1308:	701a      	strb	r2, [r3, #0]
/home/marcelo/Documentos/GER/SDP/SDP-2016/KDS/SDP-2016/Debug/../Generated_Code/ImageConverter.c:408
  ModeFlg = STOP;                      /* Device isn't running */
    130a:	4b06      	ldr	r3, [pc, #24]	; (1324 <ImageConverter_Init+0x24>)
    130c:	2200      	movs	r2, #0
    130e:	701a      	strb	r2, [r3, #0]
/home/marcelo/Documentos/GER/SDP/SDP-2016/KDS/SDP-2016/Debug/../Generated_Code/ImageConverter.c:409
  AdcLdd1_DeviceDataPtr = AdcLdd1_Init(NULL); /* Calling init method of the inherited component */
    1310:	2000      	movs	r0, #0
    1312:	f7ff fc27 	bl	b64 <AdcLdd1_Init>
    1316:	1c02      	adds	r2, r0, #0
    1318:	4b03      	ldr	r3, [pc, #12]	; (1328 <ImageConverter_Init+0x28>)
    131a:	601a      	str	r2, [r3, #0]
/home/marcelo/Documentos/GER/SDP/SDP-2016/KDS/SDP-2016/Debug/../Generated_Code/ImageConverter.c:410
}
    131c:	46bd      	mov	sp, r7
    131e:	bd80      	pop	{r7, pc}
    1320:	1ffff0a4 	.word	0x1ffff0a4
    1324:	1ffff09d 	.word	0x1ffff09d
    1328:	1ffff214 	.word	0x1ffff214

0000132c <SerialCom_Init>:
SerialCom_Init():
/home/marcelo/Documentos/GER/SDP/SDP-2016/KDS/SDP-2016/Debug/../Generated_Code/SerialCom.c:160
**     @return
**                         - Device data structure pointer.
*/
/* ===================================================================*/
LDD_TDeviceData* SerialCom_Init(LDD_TUserData *UserDataPtr)
{
    132c:	b580      	push	{r7, lr}
    132e:	b084      	sub	sp, #16
    1330:	af00      	add	r7, sp, #0
    1332:	6078      	str	r0, [r7, #4]
/home/marcelo/Documentos/GER/SDP/SDP-2016/KDS/SDP-2016/Debug/../Generated_Code/SerialCom.c:164
  /* Allocate device structure */
  SerialCom_TDeviceDataPtr DeviceDataPrv;
  /* {Default RTOS Adapter} Driver memory allocation: Dynamic allocation is simulated by a pointer to the static object */
  DeviceDataPrv = &DeviceDataPrv__DEFAULT_RTOS_ALLOC;
    1334:	4b5e      	ldr	r3, [pc, #376]	; (14b0 <SerialCom_Init+0x184>)
    1336:	60fb      	str	r3, [r7, #12]
/home/marcelo/Documentos/GER/SDP/SDP-2016/KDS/SDP-2016/Debug/../Generated_Code/SerialCom.c:167

  /* Clear the receive counters and pointer */
  DeviceDataPrv->InpRecvDataNum = 0x00U; /* Clear the counter of received characters */
    1338:	68fb      	ldr	r3, [r7, #12]
    133a:	2200      	movs	r2, #0
    133c:	805a      	strh	r2, [r3, #2]
/home/marcelo/Documentos/GER/SDP/SDP-2016/KDS/SDP-2016/Debug/../Generated_Code/SerialCom.c:168
  DeviceDataPrv->InpDataNumReq = 0x00U; /* Clear the counter of characters to receive by ReceiveBlock() */
    133e:	68fb      	ldr	r3, [r7, #12]
    1340:	2200      	movs	r2, #0
    1342:	811a      	strh	r2, [r3, #8]
/home/marcelo/Documentos/GER/SDP/SDP-2016/KDS/SDP-2016/Debug/../Generated_Code/SerialCom.c:169
  DeviceDataPrv->InpDataPtr = NULL;    /* Clear the buffer pointer for received characters */
    1344:	68fb      	ldr	r3, [r7, #12]
    1346:	2200      	movs	r2, #0
    1348:	605a      	str	r2, [r3, #4]
/home/marcelo/Documentos/GER/SDP/SDP-2016/KDS/SDP-2016/Debug/../Generated_Code/SerialCom.c:171
  /* Clear the transmit counters and pointer */
  DeviceDataPrv->OutSentDataNum = 0x00U; /* Clear the counter of sent characters */
    134a:	68fb      	ldr	r3, [r7, #12]
    134c:	2200      	movs	r2, #0
    134e:	815a      	strh	r2, [r3, #10]
/home/marcelo/Documentos/GER/SDP/SDP-2016/KDS/SDP-2016/Debug/../Generated_Code/SerialCom.c:172
  DeviceDataPrv->OutDataNumReq = 0x00U; /* Clear the counter of characters to be send by SendBlock() */
    1350:	68fb      	ldr	r3, [r7, #12]
    1352:	2200      	movs	r2, #0
    1354:	821a      	strh	r2, [r3, #16]
/home/marcelo/Documentos/GER/SDP/SDP-2016/KDS/SDP-2016/Debug/../Generated_Code/SerialCom.c:173
  DeviceDataPrv->OutDataPtr = NULL;    /* Clear the buffer pointer for data to be transmitted */
    1356:	68fb      	ldr	r3, [r7, #12]
    1358:	2200      	movs	r2, #0
    135a:	60da      	str	r2, [r3, #12]
/home/marcelo/Documentos/GER/SDP/SDP-2016/KDS/SDP-2016/Debug/../Generated_Code/SerialCom.c:174
  DeviceDataPrv->UserDataPtr = UserDataPtr; /* Store the RTOS device structure */
    135c:	68fb      	ldr	r3, [r7, #12]
    135e:	687a      	ldr	r2, [r7, #4]
    1360:	615a      	str	r2, [r3, #20]
/home/marcelo/Documentos/GER/SDP/SDP-2016/KDS/SDP-2016/Debug/../Generated_Code/SerialCom.c:177
  /* Allocate interrupt vectors */
  /* {Default RTOS Adapter} Set interrupt vector: IVT is static, ISR parameter is passed by the global variable */
  INT_UART0__DEFAULT_RTOS_ISRPARAM = DeviceDataPrv;
    1362:	4b54      	ldr	r3, [pc, #336]	; (14b4 <SerialCom_Init+0x188>)
    1364:	68fa      	ldr	r2, [r7, #12]
    1366:	601a      	str	r2, [r3, #0]
/home/marcelo/Documentos/GER/SDP/SDP-2016/KDS/SDP-2016/Debug/../Generated_Code/SerialCom.c:179
  /* SIM_SCGC4: UART0=1 */
  SIM_SCGC4 |= SIM_SCGC4_UART0_MASK;
    1368:	4a53      	ldr	r2, [pc, #332]	; (14b8 <SerialCom_Init+0x18c>)
    136a:	4953      	ldr	r1, [pc, #332]	; (14b8 <SerialCom_Init+0x18c>)
    136c:	4b53      	ldr	r3, [pc, #332]	; (14bc <SerialCom_Init+0x190>)
    136e:	58cb      	ldr	r3, [r1, r3]
    1370:	2180      	movs	r1, #128	; 0x80
    1372:	00c9      	lsls	r1, r1, #3
    1374:	4319      	orrs	r1, r3
    1376:	4b51      	ldr	r3, [pc, #324]	; (14bc <SerialCom_Init+0x190>)
    1378:	50d1      	str	r1, [r2, r3]
/home/marcelo/Documentos/GER/SDP/SDP-2016/KDS/SDP-2016/Debug/../Generated_Code/SerialCom.c:181
  /* PORTA_PCR1: ISF=0,MUX=2 */
  PORTA_PCR1 = (uint32_t)((PORTA_PCR1 & (uint32_t)~(uint32_t)(
    137a:	4b51      	ldr	r3, [pc, #324]	; (14c0 <SerialCom_Init+0x194>)
    137c:	4a50      	ldr	r2, [pc, #320]	; (14c0 <SerialCom_Init+0x194>)
    137e:	6851      	ldr	r1, [r2, #4]
    1380:	4a50      	ldr	r2, [pc, #320]	; (14c4 <SerialCom_Init+0x198>)
    1382:	400a      	ands	r2, r1
    1384:	2180      	movs	r1, #128	; 0x80
    1386:	0089      	lsls	r1, r1, #2
    1388:	430a      	orrs	r2, r1
    138a:	605a      	str	r2, [r3, #4]
/home/marcelo/Documentos/GER/SDP/SDP-2016/KDS/SDP-2016/Debug/../Generated_Code/SerialCom.c:188
                PORT_PCR_MUX(0x05)
               )) | (uint32_t)(
                PORT_PCR_MUX(0x02)
               ));
  /* PORTA_PCR2: ISF=0,MUX=2 */
  PORTA_PCR2 = (uint32_t)((PORTA_PCR2 & (uint32_t)~(uint32_t)(
    138c:	4b4c      	ldr	r3, [pc, #304]	; (14c0 <SerialCom_Init+0x194>)
    138e:	4a4c      	ldr	r2, [pc, #304]	; (14c0 <SerialCom_Init+0x194>)
    1390:	6891      	ldr	r1, [r2, #8]
    1392:	4a4c      	ldr	r2, [pc, #304]	; (14c4 <SerialCom_Init+0x198>)
    1394:	400a      	ands	r2, r1
    1396:	2180      	movs	r1, #128	; 0x80
    1398:	0089      	lsls	r1, r1, #2
    139a:	430a      	orrs	r2, r1
    139c:	609a      	str	r2, [r3, #8]
/home/marcelo/Documentos/GER/SDP/SDP-2016/KDS/SDP-2016/Debug/../Generated_Code/SerialCom.c:195
                PORT_PCR_MUX(0x05)
               )) | (uint32_t)(
                PORT_PCR_MUX(0x02)
               ));
  /* NVIC_IPR3: PRI_12=0x80 */
  NVIC_IPR3 = (uint32_t)((NVIC_IPR3 & (uint32_t)~(uint32_t)(
    139e:	4a4a      	ldr	r2, [pc, #296]	; (14c8 <SerialCom_Init+0x19c>)
    13a0:	4949      	ldr	r1, [pc, #292]	; (14c8 <SerialCom_Init+0x19c>)
    13a2:	23c3      	movs	r3, #195	; 0xc3
    13a4:	009b      	lsls	r3, r3, #2
    13a6:	58cb      	ldr	r3, [r1, r3]
    13a8:	21c0      	movs	r1, #192	; 0xc0
    13aa:	1c18      	adds	r0, r3, #0
    13ac:	4388      	bics	r0, r1
    13ae:	1c01      	adds	r1, r0, #0
    13b0:	23c3      	movs	r3, #195	; 0xc3
    13b2:	009b      	lsls	r3, r3, #2
    13b4:	50d1      	str	r1, [r2, r3]
/home/marcelo/Documentos/GER/SDP/SDP-2016/KDS/SDP-2016/Debug/../Generated_Code/SerialCom.c:201
               NVIC_IP_PRI_12(0x7F)
              )) | (uint32_t)(
               NVIC_IP_PRI_12(0x80)
              ));
  /* NVIC_ISER: SETENA|=0x1000 */
  NVIC_ISER |= NVIC_ISER_SETENA(0x1000);
    13b6:	4b44      	ldr	r3, [pc, #272]	; (14c8 <SerialCom_Init+0x19c>)
    13b8:	4a43      	ldr	r2, [pc, #268]	; (14c8 <SerialCom_Init+0x19c>)
    13ba:	6812      	ldr	r2, [r2, #0]
    13bc:	2180      	movs	r1, #128	; 0x80
    13be:	0149      	lsls	r1, r1, #5
    13c0:	430a      	orrs	r2, r1
    13c2:	601a      	str	r2, [r3, #0]
/home/marcelo/Documentos/GER/SDP/SDP-2016/KDS/SDP-2016/Debug/../Generated_Code/SerialCom.c:202
  UART0_PDD_EnableTransmitter(UART0_BASE_PTR, PDD_DISABLE); /* Disable transmitter. */
    13c4:	4b41      	ldr	r3, [pc, #260]	; (14cc <SerialCom_Init+0x1a0>)
    13c6:	4a41      	ldr	r2, [pc, #260]	; (14cc <SerialCom_Init+0x1a0>)
    13c8:	78d2      	ldrb	r2, [r2, #3]
    13ca:	b2d2      	uxtb	r2, r2
    13cc:	2108      	movs	r1, #8
    13ce:	438a      	bics	r2, r1
    13d0:	b2d2      	uxtb	r2, r2
    13d2:	70da      	strb	r2, [r3, #3]
/home/marcelo/Documentos/GER/SDP/SDP-2016/KDS/SDP-2016/Debug/../Generated_Code/SerialCom.c:203
  UART0_PDD_EnableReceiver(UART0_BASE_PTR, PDD_DISABLE); /* Disable receiver. */
    13d4:	4b3d      	ldr	r3, [pc, #244]	; (14cc <SerialCom_Init+0x1a0>)
    13d6:	4a3d      	ldr	r2, [pc, #244]	; (14cc <SerialCom_Init+0x1a0>)
    13d8:	78d2      	ldrb	r2, [r2, #3]
    13da:	b2d2      	uxtb	r2, r2
    13dc:	2104      	movs	r1, #4
    13de:	438a      	bics	r2, r1
    13e0:	b2d2      	uxtb	r2, r2
    13e2:	70da      	strb	r2, [r3, #3]
/home/marcelo/Documentos/GER/SDP/SDP-2016/KDS/SDP-2016/Debug/../Generated_Code/SerialCom.c:204
  DeviceDataPrv->SerFlag = 0x00U;      /* Reset flags */
    13e4:	68fb      	ldr	r3, [r7, #12]
    13e6:	2200      	movs	r2, #0
    13e8:	801a      	strh	r2, [r3, #0]
/home/marcelo/Documentos/GER/SDP/SDP-2016/KDS/SDP-2016/Debug/../Generated_Code/SerialCom.c:206
  /* UART0_C1: LOOPS=0,DOZEEN=0,RSRC=0,M=0,WAKE=0,ILT=0,PE=0,PT=0 */
  UART0_C1 = 0x00U;                    /*  Set the C1 register */
    13ea:	4b38      	ldr	r3, [pc, #224]	; (14cc <SerialCom_Init+0x1a0>)
    13ec:	2200      	movs	r2, #0
    13ee:	709a      	strb	r2, [r3, #2]
/home/marcelo/Documentos/GER/SDP/SDP-2016/KDS/SDP-2016/Debug/../Generated_Code/SerialCom.c:208
  /* UART0_C3: R8T9=0,R9T8=0,TXDIR=0,TXINV=0,ORIE=0,NEIE=0,FEIE=0,PEIE=0 */
  UART0_C3 = 0x00U;                    /*  Set the C3 register */
    13f0:	4b36      	ldr	r3, [pc, #216]	; (14cc <SerialCom_Init+0x1a0>)
    13f2:	2200      	movs	r2, #0
    13f4:	719a      	strb	r2, [r3, #6]
/home/marcelo/Documentos/GER/SDP/SDP-2016/KDS/SDP-2016/Debug/../Generated_Code/SerialCom.c:210
  /* UART0_C4: MAEN1=0,MAEN2=0,M10=0,OSR=0 */
  UART0_C4 = UART0_C4_OSR(0x00);       /*  Set the C4 register */
    13f6:	4b35      	ldr	r3, [pc, #212]	; (14cc <SerialCom_Init+0x1a0>)
    13f8:	2200      	movs	r2, #0
    13fa:	729a      	strb	r2, [r3, #10]
/home/marcelo/Documentos/GER/SDP/SDP-2016/KDS/SDP-2016/Debug/../Generated_Code/SerialCom.c:212
  /* UART0_S2: LBKDIF=0,RXEDGIF=0,MSBF=0,RXINV=0,RWUID=0,BRK13=0,LBKDE=0,RAF=0 */
  UART0_S2 = 0x00U;                    /*  Set the S2 register */
    13fc:	4b33      	ldr	r3, [pc, #204]	; (14cc <SerialCom_Init+0x1a0>)
    13fe:	2200      	movs	r2, #0
    1400:	715a      	strb	r2, [r3, #5]
/home/marcelo/Documentos/GER/SDP/SDP-2016/KDS/SDP-2016/Debug/../Generated_Code/SerialCom.c:213
  SIM_PDD_SetClockSourceUART0(SIM_BASE_PTR, SIM_PDD_UART0_PLL_FLL_CLOCK);
    1402:	4a2d      	ldr	r2, [pc, #180]	; (14b8 <SerialCom_Init+0x18c>)
    1404:	492c      	ldr	r1, [pc, #176]	; (14b8 <SerialCom_Init+0x18c>)
    1406:	4b32      	ldr	r3, [pc, #200]	; (14d0 <SerialCom_Init+0x1a4>)
    1408:	58c9      	ldr	r1, [r1, r3]
    140a:	4b32      	ldr	r3, [pc, #200]	; (14d4 <SerialCom_Init+0x1a8>)
    140c:	400b      	ands	r3, r1
    140e:	2180      	movs	r1, #128	; 0x80
    1410:	04c9      	lsls	r1, r1, #19
    1412:	4319      	orrs	r1, r3
    1414:	4b2e      	ldr	r3, [pc, #184]	; (14d0 <SerialCom_Init+0x1a4>)
    1416:	50d1      	str	r1, [r2, r3]
/home/marcelo/Documentos/GER/SDP/SDP-2016/KDS/SDP-2016/Debug/../Generated_Code/SerialCom.c:214
  UART0_PDD_SetBaudRate(UART0_BASE_PTR, 46U); /* Set the baud rate register. */
    1418:	4b2c      	ldr	r3, [pc, #176]	; (14cc <SerialCom_Init+0x1a0>)
    141a:	4a2c      	ldr	r2, [pc, #176]	; (14cc <SerialCom_Init+0x1a0>)
    141c:	7812      	ldrb	r2, [r2, #0]
    141e:	b2d2      	uxtb	r2, r2
    1420:	211f      	movs	r1, #31
    1422:	438a      	bics	r2, r1
    1424:	b2d2      	uxtb	r2, r2
    1426:	701a      	strb	r2, [r3, #0]
    1428:	4b28      	ldr	r3, [pc, #160]	; (14cc <SerialCom_Init+0x1a0>)
    142a:	222e      	movs	r2, #46	; 0x2e
    142c:	705a      	strb	r2, [r3, #1]
/home/marcelo/Documentos/GER/SDP/SDP-2016/KDS/SDP-2016/Debug/../Generated_Code/SerialCom.c:215
  UART0_PDD_SetOversamplingRatio(UART0_BASE_PTR, 3U);
    142e:	4b27      	ldr	r3, [pc, #156]	; (14cc <SerialCom_Init+0x1a0>)
    1430:	4a26      	ldr	r2, [pc, #152]	; (14cc <SerialCom_Init+0x1a0>)
    1432:	7a92      	ldrb	r2, [r2, #10]
    1434:	b2d2      	uxtb	r2, r2
    1436:	b2d2      	uxtb	r2, r2
    1438:	211f      	movs	r1, #31
    143a:	438a      	bics	r2, r1
    143c:	b2d2      	uxtb	r2, r2
    143e:	2103      	movs	r1, #3
    1440:	430a      	orrs	r2, r1
    1442:	b2d2      	uxtb	r2, r2
    1444:	b2d2      	uxtb	r2, r2
    1446:	729a      	strb	r2, [r3, #10]
/home/marcelo/Documentos/GER/SDP/SDP-2016/KDS/SDP-2016/Debug/../Generated_Code/SerialCom.c:216
  UART0_PDD_EnableSamplingOnBothEdges(UART0_BASE_PTR, PDD_ENABLE);
    1448:	4b20      	ldr	r3, [pc, #128]	; (14cc <SerialCom_Init+0x1a0>)
    144a:	4a20      	ldr	r2, [pc, #128]	; (14cc <SerialCom_Init+0x1a0>)
    144c:	7ad2      	ldrb	r2, [r2, #11]
    144e:	b2d2      	uxtb	r2, r2
    1450:	b2d2      	uxtb	r2, r2
    1452:	2102      	movs	r1, #2
    1454:	430a      	orrs	r2, r1
    1456:	b2d2      	uxtb	r2, r2
    1458:	b2d2      	uxtb	r2, r2
    145a:	72da      	strb	r2, [r3, #11]
/home/marcelo/Documentos/GER/SDP/SDP-2016/KDS/SDP-2016/Debug/../Generated_Code/SerialCom.c:217
  UART0_PDD_EnableTransmitter(UART0_BASE_PTR, PDD_ENABLE); /* Enable transmitter */
    145c:	4b1b      	ldr	r3, [pc, #108]	; (14cc <SerialCom_Init+0x1a0>)
    145e:	4a1b      	ldr	r2, [pc, #108]	; (14cc <SerialCom_Init+0x1a0>)
    1460:	78d2      	ldrb	r2, [r2, #3]
    1462:	b2d2      	uxtb	r2, r2
    1464:	b2d2      	uxtb	r2, r2
    1466:	2108      	movs	r1, #8
    1468:	430a      	orrs	r2, r1
    146a:	b2d2      	uxtb	r2, r2
    146c:	b2d2      	uxtb	r2, r2
    146e:	70da      	strb	r2, [r3, #3]
/home/marcelo/Documentos/GER/SDP/SDP-2016/KDS/SDP-2016/Debug/../Generated_Code/SerialCom.c:218
  UART0_PDD_EnableReceiver(UART0_BASE_PTR, PDD_ENABLE); /* Enable receiver */
    1470:	4b16      	ldr	r3, [pc, #88]	; (14cc <SerialCom_Init+0x1a0>)
    1472:	4a16      	ldr	r2, [pc, #88]	; (14cc <SerialCom_Init+0x1a0>)
    1474:	78d2      	ldrb	r2, [r2, #3]
    1476:	b2d2      	uxtb	r2, r2
    1478:	b2d2      	uxtb	r2, r2
    147a:	2104      	movs	r1, #4
    147c:	430a      	orrs	r2, r1
    147e:	b2d2      	uxtb	r2, r2
    1480:	b2d2      	uxtb	r2, r2
    1482:	70da      	strb	r2, [r3, #3]
/home/marcelo/Documentos/GER/SDP/SDP-2016/KDS/SDP-2016/Debug/../Generated_Code/SerialCom.c:219
  UART0_PDD_EnableInterrupt(UART0_BASE_PTR, ( UART0_PDD_INTERRUPT_RECEIVER )); /* Enable interrupts */
    1484:	4b11      	ldr	r3, [pc, #68]	; (14cc <SerialCom_Init+0x1a0>)
    1486:	4a11      	ldr	r2, [pc, #68]	; (14cc <SerialCom_Init+0x1a0>)
    1488:	78d2      	ldrb	r2, [r2, #3]
    148a:	b2d2      	uxtb	r2, r2
    148c:	2120      	movs	r1, #32
    148e:	430a      	orrs	r2, r1
    1490:	b2d2      	uxtb	r2, r2
    1492:	70da      	strb	r2, [r3, #3]
    1494:	4b0d      	ldr	r3, [pc, #52]	; (14cc <SerialCom_Init+0x1a0>)
    1496:	4a0d      	ldr	r2, [pc, #52]	; (14cc <SerialCom_Init+0x1a0>)
    1498:	7992      	ldrb	r2, [r2, #6]
    149a:	b2d2      	uxtb	r2, r2
    149c:	719a      	strb	r2, [r3, #6]
/home/marcelo/Documentos/GER/SDP/SDP-2016/KDS/SDP-2016/Debug/../Generated_Code/SerialCom.c:221
  /* Registration of the device structure */
  PE_LDD_RegisterDeviceStructure(PE_LDD_COMPONENT_SerialCom_ID,DeviceDataPrv);
    149e:	4b0e      	ldr	r3, [pc, #56]	; (14d8 <SerialCom_Init+0x1ac>)
    14a0:	68fa      	ldr	r2, [r7, #12]
    14a2:	619a      	str	r2, [r3, #24]
/home/marcelo/Documentos/GER/SDP/SDP-2016/KDS/SDP-2016/Debug/../Generated_Code/SerialCom.c:222
  return ((LDD_TDeviceData *)DeviceDataPrv);
    14a4:	68fb      	ldr	r3, [r7, #12]
/home/marcelo/Documentos/GER/SDP/SDP-2016/KDS/SDP-2016/Debug/../Generated_Code/SerialCom.c:223
}
    14a6:	1c18      	adds	r0, r3, #0
    14a8:	46bd      	mov	sp, r7
    14aa:	b004      	add	sp, #16
    14ac:	bd80      	pop	{r7, pc}
    14ae:	46c0      	nop			; (mov r8, r8)
    14b0:	1ffff0c4 	.word	0x1ffff0c4
    14b4:	1ffff0dc 	.word	0x1ffff0dc
    14b8:	40047000 	.word	0x40047000
    14bc:	00001034 	.word	0x00001034
    14c0:	40049000 	.word	0x40049000
    14c4:	fefff8ff 	.word	0xfefff8ff
    14c8:	e000e100 	.word	0xe000e100
    14cc:	4006a000 	.word	0x4006a000
    14d0:	00001004 	.word	0x00001004
    14d4:	f3ffffff 	.word	0xf3ffffff
    14d8:	1ffff0a8 	.word	0x1ffff0a8

000014dc <SerialCom_SendBlock>:
SerialCom_SendBlock():
/home/marcelo/Documentos/GER/SDP/SDP-2016/KDS/SDP-2016/Debug/../Generated_Code/SerialCom.c:330
**                           ERR_BUSY - The previous transmit request is
**                           pending.
*/
/* ===================================================================*/
LDD_TError SerialCom_SendBlock(LDD_TDeviceData *DeviceDataPtr, LDD_TData *BufferPtr, uint16_t Size)
{
    14dc:	b580      	push	{r7, lr}
    14de:	b086      	sub	sp, #24
    14e0:	af00      	add	r7, sp, #0
    14e2:	60f8      	str	r0, [r7, #12]
    14e4:	60b9      	str	r1, [r7, #8]
    14e6:	1dbb      	adds	r3, r7, #6
    14e8:	801a      	strh	r2, [r3, #0]
/home/marcelo/Documentos/GER/SDP/SDP-2016/KDS/SDP-2016/Debug/../Generated_Code/SerialCom.c:331
  SerialCom_TDeviceDataPtr DeviceDataPrv = (SerialCom_TDeviceDataPtr)DeviceDataPtr;
    14ea:	68fb      	ldr	r3, [r7, #12]
    14ec:	617b      	str	r3, [r7, #20]
/home/marcelo/Documentos/GER/SDP/SDP-2016/KDS/SDP-2016/Debug/../Generated_Code/SerialCom.c:333

  if (Size == 0U) {                    /* Is the parameter Size within an expected range? */
    14ee:	1dbb      	adds	r3, r7, #6
    14f0:	881b      	ldrh	r3, [r3, #0]
    14f2:	2b00      	cmp	r3, #0
    14f4:	d101      	bne.n	14fa <SerialCom_SendBlock+0x1e>
/home/marcelo/Documentos/GER/SDP/SDP-2016/KDS/SDP-2016/Debug/../Generated_Code/SerialCom.c:334
    return ERR_PARAM_SIZE;             /* If no then error */
    14f6:	2384      	movs	r3, #132	; 0x84
    14f8:	e048      	b.n	158c <SerialCom_SendBlock+0xb0>
/home/marcelo/Documentos/GER/SDP/SDP-2016/KDS/SDP-2016/Debug/../Generated_Code/SerialCom.c:336
  }
  if (DeviceDataPrv->OutDataNumReq != 0x00U) { /* Is the previous transmit operation pending? */
    14fa:	697b      	ldr	r3, [r7, #20]
    14fc:	8a1b      	ldrh	r3, [r3, #16]
    14fe:	2b00      	cmp	r3, #0
    1500:	d001      	beq.n	1506 <SerialCom_SendBlock+0x2a>
/home/marcelo/Documentos/GER/SDP/SDP-2016/KDS/SDP-2016/Debug/../Generated_Code/SerialCom.c:337
    return ERR_BUSY;                   /* If yes then error */
    1502:	2308      	movs	r3, #8
    1504:	e042      	b.n	158c <SerialCom_SendBlock+0xb0>
/home/marcelo/Documentos/GER/SDP/SDP-2016/KDS/SDP-2016/Debug/../Generated_Code/SerialCom.c:340
  }
  /* {Default RTOS Adapter} Critical section begin, general PE function is used */
  EnterCritical();
    1506:	1c3b      	adds	r3, r7, #0
    1508:	3313      	adds	r3, #19
    150a:	f3ef 8010 	mrs	r0, PRIMASK
    150e:	b672      	cpsid	i
    1510:	7018      	strb	r0, [r3, #0]
    1512:	4b20      	ldr	r3, [pc, #128]	; (1594 <SerialCom_SendBlock+0xb8>)
    1514:	781b      	ldrb	r3, [r3, #0]
    1516:	b2db      	uxtb	r3, r3
    1518:	3301      	adds	r3, #1
    151a:	b2db      	uxtb	r3, r3
    151c:	4a1d      	ldr	r2, [pc, #116]	; (1594 <SerialCom_SendBlock+0xb8>)
    151e:	1c19      	adds	r1, r3, #0
    1520:	7011      	strb	r1, [r2, #0]
    1522:	2b01      	cmp	r3, #1
    1524:	d104      	bne.n	1530 <SerialCom_SendBlock+0x54>
/home/marcelo/Documentos/GER/SDP/SDP-2016/KDS/SDP-2016/Debug/../Generated_Code/SerialCom.c:340 (discriminator 1)
    1526:	1c3b      	adds	r3, r7, #0
    1528:	3313      	adds	r3, #19
    152a:	781a      	ldrb	r2, [r3, #0]
    152c:	4b1a      	ldr	r3, [pc, #104]	; (1598 <SerialCom_SendBlock+0xbc>)
    152e:	701a      	strb	r2, [r3, #0]
/home/marcelo/Documentos/GER/SDP/SDP-2016/KDS/SDP-2016/Debug/../Generated_Code/SerialCom.c:341
  DeviceDataPrv->OutDataPtr = (uint8_t*)BufferPtr; /* Set a pointer to the output data. */
    1530:	697b      	ldr	r3, [r7, #20]
    1532:	68ba      	ldr	r2, [r7, #8]
    1534:	60da      	str	r2, [r3, #12]
/home/marcelo/Documentos/GER/SDP/SDP-2016/KDS/SDP-2016/Debug/../Generated_Code/SerialCom.c:342
  DeviceDataPrv->OutDataNumReq = Size; /* Set the counter of characters to be sent. */
    1536:	697b      	ldr	r3, [r7, #20]
    1538:	1dba      	adds	r2, r7, #6
    153a:	8812      	ldrh	r2, [r2, #0]
    153c:	821a      	strh	r2, [r3, #16]
/home/marcelo/Documentos/GER/SDP/SDP-2016/KDS/SDP-2016/Debug/../Generated_Code/SerialCom.c:343
  DeviceDataPrv->OutSentDataNum = 0x00U; /* Clear the counter of sent characters. */
    153e:	697b      	ldr	r3, [r7, #20]
    1540:	2200      	movs	r2, #0
    1542:	815a      	strh	r2, [r3, #10]
/home/marcelo/Documentos/GER/SDP/SDP-2016/KDS/SDP-2016/Debug/../Generated_Code/SerialCom.c:344
  DeviceDataPrv->SerFlag |= ENABLED_TX_INT; /* Set the flag ENABLED_TX_INT */
    1544:	697b      	ldr	r3, [r7, #20]
    1546:	881b      	ldrh	r3, [r3, #0]
    1548:	2201      	movs	r2, #1
    154a:	4313      	orrs	r3, r2
    154c:	b29a      	uxth	r2, r3
    154e:	697b      	ldr	r3, [r7, #20]
    1550:	801a      	strh	r2, [r3, #0]
/home/marcelo/Documentos/GER/SDP/SDP-2016/KDS/SDP-2016/Debug/../Generated_Code/SerialCom.c:345
  UART0_PDD_EnableInterrupt(UART0_BASE_PTR, UART0_PDD_INTERRUPT_TRANSMITTER); /* Enable TX interrupt */
    1552:	4b12      	ldr	r3, [pc, #72]	; (159c <SerialCom_SendBlock+0xc0>)
    1554:	4a11      	ldr	r2, [pc, #68]	; (159c <SerialCom_SendBlock+0xc0>)
    1556:	78d2      	ldrb	r2, [r2, #3]
    1558:	b2d2      	uxtb	r2, r2
    155a:	2180      	movs	r1, #128	; 0x80
    155c:	4249      	negs	r1, r1
    155e:	430a      	orrs	r2, r1
    1560:	b2d2      	uxtb	r2, r2
    1562:	70da      	strb	r2, [r3, #3]
    1564:	4b0d      	ldr	r3, [pc, #52]	; (159c <SerialCom_SendBlock+0xc0>)
    1566:	4a0d      	ldr	r2, [pc, #52]	; (159c <SerialCom_SendBlock+0xc0>)
    1568:	7992      	ldrb	r2, [r2, #6]
    156a:	b2d2      	uxtb	r2, r2
    156c:	719a      	strb	r2, [r3, #6]
/home/marcelo/Documentos/GER/SDP/SDP-2016/KDS/SDP-2016/Debug/../Generated_Code/SerialCom.c:347
  /* {Default RTOS Adapter} Critical section end, general PE function is used */
  ExitCritical();
    156e:	4b09      	ldr	r3, [pc, #36]	; (1594 <SerialCom_SendBlock+0xb8>)
    1570:	781b      	ldrb	r3, [r3, #0]
    1572:	b2db      	uxtb	r3, r3
    1574:	3b01      	subs	r3, #1
    1576:	b2db      	uxtb	r3, r3
    1578:	4a06      	ldr	r2, [pc, #24]	; (1594 <SerialCom_SendBlock+0xb8>)
    157a:	1c19      	adds	r1, r3, #0
    157c:	7011      	strb	r1, [r2, #0]
    157e:	2b00      	cmp	r3, #0
    1580:	d103      	bne.n	158a <SerialCom_SendBlock+0xae>
/home/marcelo/Documentos/GER/SDP/SDP-2016/KDS/SDP-2016/Debug/../Generated_Code/SerialCom.c:347 (discriminator 1)
    1582:	4b05      	ldr	r3, [pc, #20]	; (1598 <SerialCom_SendBlock+0xbc>)
    1584:	7818      	ldrb	r0, [r3, #0]
    1586:	f380 8810 	msr	PRIMASK, r0
/home/marcelo/Documentos/GER/SDP/SDP-2016/KDS/SDP-2016/Debug/../Generated_Code/SerialCom.c:348
  return ERR_OK;                       /* OK */
    158a:	2300      	movs	r3, #0
/home/marcelo/Documentos/GER/SDP/SDP-2016/KDS/SDP-2016/Debug/../Generated_Code/SerialCom.c:349
}
    158c:	1c18      	adds	r0, r3, #0
    158e:	46bd      	mov	sp, r7
    1590:	b006      	add	sp, #24
    1592:	bd80      	pop	{r7, pc}
    1594:	1ffff09c 	.word	0x1ffff09c
    1598:	1ffff20c 	.word	0x1ffff20c
    159c:	4006a000 	.word	0x4006a000

000015a0 <InterruptRx>:
InterruptRx():
/home/marcelo/Documentos/GER/SDP/SDP-2016/KDS/SDP-2016/Debug/../Generated_Code/SerialCom.c:362
**         peripheral(s) and eventually invokes the bean's event(s).
**         This method is internal. It is used by Processor Expert only.
** ===================================================================
*/
static void InterruptRx(SerialCom_TDeviceDataPtr DeviceDataPrv)
{
    15a0:	b590      	push	{r4, r7, lr}
    15a2:	b083      	sub	sp, #12
    15a4:	af00      	add	r7, sp, #0
    15a6:	6078      	str	r0, [r7, #4]
/home/marcelo/Documentos/GER/SDP/SDP-2016/KDS/SDP-2016/Debug/../Generated_Code/SerialCom.c:365
  register uint16_t Data;              /* Temporary variable for data */

  Data = (uint16_t)UART0_PDD_GetChar8(UART0_BASE_PTR); /* Read an 8-bit character from the receiver */
    15a8:	4b12      	ldr	r3, [pc, #72]	; (15f4 <InterruptRx+0x54>)
    15aa:	79db      	ldrb	r3, [r3, #7]
    15ac:	b2db      	uxtb	r3, r3
    15ae:	1c1c      	adds	r4, r3, #0
/home/marcelo/Documentos/GER/SDP/SDP-2016/KDS/SDP-2016/Debug/../Generated_Code/SerialCom.c:366
  if (DeviceDataPrv->InpDataNumReq != 0x00U) { /* Is the receive block operation pending? */
    15b0:	687b      	ldr	r3, [r7, #4]
    15b2:	891b      	ldrh	r3, [r3, #8]
    15b4:	2b00      	cmp	r3, #0
    15b6:	d01a      	beq.n	15ee <InterruptRx+0x4e>
/home/marcelo/Documentos/GER/SDP/SDP-2016/KDS/SDP-2016/Debug/../Generated_Code/SerialCom.c:367
    *(DeviceDataPrv->InpDataPtr++) = (uint8_t)Data; /* Put an 8-bit character to the receive buffer */
    15b8:	687b      	ldr	r3, [r7, #4]
    15ba:	685b      	ldr	r3, [r3, #4]
    15bc:	1c59      	adds	r1, r3, #1
    15be:	687a      	ldr	r2, [r7, #4]
    15c0:	6051      	str	r1, [r2, #4]
    15c2:	b2e2      	uxtb	r2, r4
    15c4:	701a      	strb	r2, [r3, #0]
/home/marcelo/Documentos/GER/SDP/SDP-2016/KDS/SDP-2016/Debug/../Generated_Code/SerialCom.c:368
    DeviceDataPrv->InpRecvDataNum++;   /* Increment received char. counter */
    15c6:	687b      	ldr	r3, [r7, #4]
    15c8:	885b      	ldrh	r3, [r3, #2]
    15ca:	3301      	adds	r3, #1
    15cc:	b29a      	uxth	r2, r3
    15ce:	687b      	ldr	r3, [r7, #4]
    15d0:	805a      	strh	r2, [r3, #2]
/home/marcelo/Documentos/GER/SDP/SDP-2016/KDS/SDP-2016/Debug/../Generated_Code/SerialCom.c:369
    if (DeviceDataPrv->InpRecvDataNum == DeviceDataPrv->InpDataNumReq) { /* Is the requested number of characters received? */
    15d2:	687b      	ldr	r3, [r7, #4]
    15d4:	885a      	ldrh	r2, [r3, #2]
    15d6:	687b      	ldr	r3, [r7, #4]
    15d8:	891b      	ldrh	r3, [r3, #8]
    15da:	429a      	cmp	r2, r3
    15dc:	d107      	bne.n	15ee <InterruptRx+0x4e>
/home/marcelo/Documentos/GER/SDP/SDP-2016/KDS/SDP-2016/Debug/../Generated_Code/SerialCom.c:370
      DeviceDataPrv->InpDataNumReq = 0x00U; /* If yes then clear number of requested characters to be received. */
    15de:	687b      	ldr	r3, [r7, #4]
    15e0:	2200      	movs	r2, #0
    15e2:	811a      	strh	r2, [r3, #8]
/home/marcelo/Documentos/GER/SDP/SDP-2016/KDS/SDP-2016/Debug/../Generated_Code/SerialCom.c:371
      SerialCom_OnBlockReceived(DeviceDataPrv->UserDataPtr);
    15e4:	687b      	ldr	r3, [r7, #4]
    15e6:	695b      	ldr	r3, [r3, #20]
    15e8:	1c18      	adds	r0, r3, #0
    15ea:	f7ff f91f 	bl	82c <SerialCom_OnBlockReceived>
/home/marcelo/Documentos/GER/SDP/SDP-2016/KDS/SDP-2016/Debug/../Generated_Code/SerialCom.c:374
    }
  }
}
    15ee:	46bd      	mov	sp, r7
    15f0:	b003      	add	sp, #12
    15f2:	bd90      	pop	{r4, r7, pc}
    15f4:	4006a000 	.word	0x4006a000

000015f8 <InterruptTx>:
InterruptTx():
/home/marcelo/Documentos/GER/SDP/SDP-2016/KDS/SDP-2016/Debug/../Generated_Code/SerialCom.c:387
**         peripheral(s) and eventually invokes the bean's event(s).
**         This method is internal. It is used by Processor Expert only.
** ===================================================================
*/
static void InterruptTx(SerialCom_TDeviceDataPtr DeviceDataPrv)
{
    15f8:	b580      	push	{r7, lr}
    15fa:	b082      	sub	sp, #8
    15fc:	af00      	add	r7, sp, #0
    15fe:	6078      	str	r0, [r7, #4]
/home/marcelo/Documentos/GER/SDP/SDP-2016/KDS/SDP-2016/Debug/../Generated_Code/SerialCom.c:389

  if (DeviceDataPrv->OutSentDataNum < DeviceDataPrv->OutDataNumReq) { /* Is number of sent characters less than the number of requested incoming characters? */
    1600:	687b      	ldr	r3, [r7, #4]
    1602:	895a      	ldrh	r2, [r3, #10]
    1604:	687b      	ldr	r3, [r7, #4]
    1606:	8a1b      	ldrh	r3, [r3, #16]
    1608:	429a      	cmp	r2, r3
    160a:	d21c      	bcs.n	1646 <InterruptTx+0x4e>
/home/marcelo/Documentos/GER/SDP/SDP-2016/KDS/SDP-2016/Debug/../Generated_Code/SerialCom.c:390
    UART0_PDD_PutChar8(UART0_BASE_PTR, *(DeviceDataPrv->OutDataPtr++)); /* Put a 8-bit character to the transmit register */
    160c:	4919      	ldr	r1, [pc, #100]	; (1674 <InterruptTx+0x7c>)
    160e:	687b      	ldr	r3, [r7, #4]
    1610:	68db      	ldr	r3, [r3, #12]
    1612:	1c58      	adds	r0, r3, #1
    1614:	687a      	ldr	r2, [r7, #4]
    1616:	60d0      	str	r0, [r2, #12]
    1618:	781b      	ldrb	r3, [r3, #0]
    161a:	71cb      	strb	r3, [r1, #7]
/home/marcelo/Documentos/GER/SDP/SDP-2016/KDS/SDP-2016/Debug/../Generated_Code/SerialCom.c:391
    DeviceDataPrv->OutSentDataNum++;   /* Increment the counter of sent characters. */
    161c:	687b      	ldr	r3, [r7, #4]
    161e:	895b      	ldrh	r3, [r3, #10]
    1620:	3301      	adds	r3, #1
    1622:	b29a      	uxth	r2, r3
    1624:	687b      	ldr	r3, [r7, #4]
    1626:	815a      	strh	r2, [r3, #10]
/home/marcelo/Documentos/GER/SDP/SDP-2016/KDS/SDP-2016/Debug/../Generated_Code/SerialCom.c:392
    if (DeviceDataPrv->OutSentDataNum == DeviceDataPrv->OutDataNumReq) {
    1628:	687b      	ldr	r3, [r7, #4]
    162a:	895a      	ldrh	r2, [r3, #10]
    162c:	687b      	ldr	r3, [r7, #4]
    162e:	8a1b      	ldrh	r3, [r3, #16]
    1630:	429a      	cmp	r2, r3
    1632:	d11c      	bne.n	166e <InterruptTx+0x76>
/home/marcelo/Documentos/GER/SDP/SDP-2016/KDS/SDP-2016/Debug/../Generated_Code/SerialCom.c:393
      DeviceDataPrv->OutDataNumReq = 0x00U; /* Clear the counter of characters to be send by SendBlock() */
    1634:	687b      	ldr	r3, [r7, #4]
    1636:	2200      	movs	r2, #0
    1638:	821a      	strh	r2, [r3, #16]
/home/marcelo/Documentos/GER/SDP/SDP-2016/KDS/SDP-2016/Debug/../Generated_Code/SerialCom.c:394
      SerialCom_OnBlockSent(DeviceDataPrv->UserDataPtr);
    163a:	687b      	ldr	r3, [r7, #4]
    163c:	695b      	ldr	r3, [r3, #20]
    163e:	1c18      	adds	r0, r3, #0
    1640:	f7ff f8fc 	bl	83c <SerialCom_OnBlockSent>
    1644:	e013      	b.n	166e <InterruptTx+0x76>
/home/marcelo/Documentos/GER/SDP/SDP-2016/KDS/SDP-2016/Debug/../Generated_Code/SerialCom.c:397
    }
  } else {
    UART0_PDD_DisableInterrupt(UART0_BASE_PTR, UART0_PDD_INTERRUPT_TRANSMITTER); /* Disable TX interrupt */
    1646:	4b0b      	ldr	r3, [pc, #44]	; (1674 <InterruptTx+0x7c>)
    1648:	4a0a      	ldr	r2, [pc, #40]	; (1674 <InterruptTx+0x7c>)
    164a:	78d2      	ldrb	r2, [r2, #3]
    164c:	b2d1      	uxtb	r1, r2
    164e:	227f      	movs	r2, #127	; 0x7f
    1650:	400a      	ands	r2, r1
    1652:	b2d2      	uxtb	r2, r2
    1654:	70da      	strb	r2, [r3, #3]
    1656:	4b07      	ldr	r3, [pc, #28]	; (1674 <InterruptTx+0x7c>)
    1658:	4a06      	ldr	r2, [pc, #24]	; (1674 <InterruptTx+0x7c>)
    165a:	7992      	ldrb	r2, [r2, #6]
    165c:	b2d2      	uxtb	r2, r2
    165e:	719a      	strb	r2, [r3, #6]
/home/marcelo/Documentos/GER/SDP/SDP-2016/KDS/SDP-2016/Debug/../Generated_Code/SerialCom.c:398
    DeviceDataPrv->SerFlag &= (uint16_t)(~(uint16_t)ENABLED_TX_INT); /* Clear the flag ENABLED_TX_INT */
    1660:	687b      	ldr	r3, [r7, #4]
    1662:	881b      	ldrh	r3, [r3, #0]
    1664:	2201      	movs	r2, #1
    1666:	4393      	bics	r3, r2
    1668:	b29a      	uxth	r2, r3
    166a:	687b      	ldr	r3, [r7, #4]
    166c:	801a      	strh	r2, [r3, #0]
/home/marcelo/Documentos/GER/SDP/SDP-2016/KDS/SDP-2016/Debug/../Generated_Code/SerialCom.c:400
  }
}
    166e:	46bd      	mov	sp, r7
    1670:	b002      	add	sp, #8
    1672:	bd80      	pop	{r7, pc}
    1674:	4006a000 	.word	0x4006a000

00001678 <SerialCom_Interrupt>:
SerialCom_Interrupt():
/home/marcelo/Documentos/GER/SDP/SDP-2016/KDS/SDP-2016/Debug/../Generated_Code/SerialCom.c:413
**         interrupt. Calls InterruptTX/InterruptRX methods.
**         This method is internal. It is used by Processor Expert only.
** ===================================================================
*/
PE_ISR(SerialCom_Interrupt)
{
    1678:	b590      	push	{r4, r7, lr}
    167a:	b083      	sub	sp, #12
    167c:	af00      	add	r7, sp, #0
/home/marcelo/Documentos/GER/SDP/SDP-2016/KDS/SDP-2016/Debug/../Generated_Code/SerialCom.c:415
  /* {Default RTOS Adapter} ISR parameter is passed through the global variable */
  SerialCom_TDeviceDataPtr DeviceDataPrv = INT_UART0__DEFAULT_RTOS_ISRPARAM;
    167e:	4b15      	ldr	r3, [pc, #84]	; (16d4 <SerialCom_Interrupt+0x5c>)
    1680:	681b      	ldr	r3, [r3, #0]
    1682:	607b      	str	r3, [r7, #4]
/home/marcelo/Documentos/GER/SDP/SDP-2016/KDS/SDP-2016/Debug/../Generated_Code/SerialCom.c:416
  register uint32_t StatReg = UART0_PDD_ReadInterruptStatusReg(UART0_BASE_PTR); /* Read status register */
    1684:	4b14      	ldr	r3, [pc, #80]	; (16d8 <SerialCom_Interrupt+0x60>)
    1686:	791b      	ldrb	r3, [r3, #4]
    1688:	b2db      	uxtb	r3, r3
    168a:	1c1c      	adds	r4, r3, #0
/home/marcelo/Documentos/GER/SDP/SDP-2016/KDS/SDP-2016/Debug/../Generated_Code/SerialCom.c:418

  if (StatReg & (UART0_S1_NF_MASK | UART0_S1_OR_MASK | UART0_S1_FE_MASK | UART0_S1_PF_MASK)) { /* Is any error flag set? */
    168c:	230f      	movs	r3, #15
    168e:	4023      	ands	r3, r4
    1690:	d009      	beq.n	16a6 <SerialCom_Interrupt+0x2e>
/home/marcelo/Documentos/GER/SDP/SDP-2016/KDS/SDP-2016/Debug/../Generated_Code/SerialCom.c:419
    UART0_PDD_ClearInterruptFlags(UART0_BASE_PTR, (UART0_S1_NF_MASK | UART0_S1_OR_MASK | UART0_S1_FE_MASK | UART0_S1_PF_MASK));
    1692:	4b11      	ldr	r3, [pc, #68]	; (16d8 <SerialCom_Interrupt+0x60>)
    1694:	220f      	movs	r2, #15
    1696:	711a      	strb	r2, [r3, #4]
/home/marcelo/Documentos/GER/SDP/SDP-2016/KDS/SDP-2016/Debug/../Generated_Code/SerialCom.c:420
    (void)UART0_PDD_GetChar8(UART0_BASE_PTR); /* Dummy read 8-bit character from receiver */
    1698:	4b0f      	ldr	r3, [pc, #60]	; (16d8 <SerialCom_Interrupt+0x60>)
    169a:	79db      	ldrb	r3, [r3, #7]
/home/marcelo/Documentos/GER/SDP/SDP-2016/KDS/SDP-2016/Debug/../Generated_Code/SerialCom.c:421
    StatReg &= (uint32_t)(~(uint32_t)UART0_S1_RDRF_MASK); /* Clear the receive data flag to discard the errorneous data */
    169c:	2320      	movs	r3, #32
    169e:	1c22      	adds	r2, r4, #0
    16a0:	439a      	bics	r2, r3
    16a2:	1c13      	adds	r3, r2, #0
    16a4:	1c1c      	adds	r4, r3, #0
/home/marcelo/Documentos/GER/SDP/SDP-2016/KDS/SDP-2016/Debug/../Generated_Code/SerialCom.c:423
  }
  if (StatReg & UART0_S1_RDRF_MASK) {  /* Is the receiver's interrupt flag set? */
    16a6:	2320      	movs	r3, #32
    16a8:	4023      	ands	r3, r4
    16aa:	d003      	beq.n	16b4 <SerialCom_Interrupt+0x3c>
/home/marcelo/Documentos/GER/SDP/SDP-2016/KDS/SDP-2016/Debug/../Generated_Code/SerialCom.c:424
    InterruptRx(DeviceDataPrv);        /* If yes, then invoke the internal service routine. This routine is inlined. */
    16ac:	687b      	ldr	r3, [r7, #4]
    16ae:	1c18      	adds	r0, r3, #0
    16b0:	f7ff ff76 	bl	15a0 <InterruptRx>
/home/marcelo/Documentos/GER/SDP/SDP-2016/KDS/SDP-2016/Debug/../Generated_Code/SerialCom.c:426
  }
  if (DeviceDataPrv->SerFlag & ENABLED_TX_INT) { /* Is the transmitter interrupt enabled? */
    16b4:	687b      	ldr	r3, [r7, #4]
    16b6:	881b      	ldrh	r3, [r3, #0]
    16b8:	1c1a      	adds	r2, r3, #0
    16ba:	2301      	movs	r3, #1
    16bc:	4013      	ands	r3, r2
    16be:	d006      	beq.n	16ce <SerialCom_Interrupt+0x56>
/home/marcelo/Documentos/GER/SDP/SDP-2016/KDS/SDP-2016/Debug/../Generated_Code/SerialCom.c:427
    if (StatReg & UART0_S1_TDRE_MASK) { /* Is the transmitter empty? */
    16c0:	2380      	movs	r3, #128	; 0x80
    16c2:	4023      	ands	r3, r4
    16c4:	d003      	beq.n	16ce <SerialCom_Interrupt+0x56>
/home/marcelo/Documentos/GER/SDP/SDP-2016/KDS/SDP-2016/Debug/../Generated_Code/SerialCom.c:428
      InterruptTx(DeviceDataPrv);      /* If yes, then invoke the internal service routine. This routine is inlined. */
    16c6:	687b      	ldr	r3, [r7, #4]
    16c8:	1c18      	adds	r0, r3, #0
    16ca:	f7ff ff95 	bl	15f8 <InterruptTx>
/home/marcelo/Documentos/GER/SDP/SDP-2016/KDS/SDP-2016/Debug/../Generated_Code/SerialCom.c:431
    }
  }
}
    16ce:	46bd      	mov	sp, r7
    16d0:	b003      	add	sp, #12
    16d2:	bd90      	pop	{r4, r7, pc}
    16d4:	1ffff0dc 	.word	0x1ffff0dc
    16d8:	4006a000 	.word	0x4006a000

000016dc <TU1_Init>:
TU1_Init():
/home/marcelo/Documentos/GER/SDP/Projeto/versão antiga/SDP-2016/Debug/../Generated_Code/TU1.c:153
    16dc:	b580      	push	{r7, lr}
    16de:	b084      	sub	sp, #16
    16e0:	af00      	add	r7, sp, #0
    16e2:	6078      	str	r0, [r7, #4]
/home/marcelo/Documentos/GER/SDP/Projeto/versão antiga/SDP-2016/Debug/../Generated_Code/TU1.c:156
    16e4:	4b2a      	ldr	r3, [pc, #168]	; (1790 <TU1_Init+0xb4>)
    16e6:	689b      	ldr	r3, [r3, #8]
    16e8:	2b00      	cmp	r3, #0
    16ea:	d140      	bne.n	176e <TU1_Init+0x92>
/home/marcelo/Documentos/GER/SDP/Projeto/versão antiga/SDP-2016/Debug/../Generated_Code/TU1.c:159
    16ec:	4b29      	ldr	r3, [pc, #164]	; (1794 <TU1_Init+0xb8>)
    16ee:	60fb      	str	r3, [r7, #12]
/home/marcelo/Documentos/GER/SDP/Projeto/versão antiga/SDP-2016/Debug/../Generated_Code/TU1.c:160
    16f0:	68fb      	ldr	r3, [r7, #12]
    16f2:	687a      	ldr	r2, [r7, #4]
    16f4:	605a      	str	r2, [r3, #4]
/home/marcelo/Documentos/GER/SDP/Projeto/versão antiga/SDP-2016/Debug/../Generated_Code/TU1.c:161
    16f6:	68fb      	ldr	r3, [r7, #12]
    16f8:	2201      	movs	r2, #1
    16fa:	701a      	strb	r2, [r3, #0]
/home/marcelo/Documentos/GER/SDP/Projeto/versão antiga/SDP-2016/Debug/../Generated_Code/TU1.c:172
    16fc:	4b26      	ldr	r3, [pc, #152]	; (1798 <TU1_Init+0xbc>)
    16fe:	68fa      	ldr	r2, [r7, #12]
    1700:	601a      	str	r2, [r3, #0]
/home/marcelo/Documentos/GER/SDP/Projeto/versão antiga/SDP-2016/Debug/../Generated_Code/TU1.c:174
    1702:	4a26      	ldr	r2, [pc, #152]	; (179c <TU1_Init+0xc0>)
    1704:	4925      	ldr	r1, [pc, #148]	; (179c <TU1_Init+0xc0>)
    1706:	4b26      	ldr	r3, [pc, #152]	; (17a0 <TU1_Init+0xc4>)
    1708:	58cb      	ldr	r3, [r1, r3]
    170a:	2180      	movs	r1, #128	; 0x80
    170c:	0409      	lsls	r1, r1, #16
    170e:	4319      	orrs	r1, r3
    1710:	4b23      	ldr	r3, [pc, #140]	; (17a0 <TU1_Init+0xc4>)
    1712:	50d1      	str	r1, [r2, r3]
/home/marcelo/Documentos/GER/SDP/Projeto/versão antiga/SDP-2016/Debug/../Generated_Code/TU1.c:176
    1714:	4b23      	ldr	r3, [pc, #140]	; (17a4 <TU1_Init+0xc8>)
    1716:	2200      	movs	r2, #0
    1718:	601a      	str	r2, [r3, #0]
/home/marcelo/Documentos/GER/SDP/Projeto/versão antiga/SDP-2016/Debug/../Generated_Code/TU1.c:178
    171a:	4a22      	ldr	r2, [pc, #136]	; (17a4 <TU1_Init+0xc8>)
    171c:	2384      	movs	r3, #132	; 0x84
    171e:	005b      	lsls	r3, r3, #1
    1720:	2100      	movs	r1, #0
    1722:	50d1      	str	r1, [r2, r3]
/home/marcelo/Documentos/GER/SDP/Projeto/versão antiga/SDP-2016/Debug/../Generated_Code/TU1.c:180
    1724:	4a1f      	ldr	r2, [pc, #124]	; (17a4 <TU1_Init+0xc8>)
    1726:	2386      	movs	r3, #134	; 0x86
    1728:	005b      	lsls	r3, r3, #1
    172a:	2101      	movs	r1, #1
    172c:	50d1      	str	r1, [r2, r3]
/home/marcelo/Documentos/GER/SDP/Projeto/versão antiga/SDP-2016/Debug/../Generated_Code/TU1.c:182
    172e:	4a1d      	ldr	r2, [pc, #116]	; (17a4 <TU1_Init+0xc8>)
    1730:	2380      	movs	r3, #128	; 0x80
    1732:	005b      	lsls	r3, r3, #1
    1734:	21d1      	movs	r1, #209	; 0xd1
    1736:	50d1      	str	r1, [r2, r3]
/home/marcelo/Documentos/GER/SDP/Projeto/versão antiga/SDP-2016/Debug/../Generated_Code/TU1.c:184
    1738:	4a1b      	ldr	r2, [pc, #108]	; (17a8 <TU1_Init+0xcc>)
    173a:	491b      	ldr	r1, [pc, #108]	; (17a8 <TU1_Init+0xcc>)
    173c:	23c5      	movs	r3, #197	; 0xc5
    173e:	009b      	lsls	r3, r3, #2
    1740:	58c9      	ldr	r1, [r1, r3]
    1742:	4b1a      	ldr	r3, [pc, #104]	; (17ac <TU1_Init+0xd0>)
    1744:	4019      	ands	r1, r3
    1746:	23c5      	movs	r3, #197	; 0xc5
    1748:	009b      	lsls	r3, r3, #2
    174a:	50d1      	str	r1, [r2, r3]
/home/marcelo/Documentos/GER/SDP/Projeto/versão antiga/SDP-2016/Debug/../Generated_Code/TU1.c:190
    174c:	4b16      	ldr	r3, [pc, #88]	; (17a8 <TU1_Init+0xcc>)
    174e:	4a16      	ldr	r2, [pc, #88]	; (17a8 <TU1_Init+0xcc>)
    1750:	6812      	ldr	r2, [r2, #0]
    1752:	2180      	movs	r1, #128	; 0x80
    1754:	03c9      	lsls	r1, r1, #15
    1756:	430a      	orrs	r2, r1
    1758:	601a      	str	r2, [r3, #0]
/home/marcelo/Documentos/GER/SDP/Projeto/versão antiga/SDP-2016/Debug/../Generated_Code/TU1.c:192
    175a:	4a12      	ldr	r2, [pc, #72]	; (17a4 <TU1_Init+0xc8>)
    175c:	2384      	movs	r3, #132	; 0x84
    175e:	005b      	lsls	r3, r3, #1
    1760:	2102      	movs	r1, #2
    1762:	50d1      	str	r1, [r2, r3]
/home/marcelo/Documentos/GER/SDP/Projeto/versão antiga/SDP-2016/Debug/../Generated_Code/TU1.c:194
    1764:	4b0a      	ldr	r3, [pc, #40]	; (1790 <TU1_Init+0xb4>)
    1766:	68fa      	ldr	r2, [r7, #12]
    1768:	609a      	str	r2, [r3, #8]
/home/marcelo/Documentos/GER/SDP/Projeto/versão antiga/SDP-2016/Debug/../Generated_Code/TU1.c:195
    176a:	68fb      	ldr	r3, [r7, #12]
    176c:	e00c      	b.n	1788 <TU1_Init+0xac>
/home/marcelo/Documentos/GER/SDP/Projeto/versão antiga/SDP-2016/Debug/../Generated_Code/TU1.c:165
    176e:	4b08      	ldr	r3, [pc, #32]	; (1790 <TU1_Init+0xb4>)
    1770:	689b      	ldr	r3, [r3, #8]
    1772:	60fb      	str	r3, [r7, #12]
/home/marcelo/Documentos/GER/SDP/Projeto/versão antiga/SDP-2016/Debug/../Generated_Code/TU1.c:166
    1774:	68fb      	ldr	r3, [r7, #12]
    1776:	687a      	ldr	r2, [r7, #4]
    1778:	605a      	str	r2, [r3, #4]
/home/marcelo/Documentos/GER/SDP/Projeto/versão antiga/SDP-2016/Debug/../Generated_Code/TU1.c:167
    177a:	68fb      	ldr	r3, [r7, #12]
    177c:	781b      	ldrb	r3, [r3, #0]
    177e:	3301      	adds	r3, #1
    1780:	b2da      	uxtb	r2, r3
    1782:	68fb      	ldr	r3, [r7, #12]
    1784:	701a      	strb	r2, [r3, #0]
/home/marcelo/Documentos/GER/SDP/Projeto/versão antiga/SDP-2016/Debug/../Generated_Code/TU1.c:168
    1786:	68fb      	ldr	r3, [r7, #12]
/home/marcelo/Documentos/GER/SDP/Projeto/versão antiga/SDP-2016/Debug/../Generated_Code/TU1.c:196
    1788:	1c18      	adds	r0, r3, #0
    178a:	46bd      	mov	sp, r7
    178c:	b004      	add	sp, #16
    178e:	bd80      	pop	{r7, pc}
    1790:	1ffff0a8 	.word	0x1ffff0a8
    1794:	1ffff0e0 	.word	0x1ffff0e0
    1798:	1ffff0e8 	.word	0x1ffff0e8
    179c:	40047000 	.word	0x40047000
    17a0:	0000103c 	.word	0x0000103c
    17a4:	40037000 	.word	0x40037000
    17a8:	e000e100 	.word	0xe000e100
    17ac:	ff3fffff 	.word	0xff3fffff

000017b0 <TU1_Enable>:
TU1_Enable():
/home/marcelo/Documentos/GER/SDP/Projeto/versão antiga/SDP-2016/Debug/../Generated_Code/TU1.c:218
    17b0:	b580      	push	{r7, lr}
    17b2:	b082      	sub	sp, #8
    17b4:	af00      	add	r7, sp, #0
    17b6:	6078      	str	r0, [r7, #4]
/home/marcelo/Documentos/GER/SDP/Projeto/versão antiga/SDP-2016/Debug/../Generated_Code/TU1.c:220
    17b8:	4a07      	ldr	r2, [pc, #28]	; (17d8 <TU1_Enable+0x28>)
    17ba:	4907      	ldr	r1, [pc, #28]	; (17d8 <TU1_Enable+0x28>)
    17bc:	2384      	movs	r3, #132	; 0x84
    17be:	005b      	lsls	r3, r3, #1
    17c0:	58cb      	ldr	r3, [r1, r3]
    17c2:	2101      	movs	r1, #1
    17c4:	4319      	orrs	r1, r3
    17c6:	2384      	movs	r3, #132	; 0x84
    17c8:	005b      	lsls	r3, r3, #1
    17ca:	50d1      	str	r1, [r2, r3]
/home/marcelo/Documentos/GER/SDP/Projeto/versão antiga/SDP-2016/Debug/../Generated_Code/TU1.c:221
    17cc:	2300      	movs	r3, #0
/home/marcelo/Documentos/GER/SDP/Projeto/versão antiga/SDP-2016/Debug/../Generated_Code/TU1.c:222
    17ce:	1c18      	adds	r0, r3, #0
    17d0:	46bd      	mov	sp, r7
    17d2:	b002      	add	sp, #8
    17d4:	bd80      	pop	{r7, pc}
    17d6:	46c0      	nop			; (mov r8, r8)
    17d8:	40037000 	.word	0x40037000

000017dc <TU1_Disable>:
TU1_Disable():
/home/marcelo/Documentos/GER/SDP/Projeto/versão antiga/SDP-2016/Debug/../Generated_Code/TU1.c:244
    17dc:	b580      	push	{r7, lr}
    17de:	b082      	sub	sp, #8
    17e0:	af00      	add	r7, sp, #0
    17e2:	6078      	str	r0, [r7, #4]
/home/marcelo/Documentos/GER/SDP/Projeto/versão antiga/SDP-2016/Debug/../Generated_Code/TU1.c:246
    17e4:	4a08      	ldr	r2, [pc, #32]	; (1808 <TU1_Disable+0x2c>)
    17e6:	4908      	ldr	r1, [pc, #32]	; (1808 <TU1_Disable+0x2c>)
    17e8:	2384      	movs	r3, #132	; 0x84
    17ea:	005b      	lsls	r3, r3, #1
    17ec:	58cb      	ldr	r3, [r1, r3]
    17ee:	2101      	movs	r1, #1
    17f0:	1c18      	adds	r0, r3, #0
    17f2:	4388      	bics	r0, r1
    17f4:	1c01      	adds	r1, r0, #0
    17f6:	2384      	movs	r3, #132	; 0x84
    17f8:	005b      	lsls	r3, r3, #1
    17fa:	50d1      	str	r1, [r2, r3]
/home/marcelo/Documentos/GER/SDP/Projeto/versão antiga/SDP-2016/Debug/../Generated_Code/TU1.c:247
    17fc:	2300      	movs	r3, #0
/home/marcelo/Documentos/GER/SDP/Projeto/versão antiga/SDP-2016/Debug/../Generated_Code/TU1.c:248
    17fe:	1c18      	adds	r0, r3, #0
    1800:	46bd      	mov	sp, r7
    1802:	b002      	add	sp, #8
    1804:	bd80      	pop	{r7, pc}
    1806:	46c0      	nop			; (mov r8, r8)
    1808:	40037000 	.word	0x40037000

0000180c <TU1_Interrupt>:
TU1_Interrupt():
/home/marcelo/Documentos/GER/SDP/Projeto/versão antiga/SDP-2016/Debug/../Generated_Code/TU1.c:305
    180c:	b580      	push	{r7, lr}
    180e:	b082      	sub	sp, #8
    1810:	af00      	add	r7, sp, #0
/home/marcelo/Documentos/GER/SDP/Projeto/versão antiga/SDP-2016/Debug/../Generated_Code/TU1.c:307
    1812:	4b0a      	ldr	r3, [pc, #40]	; (183c <TU1_Interrupt+0x30>)
    1814:	681b      	ldr	r3, [r3, #0]
    1816:	607b      	str	r3, [r7, #4]
/home/marcelo/Documentos/GER/SDP/Projeto/versão antiga/SDP-2016/Debug/../Generated_Code/TU1.c:309
    1818:	4a09      	ldr	r2, [pc, #36]	; (1840 <TU1_Interrupt+0x34>)
    181a:	2386      	movs	r3, #134	; 0x86
    181c:	005b      	lsls	r3, r3, #1
    181e:	2101      	movs	r1, #1
    1820:	50d1      	str	r1, [r2, r3]
    1822:	4a07      	ldr	r2, [pc, #28]	; (1840 <TU1_Interrupt+0x34>)
    1824:	2380      	movs	r3, #128	; 0x80
    1826:	005b      	lsls	r3, r3, #1
    1828:	58d3      	ldr	r3, [r2, r3]
/home/marcelo/Documentos/GER/SDP/Projeto/versão antiga/SDP-2016/Debug/../Generated_Code/TU1.c:310
    182a:	687b      	ldr	r3, [r7, #4]
    182c:	685b      	ldr	r3, [r3, #4]
    182e:	1c18      	adds	r0, r3, #0
    1830:	f000 f860 	bl	18f4 <TU1_OnCounterRestart>
/home/marcelo/Documentos/GER/SDP/Projeto/versão antiga/SDP-2016/Debug/../Generated_Code/TU1.c:311
    1834:	46bd      	mov	sp, r7
    1836:	b002      	add	sp, #8
    1838:	bd80      	pop	{r7, pc}
    183a:	46c0      	nop			; (mov r8, r8)
    183c:	1ffff0e8 	.word	0x1ffff0e8
    1840:	40037000 	.word	0x40037000

00001844 <TimerIntLdd1_Init>:
TimerIntLdd1_Init():
/home/marcelo/Documentos/GER/SDP/Projeto/versão antiga/SDP-2016/Debug/../Generated_Code/TimerIntLdd1.c:145
    1844:	b580      	push	{r7, lr}
    1846:	b084      	sub	sp, #16
    1848:	af00      	add	r7, sp, #0
    184a:	6078      	str	r0, [r7, #4]
/home/marcelo/Documentos/GER/SDP/Projeto/versão antiga/SDP-2016/Debug/../Generated_Code/TimerIntLdd1.c:149
    184c:	4b0f      	ldr	r3, [pc, #60]	; (188c <TimerIntLdd1_Init+0x48>)
    184e:	60fb      	str	r3, [r7, #12]
/home/marcelo/Documentos/GER/SDP/Projeto/versão antiga/SDP-2016/Debug/../Generated_Code/TimerIntLdd1.c:150
    1850:	68fb      	ldr	r3, [r7, #12]
    1852:	687a      	ldr	r2, [r7, #4]
    1854:	609a      	str	r2, [r3, #8]
/home/marcelo/Documentos/GER/SDP/Projeto/versão antiga/SDP-2016/Debug/../Generated_Code/TimerIntLdd1.c:151
    1856:	68fb      	ldr	r3, [r7, #12]
    1858:	2200      	movs	r2, #0
    185a:	711a      	strb	r2, [r3, #4]
/home/marcelo/Documentos/GER/SDP/Projeto/versão antiga/SDP-2016/Debug/../Generated_Code/TimerIntLdd1.c:153
    185c:	4b0c      	ldr	r3, [pc, #48]	; (1890 <TimerIntLdd1_Init+0x4c>)
    185e:	68fa      	ldr	r2, [r7, #12]
    1860:	60da      	str	r2, [r3, #12]
/home/marcelo/Documentos/GER/SDP/Projeto/versão antiga/SDP-2016/Debug/../Generated_Code/TimerIntLdd1.c:154
    1862:	2000      	movs	r0, #0
    1864:	f7ff ff3a 	bl	16dc <TU1_Init>
    1868:	1c02      	adds	r2, r0, #0
    186a:	68fb      	ldr	r3, [r7, #12]
    186c:	601a      	str	r2, [r3, #0]
/home/marcelo/Documentos/GER/SDP/Projeto/versão antiga/SDP-2016/Debug/../Generated_Code/TimerIntLdd1.c:155
    186e:	68fb      	ldr	r3, [r7, #12]
    1870:	681b      	ldr	r3, [r3, #0]
    1872:	2b00      	cmp	r3, #0
    1874:	d104      	bne.n	1880 <TimerIntLdd1_Init+0x3c>
/home/marcelo/Documentos/GER/SDP/Projeto/versão antiga/SDP-2016/Debug/../Generated_Code/TimerIntLdd1.c:157
    1876:	4b06      	ldr	r3, [pc, #24]	; (1890 <TimerIntLdd1_Init+0x4c>)
    1878:	2200      	movs	r2, #0
    187a:	60da      	str	r2, [r3, #12]
/home/marcelo/Documentos/GER/SDP/Projeto/versão antiga/SDP-2016/Debug/../Generated_Code/TimerIntLdd1.c:160
    187c:	2300      	movs	r3, #0
    187e:	e000      	b.n	1882 <TimerIntLdd1_Init+0x3e>
/home/marcelo/Documentos/GER/SDP/Projeto/versão antiga/SDP-2016/Debug/../Generated_Code/TimerIntLdd1.c:162
    1880:	68fb      	ldr	r3, [r7, #12]
/home/marcelo/Documentos/GER/SDP/Projeto/versão antiga/SDP-2016/Debug/../Generated_Code/TimerIntLdd1.c:163
    1882:	1c18      	adds	r0, r3, #0
    1884:	46bd      	mov	sp, r7
    1886:	b004      	add	sp, #16
    1888:	bd80      	pop	{r7, pc}
    188a:	46c0      	nop			; (mov r8, r8)
    188c:	1ffff0ec 	.word	0x1ffff0ec
    1890:	1ffff0a8 	.word	0x1ffff0a8

00001894 <TimerIntLdd1_Enable>:
TimerIntLdd1_Enable():
/home/marcelo/Documentos/GER/SDP/Projeto/versão antiga/SDP-2016/Debug/../Generated_Code/TimerIntLdd1.c:184
    1894:	b580      	push	{r7, lr}
    1896:	b084      	sub	sp, #16
    1898:	af00      	add	r7, sp, #0
    189a:	6078      	str	r0, [r7, #4]
/home/marcelo/Documentos/GER/SDP/Projeto/versão antiga/SDP-2016/Debug/../Generated_Code/TimerIntLdd1.c:185
    189c:	687b      	ldr	r3, [r7, #4]
    189e:	60fb      	str	r3, [r7, #12]
/home/marcelo/Documentos/GER/SDP/Projeto/versão antiga/SDP-2016/Debug/../Generated_Code/TimerIntLdd1.c:187
    18a0:	68fb      	ldr	r3, [r7, #12]
    18a2:	791b      	ldrb	r3, [r3, #4]
    18a4:	2b00      	cmp	r3, #0
    18a6:	d107      	bne.n	18b8 <TimerIntLdd1_Enable+0x24>
/home/marcelo/Documentos/GER/SDP/Projeto/versão antiga/SDP-2016/Debug/../Generated_Code/TimerIntLdd1.c:188
    18a8:	68fb      	ldr	r3, [r7, #12]
    18aa:	2201      	movs	r2, #1
    18ac:	711a      	strb	r2, [r3, #4]
/home/marcelo/Documentos/GER/SDP/Projeto/versão antiga/SDP-2016/Debug/../Generated_Code/TimerIntLdd1.c:189
    18ae:	68fb      	ldr	r3, [r7, #12]
    18b0:	681b      	ldr	r3, [r3, #0]
    18b2:	1c18      	adds	r0, r3, #0
    18b4:	f7ff ff7c 	bl	17b0 <TU1_Enable>
/home/marcelo/Documentos/GER/SDP/Projeto/versão antiga/SDP-2016/Debug/../Generated_Code/TimerIntLdd1.c:191
    18b8:	2300      	movs	r3, #0
/home/marcelo/Documentos/GER/SDP/Projeto/versão antiga/SDP-2016/Debug/../Generated_Code/TimerIntLdd1.c:192
    18ba:	1c18      	adds	r0, r3, #0
    18bc:	46bd      	mov	sp, r7
    18be:	b004      	add	sp, #16
    18c0:	bd80      	pop	{r7, pc}
    18c2:	46c0      	nop			; (mov r8, r8)

000018c4 <TimerIntLdd1_Disable>:
TimerIntLdd1_Disable():
/home/marcelo/Documentos/GER/SDP/Projeto/versão antiga/SDP-2016/Debug/../Generated_Code/TimerIntLdd1.c:213
    18c4:	b580      	push	{r7, lr}
    18c6:	b084      	sub	sp, #16
    18c8:	af00      	add	r7, sp, #0
    18ca:	6078      	str	r0, [r7, #4]
/home/marcelo/Documentos/GER/SDP/Projeto/versão antiga/SDP-2016/Debug/../Generated_Code/TimerIntLdd1.c:214
    18cc:	687b      	ldr	r3, [r7, #4]
    18ce:	60fb      	str	r3, [r7, #12]
/home/marcelo/Documentos/GER/SDP/Projeto/versão antiga/SDP-2016/Debug/../Generated_Code/TimerIntLdd1.c:216
    18d0:	68fb      	ldr	r3, [r7, #12]
    18d2:	791b      	ldrb	r3, [r3, #4]
    18d4:	2b00      	cmp	r3, #0
    18d6:	d007      	beq.n	18e8 <TimerIntLdd1_Disable+0x24>
/home/marcelo/Documentos/GER/SDP/Projeto/versão antiga/SDP-2016/Debug/../Generated_Code/TimerIntLdd1.c:217
    18d8:	68fb      	ldr	r3, [r7, #12]
    18da:	2200      	movs	r2, #0
    18dc:	711a      	strb	r2, [r3, #4]
/home/marcelo/Documentos/GER/SDP/Projeto/versão antiga/SDP-2016/Debug/../Generated_Code/TimerIntLdd1.c:218
    18de:	68fb      	ldr	r3, [r7, #12]
    18e0:	681b      	ldr	r3, [r3, #0]
    18e2:	1c18      	adds	r0, r3, #0
    18e4:	f7ff ff7a 	bl	17dc <TU1_Disable>
/home/marcelo/Documentos/GER/SDP/Projeto/versão antiga/SDP-2016/Debug/../Generated_Code/TimerIntLdd1.c:220
    18e8:	2300      	movs	r3, #0
/home/marcelo/Documentos/GER/SDP/Projeto/versão antiga/SDP-2016/Debug/../Generated_Code/TimerIntLdd1.c:221
    18ea:	1c18      	adds	r0, r3, #0
    18ec:	46bd      	mov	sp, r7
    18ee:	b004      	add	sp, #16
    18f0:	bd80      	pop	{r7, pc}
    18f2:	46c0      	nop			; (mov r8, r8)

000018f4 <TU1_OnCounterRestart>:
TU1_OnCounterRestart():
/home/marcelo/Documentos/GER/SDP/Projeto/versão antiga/SDP-2016/Debug/../Generated_Code/TimerIntLdd1.c:272
    18f4:	b580      	push	{r7, lr}
    18f6:	b084      	sub	sp, #16
    18f8:	af00      	add	r7, sp, #0
    18fa:	6078      	str	r0, [r7, #4]
/home/marcelo/Documentos/GER/SDP/Projeto/versão antiga/SDP-2016/Debug/../Generated_Code/TimerIntLdd1.c:273
    18fc:	4b05      	ldr	r3, [pc, #20]	; (1914 <TU1_OnCounterRestart+0x20>)
    18fe:	68db      	ldr	r3, [r3, #12]
    1900:	60fb      	str	r3, [r7, #12]
/home/marcelo/Documentos/GER/SDP/Projeto/versão antiga/SDP-2016/Debug/../Generated_Code/TimerIntLdd1.c:276
    1902:	68fb      	ldr	r3, [r7, #12]
    1904:	689b      	ldr	r3, [r3, #8]
    1906:	1c18      	adds	r0, r3, #0
    1908:	f7ff fb5a 	bl	fc0 <TimerIntLdd1_OnInterrupt>
/home/marcelo/Documentos/GER/SDP/Projeto/versão antiga/SDP-2016/Debug/../Generated_Code/TimerIntLdd1.c:277
    190c:	46bd      	mov	sp, r7
    190e:	b004      	add	sp, #16
    1910:	bd80      	pop	{r7, pc}
    1912:	46c0      	nop			; (mov r8, r8)
    1914:	1ffff0a8 	.word	0x1ffff0a8

00001918 <exit>:
exit():
    1918:	4b08      	ldr	r3, [pc, #32]	; (193c <exit+0x24>)
    191a:	b510      	push	{r4, lr}
    191c:	1c04      	adds	r4, r0, #0
    191e:	2b00      	cmp	r3, #0
    1920:	d002      	beq.n	1928 <exit+0x10>
    1922:	2100      	movs	r1, #0
    1924:	e000      	b.n	1928 <exit+0x10>
    1926:	bf00      	nop
    1928:	4b05      	ldr	r3, [pc, #20]	; (1940 <exit+0x28>)
    192a:	6818      	ldr	r0, [r3, #0]
    192c:	6a83      	ldr	r3, [r0, #40]	; 0x28
    192e:	2b00      	cmp	r3, #0
    1930:	d000      	beq.n	1934 <exit+0x1c>
    1932:	4798      	blx	r3
    1934:	1c20      	adds	r0, r4, #0
    1936:	f000 f833 	bl	19a0 <_exit>
    193a:	46c0      	nop			; (mov r8, r8)
    193c:	00000000 	.word	0x00000000
    1940:	000019bc 	.word	0x000019bc

00001944 <__libc_init_array>:
__libc_init_array():
    1944:	b570      	push	{r4, r5, r6, lr}
    1946:	4b0e      	ldr	r3, [pc, #56]	; (1980 <__libc_init_array+0x3c>)
    1948:	4d0e      	ldr	r5, [pc, #56]	; (1984 <__libc_init_array+0x40>)
    194a:	2400      	movs	r4, #0
    194c:	1aed      	subs	r5, r5, r3
    194e:	10ad      	asrs	r5, r5, #2
    1950:	1c1e      	adds	r6, r3, #0
    1952:	42ac      	cmp	r4, r5
    1954:	d004      	beq.n	1960 <__libc_init_array+0x1c>
    1956:	00a3      	lsls	r3, r4, #2
    1958:	58f3      	ldr	r3, [r6, r3]
    195a:	4798      	blx	r3
    195c:	3401      	adds	r4, #1
    195e:	e7f8      	b.n	1952 <__libc_init_array+0xe>
    1960:	f000 f82e 	bl	19c0 <_init>
    1964:	4b08      	ldr	r3, [pc, #32]	; (1988 <__libc_init_array+0x44>)
    1966:	4d09      	ldr	r5, [pc, #36]	; (198c <__libc_init_array+0x48>)
    1968:	2400      	movs	r4, #0
    196a:	1aed      	subs	r5, r5, r3
    196c:	10ad      	asrs	r5, r5, #2
    196e:	1c1e      	adds	r6, r3, #0
    1970:	42ac      	cmp	r4, r5
    1972:	d004      	beq.n	197e <__libc_init_array+0x3a>
    1974:	00a3      	lsls	r3, r4, #2
    1976:	58f3      	ldr	r3, [r6, r3]
    1978:	4798      	blx	r3
    197a:	3401      	adds	r4, #1
    197c:	e7f8      	b.n	1970 <__libc_init_array+0x2c>
    197e:	bd70      	pop	{r4, r5, r6, pc}
    1980:	000019e0 	.word	0x000019e0
    1984:	000019e0 	.word	0x000019e0
    1988:	000019e0 	.word	0x000019e0
    198c:	000019e4 	.word	0x000019e4

00001990 <memset>:
memset():
    1990:	1c03      	adds	r3, r0, #0
    1992:	1882      	adds	r2, r0, r2
    1994:	4293      	cmp	r3, r2
    1996:	d002      	beq.n	199e <memset+0xe>
    1998:	7019      	strb	r1, [r3, #0]
    199a:	3301      	adds	r3, #1
    199c:	e7fa      	b.n	1994 <memset+0x4>
    199e:	4770      	bx	lr

000019a0 <_exit>:
_exit():
    19a0:	e7fe      	b.n	19a0 <_exit>
    19a2:	46c0      	nop			; (mov r8, r8)
$d():
    19a4:	00000766 	.word	0x00000766
    19a8:	00000782 	.word	0x00000782
    19ac:	000007b4 	.word	0x000007b4
    19b0:	00000708 	.word	0x00000708
    19b4:	000007c6 	.word	0x000007c6
    19b8:	00000043 	.word	0x00000043

000019bc <_global_impure_ptr>:
    19bc:	1ffff000                                ....

000019c0 <_init>:
$t():
    19c0:	b5f8      	push	{r3, r4, r5, r6, r7, lr}
    19c2:	46c0      	nop			; (mov r8, r8)
    19c4:	bcf8      	pop	{r3, r4, r5, r6, r7}
    19c6:	bc08      	pop	{r3}
    19c8:	469e      	mov	lr, r3
    19ca:	4770      	bx	lr

000019cc <_fini>:
    19cc:	b5f8      	push	{r3, r4, r5, r6, r7, lr}
    19ce:	46c0      	nop			; (mov r8, r8)
    19d0:	bcf8      	pop	{r3, r4, r5, r6, r7}
    19d2:	bc08      	pop	{r3}
    19d4:	469e      	mov	lr, r3
    19d6:	4770      	bx	lr
