
SDP_2016.elf:     file format elf32-littlearm
SDP_2016.elf
architecture: arm, flags 0x00000112:
EXEC_P, HAS_SYMS, D_PAGED
start address 0x00002059

Program Header:
    LOAD off    0x00008000 vaddr 0x00000000 paddr 0x00000000 align 2**15
         filesz 0x000000c0 memsz 0x000000c0 flags r--
    LOAD off    0x00008400 vaddr 0x00000400 paddr 0x00000400 align 2**15
         filesz 0x00000010 memsz 0x00000010 flags r--
    LOAD off    0x00008410 vaddr 0x00000410 paddr 0x00000410 align 2**15
         filesz 0x00003614 memsz 0x00003614 flags rwx
    LOAD off    0x0000f000 vaddr 0x1ffff000 paddr 0x00003a24 align 2**15
         filesz 0x00000060 memsz 0x000002d4 flags rw-
    LOAD off    0x0000f2d4 vaddr 0x1ffff2d4 paddr 0x00003a84 align 2**15
         filesz 0x00000018 memsz 0x00000418 flags rw-
private flags = 5000002: [Version5 EABI] [has entry point]

Sections:
Idx Name          Size      VMA       LMA       File off  Algn  Flags
  0 .interrupts   000000c0  00000000  00000000  00008000  2**2  CONTENTS, ALLOC, LOAD, READONLY, DATA
  1 .cfmprotect   00000010  00000400  00000400  00008400  2**2  CONTENTS, ALLOC, LOAD, READONLY, DATA
  2 .text         00003604  00000410  00000410  00008410  2**3  CONTENTS, ALLOC, LOAD, READONLY, CODE
  3 .ARM          00000008  00003a14  00003a14  0000ba14  2**2  CONTENTS, ALLOC, LOAD, READONLY, DATA
  4 .init_array   00000004  00003a1c  00003a1c  0000ba1c  2**2  CONTENTS, ALLOC, LOAD, DATA
  5 .fini_array   00000004  00003a20  00003a20  0000ba20  2**2  CONTENTS, ALLOC, LOAD, DATA
  6 .data         00000060  1ffff000  00003a24  0000f000  2**2  CONTENTS, ALLOC, LOAD, DATA
  7 .bss          00000274  1ffff060  00003a84  0000f060  2**2  ALLOC
  8 .romp         00000018  1ffff2d4  00003a84  0000f2d4  2**0  CONTENTS, ALLOC, LOAD, DATA
  9 ._user_heap_stack 00000400  1ffff2ec  00003a9c  0000f2ec  2**0  ALLOC
 10 .ARM.attributes 00000028  00000000  00000000  0000f2ec  2**0  CONTENTS, READONLY
 11 .debug_info   000077b4  00000000  00000000  0000f314  2**0  CONTENTS, READONLY, DEBUGGING
 12 .debug_abbrev 00002666  00000000  00000000  00016ac8  2**0  CONTENTS, READONLY, DEBUGGING
 13 .debug_aranges 000007b0  00000000  00000000  0001912e  2**0  CONTENTS, READONLY, DEBUGGING
 14 .debug_ranges 00000598  00000000  00000000  000198de  2**0  CONTENTS, READONLY, DEBUGGING
 15 .debug_macro  000150da  00000000  00000000  00019e76  2**0  CONTENTS, READONLY, DEBUGGING
 16 .debug_line   00008228  00000000  00000000  0002ef50  2**0  CONTENTS, READONLY, DEBUGGING
 17 .debug_str    00045418  00000000  00000000  00037178  2**0  CONTENTS, READONLY, DEBUGGING
 18 .comment      00000070  00000000  00000000  0007c590  2**0  CONTENTS, READONLY
 19 .debug_frame  00001744  00000000  00000000  0007c600  2**2  CONTENTS, READONLY, DEBUGGING
SYMBOL TABLE:
00000000 l    d  .interrupts	00000000 .interrupts
00000400 l    d  .cfmprotect	00000000 .cfmprotect
00000410 l    d  .text	00000000 .text
00003a14 l    d  .ARM	00000000 .ARM
00003a1c l    d  .init_array	00000000 .init_array
00003a20 l    d  .fini_array	00000000 .fini_array
1ffff000 l    d  .data	00000000 .data
1ffff060 l    d  .bss	00000000 .bss
1ffff2d4 l    d  .romp	00000000 .romp
1ffff2ec l    d  ._user_heap_stack	00000000 ._user_heap_stack
00000000 l    d  .ARM.attributes	00000000 .ARM.attributes
00000000 l    d  .debug_info	00000000 .debug_info
00000000 l    d  .debug_abbrev	00000000 .debug_abbrev
00000000 l    d  .debug_aranges	00000000 .debug_aranges
00000000 l    d  .debug_ranges	00000000 .debug_ranges
00000000 l    d  .debug_macro	00000000 .debug_macro
00000000 l    d  .debug_line	00000000 .debug_line
00000000 l    d  .debug_str	00000000 .debug_str
00000000 l    d  .comment	00000000 .comment
00000000 l    d  .debug_frame	00000000 .debug_frame
00000000 l    df *ABS*	00000000 Vectors.c
00000000 l    df *ABS*	00000000 Cpu.c
00000000 l    df *ABS*	00000000 crtstuff.c
000039fc l     O .text	00000000 __EH_FRAME_BEGIN__
00000410 l     F .text	00000000 __do_global_dtors_aux
1ffff060 l       .bss	00000000 completed.7863
00003a20 l     O .fini_array	00000000 __do_global_dtors_aux_fini_array_entry
00000438 l     F .text	00000000 frame_dummy
1ffff064 l       .bss	00000000 object.7868
00003a1c l     O .init_array	00000000 __frame_dummy_init_array_entry
00000000 l    df *ABS*	00000000 /opt/Freescale/KDS_v3/toolchain/bin/../lib/gcc/arm-none-eabi/4.8.4/../../../../arm-none-eabi/lib/armv6-m/crt0.o
00000000 l    df *ABS*	00000000 _udivsi3.o
000004ec l       .text	00000000 .udivsi3_skip_div0_test
00000000 l    df *ABS*	00000000 _divsi3.o
00000588 l       .text	00000000 .divsi3_skip_div0_test
00000000 l    df *ABS*	00000000 _dvmd_tls.o
00000000 l    df *ABS*	00000000 _arm_cmpdf2.o
00000000 l    df *ABS*	00000000 _arm_cmpsf2.o
00000000 l    df *ABS*	00000000 addsf3.c
00000000 l    df *ABS*	00000000 divsf3.c
00000000 l    df *ABS*	00000000 eqsf2.c
00000000 l    df *ABS*	00000000 gesf2.c
00000000 l    df *ABS*	00000000 lesf2.c
00000000 l    df *ABS*	00000000 floatunsisf.c
00000000 l    df *ABS*	00000000 eqdf2.c
00000000 l    df *ABS*	00000000 gedf2.c
00000000 l    df *ABS*	00000000 ledf2.c
00000000 l    df *ABS*	00000000 muldf3.c
00000000 l    df *ABS*	00000000 extendsfdf2.c
00000000 l    df *ABS*	00000000 truncdfsf2.c
00000000 l    df *ABS*	00000000 _clzsi2.o
00000000 l    df *ABS*	00000000 BatteryController.c
00000000 l    df *ABS*	00000000 CameraController.c
00000000 l    df *ABS*	00000000 Events.c
00000000 l    df *ABS*	00000000 SerialCommunication.c
1ffff07c l     O .bss	00000008 deviceData
00001cf4 l     F .text	00000020 init_Serial
00001d14 l     F .text	00000044 sendAChar
00000000 l    df *ABS*	00000000 main.c
00000000 l    df *ABS*	00000000 startup.c
0000206c l       .text	00000000 skip_sp
00000000 l    df *ABS*	00000000 AD_Converter.c
1ffff084 l     O .bss	00000001 SumChan
1ffff085 l     O .bss	00000001 ModeFlg
1ffff088 l     O .bss	00000002 SampleGroup
000039ec l     O .text	00000002 Table
1ffff08c l     O .bss	00000001 OutFlg
00002088 l     F .text	00000018 ClrSumV
00000000 l    df *ABS*	00000000 AdcLdd1.c
000039f0 l     O .text	00000002 ChannelToPin
1ffff090 l     O .bss	00000008 DeviceDataPrv__DEFAULT_RTOS_ALLOC
1ffff098 l     O .bss	00000004 INT_ADC0__DEFAULT_RTOS_ISRPARAM
00000000 l    df *ABS*	00000000 BitIoLdd1.c
1ffff09c l     O .bss	00000004 DeviceDataPrv__DEFAULT_RTOS_ALLOC
00000000 l    df *ABS*	00000000 BitIoLdd10.c
1ffff0a0 l     O .bss	00000004 DeviceDataPrv__DEFAULT_RTOS_ALLOC
00000000 l    df *ABS*	00000000 BitIoLdd11.c
1ffff0a4 l     O .bss	00000004 DeviceDataPrv__DEFAULT_RTOS_ALLOC
00000000 l    df *ABS*	00000000 BitIoLdd2.c
1ffff0a8 l     O .bss	00000004 DeviceDataPrv__DEFAULT_RTOS_ALLOC
00000000 l    df *ABS*	00000000 BitIoLdd3.c
1ffff0ac l     O .bss	00000004 DeviceDataPrv__DEFAULT_RTOS_ALLOC
00000000 l    df *ABS*	00000000 BitIoLdd4.c
1ffff0b0 l     O .bss	00000004 DeviceDataPrv__DEFAULT_RTOS_ALLOC
00000000 l    df *ABS*	00000000 BitIoLdd5.c
1ffff0b4 l     O .bss	00000004 DeviceDataPrv__DEFAULT_RTOS_ALLOC
00000000 l    df *ABS*	00000000 BitIoLdd6.c
1ffff0b8 l     O .bss	00000004 DeviceDataPrv__DEFAULT_RTOS_ALLOC
00000000 l    df *ABS*	00000000 BitIoLdd7.c
1ffff0bc l     O .bss	00000004 DeviceDataPrv__DEFAULT_RTOS_ALLOC
00000000 l    df *ABS*	00000000 BitIoLdd8.c
1ffff0c0 l     O .bss	00000004 DeviceDataPrv__DEFAULT_RTOS_ALLOC
00000000 l    df *ABS*	00000000 BitIoLdd9.c
1ffff0c4 l     O .bss	00000004 DeviceDataPrv__DEFAULT_RTOS_ALLOC
00000000 l    df *ABS*	00000000 Camera_CLK_Interruption.c
00000000 l    df *ABS*	00000000 PwmLdd1.c
1ffff124 l     O .bss	0000000c DeviceDataPrv__DEFAULT_RTOS_ALLOC
00000000 l    df *ABS*	00000000 PwmLdd2.c
1ffff130 l     O .bss	0000000c DeviceDataPrv__DEFAULT_RTOS_ALLOC
00000000 l    df *ABS*	00000000 PwmLdd3.c
1ffff13c l     O .bss	0000000c DeviceDataPrv__DEFAULT_RTOS_ALLOC
00000000 l    df *ABS*	00000000 PwmLdd4.c
1ffff148 l     O .bss	0000000c DeviceDataPrv__DEFAULT_RTOS_ALLOC
00000000 l    df *ABS*	00000000 PwmLdd5.c
1ffff154 l     O .bss	0000000c DeviceDataPrv__DEFAULT_RTOS_ALLOC
00000000 l    df *ABS*	00000000 SerialCom.c
1ffff160 l     O .bss	00000018 DeviceDataPrv__DEFAULT_RTOS_ALLOC
1ffff178 l     O .bss	00000004 INT_UART0__DEFAULT_RTOS_ISRPARAM
0000332c l     F .text	00000050 InterruptRx
0000337c l     F .text	00000080 InterruptTx
00000000 l    df *ABS*	00000000 TU1.c
1ffff17c l     O .bss	00000008 DeviceDataPrv__DEFAULT_RTOS_ALLOC
1ffff184 l     O .bss	00000004 INT_PIT__DEFAULT_RTOS_ISRPARAM
00000000 l    df *ABS*	00000000 TU2.c
1ffff188 l     O .bss	00000008 DeviceDataPrv__DEFAULT_RTOS_ALLOC
00000000 l    df *ABS*	00000000 TU3.c
1ffff190 l     O .bss	0000000c DeviceDataPrv__DEFAULT_RTOS_ALLOC
00000000 l    df *ABS*	00000000 TimerIntLdd1.c
1ffff19c l     O .bss	0000000c DeviceDataPrv__DEFAULT_RTOS_ALLOC
00000000 l    df *ABS*	00000000 exit.c
00000000 l    df *ABS*	00000000 init.c
00000000 l    df *ABS*	00000000 memset.c
00000000 l    df *ABS*	00000000 _exit.c
00000000 l    df *ABS*	00000000 impure.c
1ffff000 l     O .data	00000060 impure_data
00000000 l    df *ABS*	00000000 /opt/Freescale/KDS_v3/toolchain/bin/../lib/gcc/arm-none-eabi/4.8.4/armv6-m/crti.o
00000000 l    df *ABS*	00000000 /opt/Freescale/KDS_v3/toolchain/bin/../lib/gcc/arm-none-eabi/4.8.4/armv6-m/crtn.o
00000000 l    df *ABS*	00000000 PE_LDD.c
00000000 l    df *ABS*	00000000 
00000400 l       *ABS*	00000000 __stack_size
00020000 l       *ABS*	00000000 text_end
1ffff000 l       .data	00000000 _sdata
00003a9c l       .fini_array	00000000 data_init_end
00003a24 l       .fini_array	00000000 ___ROM_AT
00000000 l       *ABS*	00000000 __heap_size
00003a20 l       .init_array	00000000 __init_array_end
00003a1c l       .init_array	00000000 __preinit_array_end
20003000 l       *ABS*	00000000 _estack
1ffff060 l       .data	00000000 _edata
00003a1c l       .init_array	00000000 __init_array_start
00003a1c l       .init_array	00000000 __preinit_array_start
000025c4 g     F .text	00000030 AdcLdd1_MeasurementCompleteInterrupt
0000181c g     F .text	00000028 updateBatteryLevel
1ffff1b4 g     O .bss	00000004 clockCounter
1ffff2ec g       ._user_heap_stack	00000000 __HeapBase
00000688 g     F .text	00000012 .hidden __aeabi_dcmple
000029ac g     F .text	0000001c BitIoLdd5_NegVal
000030b8 g     F .text	000001b0 SerialCom_Init
00000e78 g     F .text	00000094 .hidden __eqdf2
00003534 g     F .text	0000002c TU1_Enable
000021a0 g     F .text	00000058 AD_Converter_GetChanValue
00001b88 g     F .text	00000120 Camera_CLK_Interruption_OnInterrupt
1ffff2ec g       ._user_heap_stack	00000000 __heap_addr
1ffff0c8 g     O .bss	00000001 SR_lock
1ffff1b8 g     O .bss	00000004 samplesNumber
1ffff1a8 g     O .bss	00000001 handlingPowerUpdate
00002aec g     F .text	0000001c BitIoLdd7_ClrVal
00002fd8 g     F .text	00000058 PwmLdd4_Init
00003a1c g       .ARM	00000000 __exidx_end
000028a4 g     F .text	00000068 BitIoLdd4_Init
00000f0c g     F .text	000000fc .hidden __gtdf2
1ffff1bc g     O .bss	00000004 transferTime
0000280c g     F .text	00000018 BitIoLdd2_SetVal
000025f4 g     F .text	00000060 BitIoLdd1_Init
00003a14 g       .text	00000000 _etext
00000658 g     F .text	00000010 .hidden __aeabi_cdcmple
1ffff1c0 g     O .bss	00000004 currentSample
00000738 g     F .text	000002d8 .hidden __aeabi_fadd
00000000 g     O .interrupts	000000c0 __vect_table
00001848 g     F .text	0000022c updatePowerState
00002a30 g     F .text	0000001c BitIoLdd6_ClrVal
0000213c g     F .text	00000064 AD_Converter_MeasureChan
000023fc g     F .text	00000044 AdcLdd1_StartSingleMeasurement
00002be0 g     F .text	0000001c BitIoLdd8_NegVal
00000648 g     F .text	00000020 .hidden __aeabi_cdrcmple
00000710 g     F .text	00000012 .hidden __aeabi_fcmpgt
00001008 g     F .text	000000fc .hidden __ltdf2
00003a1c g       .init_array	00000000 __DTOR_END__
00003878 g     F .text	0000002e TimerIntLdd1_Disable
00003560 g     F .text	00000030 TU1_Disable
000004e8 g     F .text	00000088 .hidden __udivsi3
1ffff060 g       .bss	00000000 __START_BSS
00003088 g     F .text	0000002e PwmLdd5_Enable
00000d40 g     F .text	00000096 .hidden __lesf2
1ffff2ec g       ._user_heap_stack	00000000 __HeapLimit
1ffff060 g       .bss	00000000 __bss_start__
00001cdc g     F .text	00000018 SerialCom_OnBlockSent
0000250c g     F .text	000000b8 AdcLdd1_GetCalibrationResultStatus
000026ac g     F .text	00000060 BitIoLdd10_Init
00001a78 g     F .text	00000028 initializeCamera
00001b10 g     F .text	00000070 verifySample
00000674 g     F .text	00000012 .hidden __aeabi_dcmplt
00002058 g     F .text	00000030 __thumb_startup
00000c5c g     F .text	00000054 .hidden __nesf2
00001d58 g     F .text	0000009a itoa_8_bit
000022f0 g     F .text	0000002c AD_Converter_Init
00003a14 g       .ARM	00000000 __exidx_start
00001104 g     F .text	00000520 .hidden __aeabi_dmul
000039f8 g     O .text	00000004 _global_impure_ptr
000038f8 g     F .text	0000004c __libc_init_array
00002050  w    F .text	00000008 __init_user
00000470 g     F .text	00000000 _mainCRTStartup
1ffff1a9 g     O .bss	00000001 serialTest
00001aa0 g     F .text	00000070 getRawImageMean
1ffff2c8 g     O .bss	00000001 ApplicationEnd
000039fc g     F .text	00000000 _init
1ffff1c4 g     O .bss	00000004 state
00003848 g     F .text	0000002e TimerIntLdd1_Enable
000016c8 g     F .text	00000118 .hidden __aeabi_d2f
00000000  w      *UND*	00000000 __libc_fini_array
00002f28 g     F .text	00000058 PwmLdd2_Init
00002c8c g     F .text	00000110 __init_hardware
0000276c g     F .text	00000060 BitIoLdd2_Init
0000290c g     F .text	0000001c BitIoLdd4_SetVal
00000724 g     F .text	00000012 .hidden __aeabi_fcmpge
1ffff1c8 g     O .bss	00000080 rawImage
000033fc g     F .text	00000064 SerialCom_Interrupt
000038a8 g     F .text	00000024 TU1_OnCounterRestart
00000cb0 g     F .text	0000008e .hidden __gtsf2
000020a0 g     F .text	0000009c AD_Converter_HWEnDi
1ffff2cc g     O .bss	00000004 AdcLdd1_DeviceDataPtr
00001008 g     F .text	000000fc .hidden __ledf2
0000267c g     F .text	00000018 BitIoLdd1_ClrVal
000006fc g     F .text	00000012 .hidden __aeabi_fcmple
00000000  w      *UND*	00000000 __sf_fake_stderr
00000000  w      *UND*	00000000 __deregister_frame_info
00000584 g     F .text	00000000 .hidden __aeabi_idiv
00001ed8 g     F .text	000000d6 __copy_rom_section
00001b80 g     F .text	00000008 Cpu_OnNMIINT
00003a1c g       .init_array	00000000 __CTOR_LIST__
0000069c g     F .text	00000012 .hidden __aeabi_dcmpgt
000017e0 g     F .text	0000003c .hidden __clzsi2
00002b24 g     F .text	0000001c BitIoLdd7_NegVal
1ffff2d4 g       .bss	00000000 __bss_end__
000006b0 g     F .text	00000012 .hidden __aeabi_dcmpge
00000000  w      *UND*	00000000 __call_exitprocs
000027f4 g     F .text	00000018 BitIoLdd2_ClrVal
00000470 g     F .text	00000000 _start
0000231c g     F .text	000000e0 AdcLdd1_Init
00002694 g     F .text	00000018 BitIoLdd1_SetVal
00000400 g     O .cfmprotect	00000010 _cfm
00000000 g       .interrupts	00000000 __vector_table
00000c5c g     F .text	00000054 .hidden __eqsf2
20003000 g       *ABS*	00000000 __SP_INIT
00000000  w      *UND*	00000000 software_init_hook
00002a68 g     F .text	0000001c BitIoLdd6_NegVal
00000a10 g     F .text	0000024c .hidden __aeabi_fdiv
00002440 g     F .text	0000006c AdcLdd1_CreateSampleGroup
0000287c g     F .text	00000028 BitIoLdd3_GetVal
00002d9c g     F .text	00000134 PE_low_level_init
00000644  w    F .text	00000002 .hidden __aeabi_ldiv0
000024ac g     F .text	00000060 AdcLdd1_GetMeasuredValues
00000dd8 g     F .text	000000a0 .hidden __aeabi_ui2f
1ffff1ac g     O .bss	00000004 batteryLevel
00001fb0 g     F .text	00000098 __copy_rom_sections_to_ram
00002928 g     F .text	00000068 BitIoLdd5_Init
00000000  w      *UND*	00000000 __sf_fake_stdin
1ffff2d2 g     O .bss	00000001 SR_reg
00002a84 g     F .text	00000068 BitIoLdd7_Init
00003944 g     F .text	00000010 memset
00001e44 g     F .text	00000094 main
00000d40 g     F .text	00000096 .hidden __ltsf2
000021f8 g     F .text	000000f8 AdcLdd1_OnMeasurementComplete
000004e8 g     F .text	00000000 .hidden __aeabi_uidiv
00002c80 g     F .text	0000000a Cpu_Interrupt
000029c8 g     F .text	00000068 BitIoLdd6_Init
00002bfc g     F .text	00000064 BitIoLdd9_Init
1ffff0cc g     O .bss	00000058 PE_LDD_DeviceDataList
00000000  w      *UND*	00000000 hardware_init_hook
00002ed0 g     F .text	00000058 PwmLdd1_Init
00002c60 g     F .text	00000012 TimerIntLdd1_OnInterrupt
00002f80 g     F .text	00000058 PwmLdd3_Init
000006cc g     F .text	00000010 .hidden __aeabi_cfcmple
00000584 g     F .text	000000ac .hidden __divsi3
00003a1c g       .init_array	00000000 __CTOR_END__
00002ba8 g     F .text	0000001c BitIoLdd8_ClrVal
00003a1c g       .init_array	00000000 __DTOR_LIST__
1ffff2d4 g       .bss	00000000 __END_BSS
00000e78 g     F .text	00000094 .hidden __nedf2
00003a08 g     F .text	00000000 _fini
00003a84 g       .fini_array	00000000 _romp_at
000035c8 g     F .text	00000134 TU2_Init
00000000  w      *UND*	00000000 atexit
00000cb0 g     F .text	0000008e .hidden __gesf2
1ffff1b0 g     O .bss	00000001 serialFinished
1ffff1b1 g     O .bss	00000001 serialTestStart
000006dc g     F .text	0000000c .hidden __aeabi_fcmpeq
1ffff000 g       .data	00000000 _mtb_end
00001df4 g     F .text	00000050 sendArrayOfPixels
00003590 g     F .text	00000038 TU1_Interrupt
000006c4 g     F .text	00000018 .hidden __aeabi_cfrcmple
00002824 g     F .text	00000058 BitIoLdd3_Init
00002b40 g     F .text	00000068 BitIoLdd8_Init
00002990 g     F .text	0000001c BitIoLdd5_SetVal
00002b08 g     F .text	0000001c BitIoLdd7_SetVal
000006e8 g     F .text	00000012 .hidden __aeabi_fcmplt
00003a84 g       .fini_array	00000000 __S_romp
20003000 g       *ABS*	00000000 __stack
00000570 g     F .text	00000012 .hidden __aeabi_uidivmod
00000668 g     F .text	0000000c .hidden __aeabi_dcmpeq
00002654 g     F .text	00000028 BitIoLdd1_GetVal
000027cc g     F .text	00000028 BitIoLdd2_GetVal
00002bc4 g     F .text	0000001c BitIoLdd8_SetVal
0000270c g     F .text	00000060 BitIoLdd11_Init
000038cc g     F .text	0000002c exit
1ffff2d0 g     O .bss	00000002 AD_Converter_OutV
000036fc g     F .text	000000cc TU3_Init
00002048  w    F .text	00000008 __init_registers
000006cc g     F .text	00000010 .hidden __aeabi_cfcmpeq
1ffff000 g       .data	00000000 _mtb_start
00000000  w      *UND*	00000000 __sf_fake_stdout
000037f8 g     F .text	00000050 TimerIntLdd1_Init
00003460 g     F .text	000000d4 TU1_Init
00000644  w    F .text	00000002 .hidden __aeabi_idiv0
00003030 g     F .text	00000058 PwmLdd5_Init
00003954 g     F .text	00000002 _exit
00003268 g     F .text	000000c4 SerialCom_SendBlock
000037c8 g     F .text	00000030 TU3_Enable
1ffff248 g     O .bss	00000080 rawImageBuffer
00000658 g     F .text	00000010 .hidden __aeabi_cdcmpeq
00000f0c g     F .text	000000fc .hidden __gedf2
00001ca8 g     F .text	00000034 AD_Converter_OnEnd
00001624 g     F .text	000000a4 .hidden __aeabi_f2d
00000000  w      *UND*	00000000 _Jv_RegisterClasses
00000630 g     F .text	00000012 .hidden __aeabi_idivmod
00000060 g       *ABS*	00000000 ___data_size
00002c74 g     F .text	0000000c Cpu_INT_NMIInterrupt
00000000  w      *UND*	00000000 __register_frame_info
00002a4c g     F .text	0000001c BitIoLdd6_SetVal



Disassembly of section .text:

00000410 <__do_global_dtors_aux>:
$t():
     410:	b510      	push	{r4, lr}
     412:	4c06      	ldr	r4, [pc, #24]	; (42c <__do_global_dtors_aux+0x1c>)
     414:	7823      	ldrb	r3, [r4, #0]
     416:	2b00      	cmp	r3, #0
     418:	d107      	bne.n	42a <__do_global_dtors_aux+0x1a>
     41a:	4b05      	ldr	r3, [pc, #20]	; (430 <__do_global_dtors_aux+0x20>)
     41c:	2b00      	cmp	r3, #0
     41e:	d002      	beq.n	426 <__do_global_dtors_aux+0x16>
     420:	4804      	ldr	r0, [pc, #16]	; (434 <__do_global_dtors_aux+0x24>)
     422:	e000      	b.n	426 <__do_global_dtors_aux+0x16>
     424:	bf00      	nop
     426:	2301      	movs	r3, #1
     428:	7023      	strb	r3, [r4, #0]
     42a:	bd10      	pop	{r4, pc}
$d():
     42c:	1ffff060 	.word	0x1ffff060
     430:	00000000 	.word	0x00000000
     434:	000039fc 	.word	0x000039fc

00000438 <frame_dummy>:
$t():
     438:	b508      	push	{r3, lr}
     43a:	4b08      	ldr	r3, [pc, #32]	; (45c <frame_dummy+0x24>)
     43c:	2b00      	cmp	r3, #0
     43e:	d003      	beq.n	448 <frame_dummy+0x10>
     440:	4807      	ldr	r0, [pc, #28]	; (460 <frame_dummy+0x28>)
     442:	4908      	ldr	r1, [pc, #32]	; (464 <frame_dummy+0x2c>)
     444:	e000      	b.n	448 <frame_dummy+0x10>
     446:	bf00      	nop
     448:	4807      	ldr	r0, [pc, #28]	; (468 <frame_dummy+0x30>)
     44a:	6803      	ldr	r3, [r0, #0]
     44c:	2b00      	cmp	r3, #0
     44e:	d003      	beq.n	458 <frame_dummy+0x20>
     450:	4b06      	ldr	r3, [pc, #24]	; (46c <frame_dummy+0x34>)
     452:	2b00      	cmp	r3, #0
     454:	d000      	beq.n	458 <frame_dummy+0x20>
     456:	4798      	blx	r3
     458:	bd08      	pop	{r3, pc}
     45a:	46c0      	nop			; (mov r8, r8)
$d():
     45c:	00000000 	.word	0x00000000
     460:	000039fc 	.word	0x000039fc
     464:	1ffff064 	.word	0x1ffff064
     468:	1ffff060 	.word	0x1ffff060
     46c:	00000000 	.word	0x00000000

00000470 <_mainCRTStartup>:
$t():
     470:	4b16      	ldr	r3, [pc, #88]	; (4cc <_mainCRTStartup+0x5c>)
     472:	2b00      	cmp	r3, #0
     474:	d100      	bne.n	478 <_mainCRTStartup+0x8>
     476:	4b14      	ldr	r3, [pc, #80]	; (4c8 <_mainCRTStartup+0x58>)
     478:	469d      	mov	sp, r3
     47a:	2240      	movs	r2, #64	; 0x40
     47c:	0292      	lsls	r2, r2, #10
     47e:	1a9a      	subs	r2, r3, r2
     480:	4692      	mov	sl, r2
     482:	2100      	movs	r1, #0
     484:	468b      	mov	fp, r1
     486:	460f      	mov	r7, r1
     488:	4813      	ldr	r0, [pc, #76]	; (4d8 <_mainCRTStartup+0x68>)
     48a:	4a14      	ldr	r2, [pc, #80]	; (4dc <_mainCRTStartup+0x6c>)
     48c:	1a12      	subs	r2, r2, r0
     48e:	f003 fa59 	bl	3944 <memset>
     492:	4b0f      	ldr	r3, [pc, #60]	; (4d0 <_mainCRTStartup+0x60>)
     494:	2b00      	cmp	r3, #0
     496:	d000      	beq.n	49a <_mainCRTStartup+0x2a>
     498:	4798      	blx	r3
     49a:	4b0e      	ldr	r3, [pc, #56]	; (4d4 <_mainCRTStartup+0x64>)
     49c:	2b00      	cmp	r3, #0
     49e:	d000      	beq.n	4a2 <_mainCRTStartup+0x32>
     4a0:	4798      	blx	r3
     4a2:	2000      	movs	r0, #0
     4a4:	2100      	movs	r1, #0
     4a6:	0004      	movs	r4, r0
     4a8:	000d      	movs	r5, r1
     4aa:	480d      	ldr	r0, [pc, #52]	; (4e0 <_mainCRTStartup+0x70>)
     4ac:	2800      	cmp	r0, #0
     4ae:	d002      	beq.n	4b6 <_mainCRTStartup+0x46>
     4b0:	480c      	ldr	r0, [pc, #48]	; (4e4 <_mainCRTStartup+0x74>)
     4b2:	e000      	b.n	4b6 <_mainCRTStartup+0x46>
     4b4:	bf00      	nop
     4b6:	f003 fa1f 	bl	38f8 <__libc_init_array>
     4ba:	0020      	movs	r0, r4
     4bc:	0029      	movs	r1, r5
     4be:	f001 fcc1 	bl	1e44 <main>
     4c2:	f003 fa03 	bl	38cc <exit>
     4c6:	46c0      	nop			; (mov r8, r8)
$d():
     4c8:	00080000 	.word	0x00080000
     4cc:	20003000 	.word	0x20003000
	...
     4d8:	1ffff060 	.word	0x1ffff060
     4dc:	1ffff2d4 	.word	0x1ffff2d4
	...

000004e8 <__aeabi_uidiv>:
__udivsi3():
     4e8:	2900      	cmp	r1, #0
     4ea:	d034      	beq.n	556 <.udivsi3_skip_div0_test+0x6a>

000004ec <.udivsi3_skip_div0_test>:
     4ec:	2301      	movs	r3, #1
     4ee:	2200      	movs	r2, #0
     4f0:	b410      	push	{r4}
     4f2:	4288      	cmp	r0, r1
     4f4:	d32c      	bcc.n	550 <.udivsi3_skip_div0_test+0x64>
     4f6:	2401      	movs	r4, #1
     4f8:	0724      	lsls	r4, r4, #28
     4fa:	42a1      	cmp	r1, r4
     4fc:	d204      	bcs.n	508 <.udivsi3_skip_div0_test+0x1c>
     4fe:	4281      	cmp	r1, r0
     500:	d202      	bcs.n	508 <.udivsi3_skip_div0_test+0x1c>
     502:	0109      	lsls	r1, r1, #4
     504:	011b      	lsls	r3, r3, #4
     506:	e7f8      	b.n	4fa <.udivsi3_skip_div0_test+0xe>
     508:	00e4      	lsls	r4, r4, #3
     50a:	42a1      	cmp	r1, r4
     50c:	d204      	bcs.n	518 <.udivsi3_skip_div0_test+0x2c>
     50e:	4281      	cmp	r1, r0
     510:	d202      	bcs.n	518 <.udivsi3_skip_div0_test+0x2c>
     512:	0049      	lsls	r1, r1, #1
     514:	005b      	lsls	r3, r3, #1
     516:	e7f8      	b.n	50a <.udivsi3_skip_div0_test+0x1e>
     518:	4288      	cmp	r0, r1
     51a:	d301      	bcc.n	520 <.udivsi3_skip_div0_test+0x34>
     51c:	1a40      	subs	r0, r0, r1
     51e:	431a      	orrs	r2, r3
     520:	084c      	lsrs	r4, r1, #1
     522:	42a0      	cmp	r0, r4
     524:	d302      	bcc.n	52c <.udivsi3_skip_div0_test+0x40>
     526:	1b00      	subs	r0, r0, r4
     528:	085c      	lsrs	r4, r3, #1
     52a:	4322      	orrs	r2, r4
     52c:	088c      	lsrs	r4, r1, #2
     52e:	42a0      	cmp	r0, r4
     530:	d302      	bcc.n	538 <.udivsi3_skip_div0_test+0x4c>
     532:	1b00      	subs	r0, r0, r4
     534:	089c      	lsrs	r4, r3, #2
     536:	4322      	orrs	r2, r4
     538:	08cc      	lsrs	r4, r1, #3
     53a:	42a0      	cmp	r0, r4
     53c:	d302      	bcc.n	544 <.udivsi3_skip_div0_test+0x58>
     53e:	1b00      	subs	r0, r0, r4
     540:	08dc      	lsrs	r4, r3, #3
     542:	4322      	orrs	r2, r4
     544:	2800      	cmp	r0, #0
     546:	d003      	beq.n	550 <.udivsi3_skip_div0_test+0x64>
     548:	091b      	lsrs	r3, r3, #4
     54a:	d001      	beq.n	550 <.udivsi3_skip_div0_test+0x64>
     54c:	0909      	lsrs	r1, r1, #4
     54e:	e7e3      	b.n	518 <.udivsi3_skip_div0_test+0x2c>
     550:	1c10      	adds	r0, r2, #0
     552:	bc10      	pop	{r4}
     554:	4770      	bx	lr
     556:	2800      	cmp	r0, #0
     558:	d001      	beq.n	55e <.udivsi3_skip_div0_test+0x72>
     55a:	2000      	movs	r0, #0
     55c:	43c0      	mvns	r0, r0
     55e:	b407      	push	{r0, r1, r2}
     560:	4802      	ldr	r0, [pc, #8]	; (56c <.udivsi3_skip_div0_test+0x80>)
     562:	a102      	add	r1, pc, #8	; (adr r1, 56c <.udivsi3_skip_div0_test+0x80>)
     564:	1840      	adds	r0, r0, r1
     566:	9002      	str	r0, [sp, #8]
     568:	bd03      	pop	{r0, r1, pc}
     56a:	46c0      	nop			; (mov r8, r8)
     56c:	000000d9 	.word	0x000000d9

00000570 <__aeabi_uidivmod>:
__aeabi_uidivmod():
     570:	2900      	cmp	r1, #0
     572:	d0f0      	beq.n	556 <.udivsi3_skip_div0_test+0x6a>
     574:	b503      	push	{r0, r1, lr}
     576:	f7ff ffb9 	bl	4ec <.udivsi3_skip_div0_test>
     57a:	bc0e      	pop	{r1, r2, r3}
     57c:	4342      	muls	r2, r0
     57e:	1a89      	subs	r1, r1, r2
     580:	4718      	bx	r3
     582:	46c0      	nop			; (mov r8, r8)

00000584 <__aeabi_idiv>:
__divsi3():
     584:	2900      	cmp	r1, #0
     586:	d041      	beq.n	60c <.divsi3_skip_div0_test+0x84>

00000588 <.divsi3_skip_div0_test>:
     588:	b410      	push	{r4}
     58a:	1c04      	adds	r4, r0, #0
     58c:	404c      	eors	r4, r1
     58e:	46a4      	mov	ip, r4
     590:	2301      	movs	r3, #1
     592:	2200      	movs	r2, #0
     594:	2900      	cmp	r1, #0
     596:	d500      	bpl.n	59a <.divsi3_skip_div0_test+0x12>
     598:	4249      	negs	r1, r1
     59a:	2800      	cmp	r0, #0
     59c:	d500      	bpl.n	5a0 <.divsi3_skip_div0_test+0x18>
     59e:	4240      	negs	r0, r0
     5a0:	4288      	cmp	r0, r1
     5a2:	d32c      	bcc.n	5fe <.divsi3_skip_div0_test+0x76>
     5a4:	2401      	movs	r4, #1
     5a6:	0724      	lsls	r4, r4, #28
     5a8:	42a1      	cmp	r1, r4
     5aa:	d204      	bcs.n	5b6 <.divsi3_skip_div0_test+0x2e>
     5ac:	4281      	cmp	r1, r0
     5ae:	d202      	bcs.n	5b6 <.divsi3_skip_div0_test+0x2e>
     5b0:	0109      	lsls	r1, r1, #4
     5b2:	011b      	lsls	r3, r3, #4
     5b4:	e7f8      	b.n	5a8 <.divsi3_skip_div0_test+0x20>
     5b6:	00e4      	lsls	r4, r4, #3
     5b8:	42a1      	cmp	r1, r4
     5ba:	d204      	bcs.n	5c6 <.divsi3_skip_div0_test+0x3e>
     5bc:	4281      	cmp	r1, r0
     5be:	d202      	bcs.n	5c6 <.divsi3_skip_div0_test+0x3e>
     5c0:	0049      	lsls	r1, r1, #1
     5c2:	005b      	lsls	r3, r3, #1
     5c4:	e7f8      	b.n	5b8 <.divsi3_skip_div0_test+0x30>
     5c6:	4288      	cmp	r0, r1
     5c8:	d301      	bcc.n	5ce <.divsi3_skip_div0_test+0x46>
     5ca:	1a40      	subs	r0, r0, r1
     5cc:	431a      	orrs	r2, r3
     5ce:	084c      	lsrs	r4, r1, #1
     5d0:	42a0      	cmp	r0, r4
     5d2:	d302      	bcc.n	5da <.divsi3_skip_div0_test+0x52>
     5d4:	1b00      	subs	r0, r0, r4
     5d6:	085c      	lsrs	r4, r3, #1
     5d8:	4322      	orrs	r2, r4
     5da:	088c      	lsrs	r4, r1, #2
     5dc:	42a0      	cmp	r0, r4
     5de:	d302      	bcc.n	5e6 <.divsi3_skip_div0_test+0x5e>
     5e0:	1b00      	subs	r0, r0, r4
     5e2:	089c      	lsrs	r4, r3, #2
     5e4:	4322      	orrs	r2, r4
     5e6:	08cc      	lsrs	r4, r1, #3
     5e8:	42a0      	cmp	r0, r4
     5ea:	d302      	bcc.n	5f2 <.divsi3_skip_div0_test+0x6a>
     5ec:	1b00      	subs	r0, r0, r4
     5ee:	08dc      	lsrs	r4, r3, #3
     5f0:	4322      	orrs	r2, r4
     5f2:	2800      	cmp	r0, #0
     5f4:	d003      	beq.n	5fe <.divsi3_skip_div0_test+0x76>
     5f6:	091b      	lsrs	r3, r3, #4
     5f8:	d001      	beq.n	5fe <.divsi3_skip_div0_test+0x76>
     5fa:	0909      	lsrs	r1, r1, #4
     5fc:	e7e3      	b.n	5c6 <.divsi3_skip_div0_test+0x3e>
     5fe:	1c10      	adds	r0, r2, #0
     600:	4664      	mov	r4, ip
     602:	2c00      	cmp	r4, #0
     604:	d500      	bpl.n	608 <.divsi3_skip_div0_test+0x80>
     606:	4240      	negs	r0, r0
     608:	bc10      	pop	{r4}
     60a:	4770      	bx	lr
     60c:	2800      	cmp	r0, #0
     60e:	d006      	beq.n	61e <.divsi3_skip_div0_test+0x96>
     610:	db03      	blt.n	61a <.divsi3_skip_div0_test+0x92>
     612:	2000      	movs	r0, #0
     614:	43c0      	mvns	r0, r0
     616:	0840      	lsrs	r0, r0, #1
     618:	e001      	b.n	61e <.divsi3_skip_div0_test+0x96>
     61a:	2080      	movs	r0, #128	; 0x80
     61c:	0600      	lsls	r0, r0, #24
     61e:	b407      	push	{r0, r1, r2}
     620:	4802      	ldr	r0, [pc, #8]	; (62c <.divsi3_skip_div0_test+0xa4>)
     622:	a102      	add	r1, pc, #8	; (adr r1, 62c <.divsi3_skip_div0_test+0xa4>)
     624:	1840      	adds	r0, r0, r1
     626:	9002      	str	r0, [sp, #8]
     628:	bd03      	pop	{r0, r1, pc}
     62a:	46c0      	nop			; (mov r8, r8)
     62c:	00000019 	.word	0x00000019

00000630 <__aeabi_idivmod>:
__aeabi_idivmod():
     630:	2900      	cmp	r1, #0
     632:	d0eb      	beq.n	60c <.divsi3_skip_div0_test+0x84>
     634:	b503      	push	{r0, r1, lr}
     636:	f7ff ffa7 	bl	588 <.divsi3_skip_div0_test>
     63a:	bc0e      	pop	{r1, r2, r3}
     63c:	4342      	muls	r2, r0
     63e:	1a89      	subs	r1, r1, r2
     640:	4718      	bx	r3
     642:	46c0      	nop			; (mov r8, r8)

00000644 <__aeabi_idiv0>:
__aeabi_ldiv0():
     644:	4770      	bx	lr
     646:	46c0      	nop			; (mov r8, r8)

00000648 <__aeabi_cdrcmple>:
__aeabi_cdrcmple():
     648:	4684      	mov	ip, r0
     64a:	1c10      	adds	r0, r2, #0
     64c:	4662      	mov	r2, ip
     64e:	468c      	mov	ip, r1
     650:	1c19      	adds	r1, r3, #0
     652:	4663      	mov	r3, ip
     654:	e000      	b.n	658 <__aeabi_cdcmpeq>
     656:	46c0      	nop			; (mov r8, r8)

00000658 <__aeabi_cdcmpeq>:
     658:	b51f      	push	{r0, r1, r2, r3, r4, lr}
     65a:	f000 fcd5 	bl	1008 <__ledf2>
     65e:	2800      	cmp	r0, #0
     660:	d401      	bmi.n	666 <__aeabi_cdcmpeq+0xe>
     662:	2100      	movs	r1, #0
     664:	42c8      	cmn	r0, r1
     666:	bd1f      	pop	{r0, r1, r2, r3, r4, pc}

00000668 <__aeabi_dcmpeq>:
__aeabi_dcmpeq():
     668:	b510      	push	{r4, lr}
     66a:	f000 fc05 	bl	e78 <__eqdf2>
     66e:	4240      	negs	r0, r0
     670:	3001      	adds	r0, #1
     672:	bd10      	pop	{r4, pc}

00000674 <__aeabi_dcmplt>:
__aeabi_dcmplt():
     674:	b510      	push	{r4, lr}
     676:	f000 fcc7 	bl	1008 <__ledf2>
     67a:	2800      	cmp	r0, #0
     67c:	db01      	blt.n	682 <__aeabi_dcmplt+0xe>
     67e:	2000      	movs	r0, #0
     680:	bd10      	pop	{r4, pc}
     682:	2001      	movs	r0, #1
     684:	bd10      	pop	{r4, pc}
     686:	46c0      	nop			; (mov r8, r8)

00000688 <__aeabi_dcmple>:
__aeabi_dcmple():
     688:	b510      	push	{r4, lr}
     68a:	f000 fcbd 	bl	1008 <__ledf2>
     68e:	2800      	cmp	r0, #0
     690:	dd01      	ble.n	696 <__aeabi_dcmple+0xe>
     692:	2000      	movs	r0, #0
     694:	bd10      	pop	{r4, pc}
     696:	2001      	movs	r0, #1
     698:	bd10      	pop	{r4, pc}
     69a:	46c0      	nop			; (mov r8, r8)

0000069c <__aeabi_dcmpgt>:
__aeabi_dcmpgt():
     69c:	b510      	push	{r4, lr}
     69e:	f000 fc35 	bl	f0c <__gedf2>
     6a2:	2800      	cmp	r0, #0
     6a4:	dc01      	bgt.n	6aa <__aeabi_dcmpgt+0xe>
     6a6:	2000      	movs	r0, #0
     6a8:	bd10      	pop	{r4, pc}
     6aa:	2001      	movs	r0, #1
     6ac:	bd10      	pop	{r4, pc}
     6ae:	46c0      	nop			; (mov r8, r8)

000006b0 <__aeabi_dcmpge>:
__aeabi_dcmpge():
     6b0:	b510      	push	{r4, lr}
     6b2:	f000 fc2b 	bl	f0c <__gedf2>
     6b6:	2800      	cmp	r0, #0
     6b8:	da01      	bge.n	6be <__aeabi_dcmpge+0xe>
     6ba:	2000      	movs	r0, #0
     6bc:	bd10      	pop	{r4, pc}
     6be:	2001      	movs	r0, #1
     6c0:	bd10      	pop	{r4, pc}
     6c2:	46c0      	nop			; (mov r8, r8)

000006c4 <__aeabi_cfrcmple>:
__aeabi_cfrcmple():
     6c4:	4684      	mov	ip, r0
     6c6:	1c08      	adds	r0, r1, #0
     6c8:	4661      	mov	r1, ip
     6ca:	e7ff      	b.n	6cc <__aeabi_cfcmpeq>

000006cc <__aeabi_cfcmpeq>:
     6cc:	b51f      	push	{r0, r1, r2, r3, r4, lr}
     6ce:	f000 fb37 	bl	d40 <__lesf2>
     6d2:	2800      	cmp	r0, #0
     6d4:	d401      	bmi.n	6da <__aeabi_cfcmpeq+0xe>
     6d6:	2100      	movs	r1, #0
     6d8:	42c8      	cmn	r0, r1
     6da:	bd1f      	pop	{r0, r1, r2, r3, r4, pc}

000006dc <__aeabi_fcmpeq>:
__aeabi_fcmpeq():
     6dc:	b510      	push	{r4, lr}
     6de:	f000 fabd 	bl	c5c <__eqsf2>
     6e2:	4240      	negs	r0, r0
     6e4:	3001      	adds	r0, #1
     6e6:	bd10      	pop	{r4, pc}

000006e8 <__aeabi_fcmplt>:
__aeabi_fcmplt():
     6e8:	b510      	push	{r4, lr}
     6ea:	f000 fb29 	bl	d40 <__lesf2>
     6ee:	2800      	cmp	r0, #0
     6f0:	db01      	blt.n	6f6 <__aeabi_fcmplt+0xe>
     6f2:	2000      	movs	r0, #0
     6f4:	bd10      	pop	{r4, pc}
     6f6:	2001      	movs	r0, #1
     6f8:	bd10      	pop	{r4, pc}
     6fa:	46c0      	nop			; (mov r8, r8)

000006fc <__aeabi_fcmple>:
__aeabi_fcmple():
     6fc:	b510      	push	{r4, lr}
     6fe:	f000 fb1f 	bl	d40 <__lesf2>
     702:	2800      	cmp	r0, #0
     704:	dd01      	ble.n	70a <__aeabi_fcmple+0xe>
     706:	2000      	movs	r0, #0
     708:	bd10      	pop	{r4, pc}
     70a:	2001      	movs	r0, #1
     70c:	bd10      	pop	{r4, pc}
     70e:	46c0      	nop			; (mov r8, r8)

00000710 <__aeabi_fcmpgt>:
__aeabi_fcmpgt():
     710:	b510      	push	{r4, lr}
     712:	f000 facd 	bl	cb0 <__gesf2>
     716:	2800      	cmp	r0, #0
     718:	dc01      	bgt.n	71e <__aeabi_fcmpgt+0xe>
     71a:	2000      	movs	r0, #0
     71c:	bd10      	pop	{r4, pc}
     71e:	2001      	movs	r0, #1
     720:	bd10      	pop	{r4, pc}
     722:	46c0      	nop			; (mov r8, r8)

00000724 <__aeabi_fcmpge>:
__aeabi_fcmpge():
     724:	b510      	push	{r4, lr}
     726:	f000 fac3 	bl	cb0 <__gesf2>
     72a:	2800      	cmp	r0, #0
     72c:	da01      	bge.n	732 <__aeabi_fcmpge+0xe>
     72e:	2000      	movs	r0, #0
     730:	bd10      	pop	{r4, pc}
     732:	2001      	movs	r0, #1
     734:	bd10      	pop	{r4, pc}
     736:	46c0      	nop			; (mov r8, r8)

00000738 <__aeabi_fadd>:
__aeabi_fadd():
     738:	b5f8      	push	{r3, r4, r5, r6, r7, lr}
     73a:	0243      	lsls	r3, r0, #9
     73c:	0044      	lsls	r4, r0, #1
     73e:	0fc5      	lsrs	r5, r0, #31
     740:	024e      	lsls	r6, r1, #9
     742:	0048      	lsls	r0, r1, #1
     744:	0e24      	lsrs	r4, r4, #24
     746:	1c2a      	adds	r2, r5, #0
     748:	099b      	lsrs	r3, r3, #6
     74a:	0e00      	lsrs	r0, r0, #24
     74c:	0fc9      	lsrs	r1, r1, #31
     74e:	09b6      	lsrs	r6, r6, #6
     750:	428d      	cmp	r5, r1
     752:	d05b      	beq.n	80c <__aeabi_fadd+0xd4>
     754:	1a22      	subs	r2, r4, r0
     756:	2a00      	cmp	r2, #0
     758:	dc00      	bgt.n	75c <__aeabi_fadd+0x24>
     75a:	e089      	b.n	870 <__aeabi_fadd+0x138>
     75c:	2800      	cmp	r0, #0
     75e:	d11d      	bne.n	79c <__aeabi_fadd+0x64>
     760:	2e00      	cmp	r6, #0
     762:	d000      	beq.n	766 <__aeabi_fadd+0x2e>
     764:	e075      	b.n	852 <__aeabi_fadd+0x11a>
     766:	0758      	lsls	r0, r3, #29
     768:	d004      	beq.n	774 <__aeabi_fadd+0x3c>
     76a:	220f      	movs	r2, #15
     76c:	401a      	ands	r2, r3
     76e:	2a04      	cmp	r2, #4
     770:	d000      	beq.n	774 <__aeabi_fadd+0x3c>
     772:	3304      	adds	r3, #4
     774:	2180      	movs	r1, #128	; 0x80
     776:	04c9      	lsls	r1, r1, #19
     778:	4019      	ands	r1, r3
     77a:	1c2a      	adds	r2, r5, #0
     77c:	2900      	cmp	r1, #0
     77e:	d03a      	beq.n	7f6 <__aeabi_fadd+0xbe>
     780:	3401      	adds	r4, #1
     782:	2cff      	cmp	r4, #255	; 0xff
     784:	d100      	bne.n	788 <__aeabi_fadd+0x50>
     786:	e07f      	b.n	888 <__aeabi_fadd+0x150>
     788:	019b      	lsls	r3, r3, #6
     78a:	0a5b      	lsrs	r3, r3, #9
     78c:	025b      	lsls	r3, r3, #9
     78e:	b2e4      	uxtb	r4, r4
     790:	05e4      	lsls	r4, r4, #23
     792:	0a58      	lsrs	r0, r3, #9
     794:	07d2      	lsls	r2, r2, #31
     796:	4320      	orrs	r0, r4
     798:	4310      	orrs	r0, r2
     79a:	bdf8      	pop	{r3, r4, r5, r6, r7, pc}
     79c:	2cff      	cmp	r4, #255	; 0xff
     79e:	d0e2      	beq.n	766 <__aeabi_fadd+0x2e>
     7a0:	2180      	movs	r1, #128	; 0x80
     7a2:	04c9      	lsls	r1, r1, #19
     7a4:	430e      	orrs	r6, r1
     7a6:	2a1b      	cmp	r2, #27
     7a8:	dd00      	ble.n	7ac <__aeabi_fadd+0x74>
     7aa:	e12d      	b.n	a08 <__aeabi_fadd+0x2d0>
     7ac:	1c31      	adds	r1, r6, #0
     7ae:	2020      	movs	r0, #32
     7b0:	40d1      	lsrs	r1, r2
     7b2:	1a82      	subs	r2, r0, r2
     7b4:	4096      	lsls	r6, r2
     7b6:	1e72      	subs	r2, r6, #1
     7b8:	4196      	sbcs	r6, r2
     7ba:	430e      	orrs	r6, r1
     7bc:	1b9b      	subs	r3, r3, r6
     7be:	0158      	lsls	r0, r3, #5
     7c0:	d5d1      	bpl.n	766 <__aeabi_fadd+0x2e>
     7c2:	019b      	lsls	r3, r3, #6
     7c4:	099f      	lsrs	r7, r3, #6
     7c6:	1c38      	adds	r0, r7, #0
     7c8:	f001 f80a 	bl	17e0 <__clzsi2>
     7cc:	1f42      	subs	r2, r0, #5
     7ce:	4097      	lsls	r7, r2
     7d0:	4294      	cmp	r4, r2
     7d2:	dc5b      	bgt.n	88c <__aeabi_fadd+0x154>
     7d4:	1b14      	subs	r4, r2, r4
     7d6:	231f      	movs	r3, #31
     7d8:	1b1b      	subs	r3, r3, r4
     7da:	1c3a      	adds	r2, r7, #0
     7dc:	409f      	lsls	r7, r3
     7de:	1c61      	adds	r1, r4, #1
     7e0:	1c3b      	adds	r3, r7, #0
     7e2:	40ca      	lsrs	r2, r1
     7e4:	1e5f      	subs	r7, r3, #1
     7e6:	41bb      	sbcs	r3, r7
     7e8:	4313      	orrs	r3, r2
     7ea:	2400      	movs	r4, #0
     7ec:	e7bb      	b.n	766 <__aeabi_fadd+0x2e>
     7ee:	1e13      	subs	r3, r2, #0
     7f0:	d1b9      	bne.n	766 <__aeabi_fadd+0x2e>
     7f2:	2300      	movs	r3, #0
     7f4:	2200      	movs	r2, #0
     7f6:	08db      	lsrs	r3, r3, #3
     7f8:	2cff      	cmp	r4, #255	; 0xff
     7fa:	d104      	bne.n	806 <__aeabi_fadd+0xce>
     7fc:	2b00      	cmp	r3, #0
     7fe:	d043      	beq.n	888 <__aeabi_fadd+0x150>
     800:	2080      	movs	r0, #128	; 0x80
     802:	03c0      	lsls	r0, r0, #15
     804:	4303      	orrs	r3, r0
     806:	025b      	lsls	r3, r3, #9
     808:	0a5b      	lsrs	r3, r3, #9
     80a:	e7bf      	b.n	78c <__aeabi_fadd+0x54>
     80c:	1a21      	subs	r1, r4, r0
     80e:	2900      	cmp	r1, #0
     810:	dd40      	ble.n	894 <__aeabi_fadd+0x15c>
     812:	2800      	cmp	r0, #0
     814:	d023      	beq.n	85e <__aeabi_fadd+0x126>
     816:	2cff      	cmp	r4, #255	; 0xff
     818:	d0a5      	beq.n	766 <__aeabi_fadd+0x2e>
     81a:	2080      	movs	r0, #128	; 0x80
     81c:	04c0      	lsls	r0, r0, #19
     81e:	4306      	orrs	r6, r0
     820:	291b      	cmp	r1, #27
     822:	dd00      	ble.n	826 <__aeabi_fadd+0xee>
     824:	e0ee      	b.n	a04 <__aeabi_fadd+0x2cc>
     826:	1c30      	adds	r0, r6, #0
     828:	2720      	movs	r7, #32
     82a:	40c8      	lsrs	r0, r1
     82c:	1a79      	subs	r1, r7, r1
     82e:	408e      	lsls	r6, r1
     830:	1e71      	subs	r1, r6, #1
     832:	418e      	sbcs	r6, r1
     834:	4306      	orrs	r6, r0
     836:	199b      	adds	r3, r3, r6
     838:	0159      	lsls	r1, r3, #5
     83a:	d400      	bmi.n	83e <__aeabi_fadd+0x106>
     83c:	e793      	b.n	766 <__aeabi_fadd+0x2e>
     83e:	3401      	adds	r4, #1
     840:	2cff      	cmp	r4, #255	; 0xff
     842:	d055      	beq.n	8f0 <__aeabi_fadd+0x1b8>
     844:	4971      	ldr	r1, [pc, #452]	; (a0c <__aeabi_fadd+0x2d4>)
     846:	2201      	movs	r2, #1
     848:	401a      	ands	r2, r3
     84a:	400b      	ands	r3, r1
     84c:	085b      	lsrs	r3, r3, #1
     84e:	4313      	orrs	r3, r2
     850:	e789      	b.n	766 <__aeabi_fadd+0x2e>
     852:	3a01      	subs	r2, #1
     854:	2a00      	cmp	r2, #0
     856:	d0b1      	beq.n	7bc <__aeabi_fadd+0x84>
     858:	2cff      	cmp	r4, #255	; 0xff
     85a:	d1a4      	bne.n	7a6 <__aeabi_fadd+0x6e>
     85c:	e783      	b.n	766 <__aeabi_fadd+0x2e>
     85e:	2e00      	cmp	r6, #0
     860:	d100      	bne.n	864 <__aeabi_fadd+0x12c>
     862:	e780      	b.n	766 <__aeabi_fadd+0x2e>
     864:	3901      	subs	r1, #1
     866:	2900      	cmp	r1, #0
     868:	d0e5      	beq.n	836 <__aeabi_fadd+0xfe>
     86a:	2cff      	cmp	r4, #255	; 0xff
     86c:	d1d8      	bne.n	820 <__aeabi_fadd+0xe8>
     86e:	e77a      	b.n	766 <__aeabi_fadd+0x2e>
     870:	2a00      	cmp	r2, #0
     872:	d11b      	bne.n	8ac <__aeabi_fadd+0x174>
     874:	1c62      	adds	r2, r4, #1
     876:	b2d2      	uxtb	r2, r2
     878:	2a01      	cmp	r2, #1
     87a:	dd4b      	ble.n	914 <__aeabi_fadd+0x1dc>
     87c:	1b9f      	subs	r7, r3, r6
     87e:	017a      	lsls	r2, r7, #5
     880:	d523      	bpl.n	8ca <__aeabi_fadd+0x192>
     882:	1af7      	subs	r7, r6, r3
     884:	1c0d      	adds	r5, r1, #0
     886:	e79e      	b.n	7c6 <__aeabi_fadd+0x8e>
     888:	2300      	movs	r3, #0
     88a:	e77f      	b.n	78c <__aeabi_fadd+0x54>
     88c:	4b5f      	ldr	r3, [pc, #380]	; (a0c <__aeabi_fadd+0x2d4>)
     88e:	1aa4      	subs	r4, r4, r2
     890:	403b      	ands	r3, r7
     892:	e768      	b.n	766 <__aeabi_fadd+0x2e>
     894:	2900      	cmp	r1, #0
     896:	d146      	bne.n	926 <__aeabi_fadd+0x1ee>
     898:	1c61      	adds	r1, r4, #1
     89a:	b2c8      	uxtb	r0, r1
     89c:	2801      	cmp	r0, #1
     89e:	dd29      	ble.n	8f4 <__aeabi_fadd+0x1bc>
     8a0:	29ff      	cmp	r1, #255	; 0xff
     8a2:	d024      	beq.n	8ee <__aeabi_fadd+0x1b6>
     8a4:	18f3      	adds	r3, r6, r3
     8a6:	085b      	lsrs	r3, r3, #1
     8a8:	1c0c      	adds	r4, r1, #0
     8aa:	e75c      	b.n	766 <__aeabi_fadd+0x2e>
     8ac:	2c00      	cmp	r4, #0
     8ae:	d013      	beq.n	8d8 <__aeabi_fadd+0x1a0>
     8b0:	28ff      	cmp	r0, #255	; 0xff
     8b2:	d018      	beq.n	8e6 <__aeabi_fadd+0x1ae>
     8b4:	2480      	movs	r4, #128	; 0x80
     8b6:	04e4      	lsls	r4, r4, #19
     8b8:	4252      	negs	r2, r2
     8ba:	4323      	orrs	r3, r4
     8bc:	2a1b      	cmp	r2, #27
     8be:	dd4d      	ble.n	95c <__aeabi_fadd+0x224>
     8c0:	2301      	movs	r3, #1
     8c2:	1af3      	subs	r3, r6, r3
     8c4:	1c04      	adds	r4, r0, #0
     8c6:	1c0d      	adds	r5, r1, #0
     8c8:	e779      	b.n	7be <__aeabi_fadd+0x86>
     8ca:	2f00      	cmp	r7, #0
     8cc:	d000      	beq.n	8d0 <__aeabi_fadd+0x198>
     8ce:	e77a      	b.n	7c6 <__aeabi_fadd+0x8e>
     8d0:	2300      	movs	r3, #0
     8d2:	2200      	movs	r2, #0
     8d4:	2400      	movs	r4, #0
     8d6:	e78e      	b.n	7f6 <__aeabi_fadd+0xbe>
     8d8:	2b00      	cmp	r3, #0
     8da:	d03b      	beq.n	954 <__aeabi_fadd+0x21c>
     8dc:	43d2      	mvns	r2, r2
     8de:	2a00      	cmp	r2, #0
     8e0:	d0ef      	beq.n	8c2 <__aeabi_fadd+0x18a>
     8e2:	28ff      	cmp	r0, #255	; 0xff
     8e4:	d1ea      	bne.n	8bc <__aeabi_fadd+0x184>
     8e6:	1c33      	adds	r3, r6, #0
     8e8:	24ff      	movs	r4, #255	; 0xff
     8ea:	1c0d      	adds	r5, r1, #0
     8ec:	e73b      	b.n	766 <__aeabi_fadd+0x2e>
     8ee:	24ff      	movs	r4, #255	; 0xff
     8f0:	2300      	movs	r3, #0
     8f2:	e780      	b.n	7f6 <__aeabi_fadd+0xbe>
     8f4:	2c00      	cmp	r4, #0
     8f6:	d15c      	bne.n	9b2 <__aeabi_fadd+0x27a>
     8f8:	2b00      	cmp	r3, #0
     8fa:	d100      	bne.n	8fe <__aeabi_fadd+0x1c6>
     8fc:	e080      	b.n	a00 <__aeabi_fadd+0x2c8>
     8fe:	2e00      	cmp	r6, #0
     900:	d100      	bne.n	904 <__aeabi_fadd+0x1cc>
     902:	e730      	b.n	766 <__aeabi_fadd+0x2e>
     904:	199b      	adds	r3, r3, r6
     906:	0158      	lsls	r0, r3, #5
     908:	d400      	bmi.n	90c <__aeabi_fadd+0x1d4>
     90a:	e72c      	b.n	766 <__aeabi_fadd+0x2e>
     90c:	4a3f      	ldr	r2, [pc, #252]	; (a0c <__aeabi_fadd+0x2d4>)
     90e:	2401      	movs	r4, #1
     910:	4013      	ands	r3, r2
     912:	e728      	b.n	766 <__aeabi_fadd+0x2e>
     914:	2c00      	cmp	r4, #0
     916:	d115      	bne.n	944 <__aeabi_fadd+0x20c>
     918:	2b00      	cmp	r3, #0
     91a:	d140      	bne.n	99e <__aeabi_fadd+0x266>
     91c:	2e00      	cmp	r6, #0
     91e:	d063      	beq.n	9e8 <__aeabi_fadd+0x2b0>
     920:	1c33      	adds	r3, r6, #0
     922:	1c0d      	adds	r5, r1, #0
     924:	e71f      	b.n	766 <__aeabi_fadd+0x2e>
     926:	2c00      	cmp	r4, #0
     928:	d121      	bne.n	96e <__aeabi_fadd+0x236>
     92a:	2b00      	cmp	r3, #0
     92c:	d054      	beq.n	9d8 <__aeabi_fadd+0x2a0>
     92e:	43c9      	mvns	r1, r1
     930:	2900      	cmp	r1, #0
     932:	d004      	beq.n	93e <__aeabi_fadd+0x206>
     934:	28ff      	cmp	r0, #255	; 0xff
     936:	d04c      	beq.n	9d2 <__aeabi_fadd+0x29a>
     938:	291b      	cmp	r1, #27
     93a:	dd58      	ble.n	9ee <__aeabi_fadd+0x2b6>
     93c:	2301      	movs	r3, #1
     93e:	199b      	adds	r3, r3, r6
     940:	1c04      	adds	r4, r0, #0
     942:	e779      	b.n	838 <__aeabi_fadd+0x100>
     944:	2b00      	cmp	r3, #0
     946:	d119      	bne.n	97c <__aeabi_fadd+0x244>
     948:	2e00      	cmp	r6, #0
     94a:	d048      	beq.n	9de <__aeabi_fadd+0x2a6>
     94c:	1c33      	adds	r3, r6, #0
     94e:	1c0d      	adds	r5, r1, #0
     950:	24ff      	movs	r4, #255	; 0xff
     952:	e708      	b.n	766 <__aeabi_fadd+0x2e>
     954:	1c33      	adds	r3, r6, #0
     956:	1c04      	adds	r4, r0, #0
     958:	1c0d      	adds	r5, r1, #0
     95a:	e704      	b.n	766 <__aeabi_fadd+0x2e>
     95c:	1c1c      	adds	r4, r3, #0
     95e:	2520      	movs	r5, #32
     960:	40d4      	lsrs	r4, r2
     962:	1aaa      	subs	r2, r5, r2
     964:	4093      	lsls	r3, r2
     966:	1e5a      	subs	r2, r3, #1
     968:	4193      	sbcs	r3, r2
     96a:	4323      	orrs	r3, r4
     96c:	e7a9      	b.n	8c2 <__aeabi_fadd+0x18a>
     96e:	28ff      	cmp	r0, #255	; 0xff
     970:	d02f      	beq.n	9d2 <__aeabi_fadd+0x29a>
     972:	2480      	movs	r4, #128	; 0x80
     974:	04e4      	lsls	r4, r4, #19
     976:	4249      	negs	r1, r1
     978:	4323      	orrs	r3, r4
     97a:	e7dd      	b.n	938 <__aeabi_fadd+0x200>
     97c:	24ff      	movs	r4, #255	; 0xff
     97e:	2e00      	cmp	r6, #0
     980:	d100      	bne.n	984 <__aeabi_fadd+0x24c>
     982:	e6f0      	b.n	766 <__aeabi_fadd+0x2e>
     984:	2280      	movs	r2, #128	; 0x80
     986:	08db      	lsrs	r3, r3, #3
     988:	03d2      	lsls	r2, r2, #15
     98a:	4213      	tst	r3, r2
     98c:	d004      	beq.n	998 <__aeabi_fadd+0x260>
     98e:	08f6      	lsrs	r6, r6, #3
     990:	4216      	tst	r6, r2
     992:	d101      	bne.n	998 <__aeabi_fadd+0x260>
     994:	1c33      	adds	r3, r6, #0
     996:	1c0d      	adds	r5, r1, #0
     998:	00db      	lsls	r3, r3, #3
     99a:	24ff      	movs	r4, #255	; 0xff
     99c:	e6e3      	b.n	766 <__aeabi_fadd+0x2e>
     99e:	2e00      	cmp	r6, #0
     9a0:	d100      	bne.n	9a4 <__aeabi_fadd+0x26c>
     9a2:	e6e0      	b.n	766 <__aeabi_fadd+0x2e>
     9a4:	1b9a      	subs	r2, r3, r6
     9a6:	0150      	lsls	r0, r2, #5
     9a8:	d400      	bmi.n	9ac <__aeabi_fadd+0x274>
     9aa:	e720      	b.n	7ee <__aeabi_fadd+0xb6>
     9ac:	1af3      	subs	r3, r6, r3
     9ae:	1c0d      	adds	r5, r1, #0
     9b0:	e6d9      	b.n	766 <__aeabi_fadd+0x2e>
     9b2:	2b00      	cmp	r3, #0
     9b4:	d00d      	beq.n	9d2 <__aeabi_fadd+0x29a>
     9b6:	24ff      	movs	r4, #255	; 0xff
     9b8:	2e00      	cmp	r6, #0
     9ba:	d100      	bne.n	9be <__aeabi_fadd+0x286>
     9bc:	e6d3      	b.n	766 <__aeabi_fadd+0x2e>
     9be:	2280      	movs	r2, #128	; 0x80
     9c0:	08db      	lsrs	r3, r3, #3
     9c2:	03d2      	lsls	r2, r2, #15
     9c4:	4213      	tst	r3, r2
     9c6:	d0e7      	beq.n	998 <__aeabi_fadd+0x260>
     9c8:	08f6      	lsrs	r6, r6, #3
     9ca:	4216      	tst	r6, r2
     9cc:	d1e4      	bne.n	998 <__aeabi_fadd+0x260>
     9ce:	1c33      	adds	r3, r6, #0
     9d0:	e7e2      	b.n	998 <__aeabi_fadd+0x260>
     9d2:	1c33      	adds	r3, r6, #0
     9d4:	24ff      	movs	r4, #255	; 0xff
     9d6:	e6c6      	b.n	766 <__aeabi_fadd+0x2e>
     9d8:	1c33      	adds	r3, r6, #0
     9da:	1c04      	adds	r4, r0, #0
     9dc:	e6c3      	b.n	766 <__aeabi_fadd+0x2e>
     9de:	2380      	movs	r3, #128	; 0x80
     9e0:	2200      	movs	r2, #0
     9e2:	049b      	lsls	r3, r3, #18
     9e4:	24ff      	movs	r4, #255	; 0xff
     9e6:	e706      	b.n	7f6 <__aeabi_fadd+0xbe>
     9e8:	1c23      	adds	r3, r4, #0
     9ea:	2200      	movs	r2, #0
     9ec:	e703      	b.n	7f6 <__aeabi_fadd+0xbe>
     9ee:	1c1c      	adds	r4, r3, #0
     9f0:	2720      	movs	r7, #32
     9f2:	40cc      	lsrs	r4, r1
     9f4:	1a79      	subs	r1, r7, r1
     9f6:	408b      	lsls	r3, r1
     9f8:	1e59      	subs	r1, r3, #1
     9fa:	418b      	sbcs	r3, r1
     9fc:	4323      	orrs	r3, r4
     9fe:	e79e      	b.n	93e <__aeabi_fadd+0x206>
     a00:	1c33      	adds	r3, r6, #0
     a02:	e6b0      	b.n	766 <__aeabi_fadd+0x2e>
     a04:	2601      	movs	r6, #1
     a06:	e716      	b.n	836 <__aeabi_fadd+0xfe>
     a08:	2601      	movs	r6, #1
     a0a:	e6d7      	b.n	7bc <__aeabi_fadd+0x84>
     a0c:	fbffffff 	.word	0xfbffffff

00000a10 <__aeabi_fdiv>:
__aeabi_fdiv():
     a10:	b5f0      	push	{r4, r5, r6, r7, lr}
     a12:	465f      	mov	r7, fp
     a14:	4656      	mov	r6, sl
     a16:	464d      	mov	r5, r9
     a18:	4644      	mov	r4, r8
     a1a:	b4f0      	push	{r4, r5, r6, r7}
     a1c:	0246      	lsls	r6, r0, #9
     a1e:	0045      	lsls	r5, r0, #1
     a20:	0fc0      	lsrs	r0, r0, #31
     a22:	b085      	sub	sp, #20
     a24:	1c0f      	adds	r7, r1, #0
     a26:	0a76      	lsrs	r6, r6, #9
     a28:	0e2d      	lsrs	r5, r5, #24
     a2a:	4680      	mov	r8, r0
     a2c:	d041      	beq.n	ab2 <__aeabi_fdiv+0xa2>
     a2e:	2dff      	cmp	r5, #255	; 0xff
     a30:	d026      	beq.n	a80 <__aeabi_fdiv+0x70>
     a32:	2480      	movs	r4, #128	; 0x80
     a34:	0424      	lsls	r4, r4, #16
     a36:	2100      	movs	r1, #0
     a38:	4326      	orrs	r6, r4
     a3a:	00f6      	lsls	r6, r6, #3
     a3c:	3d7f      	subs	r5, #127	; 0x7f
     a3e:	4689      	mov	r9, r1
     a40:	468b      	mov	fp, r1
     a42:	0ff9      	lsrs	r1, r7, #31
     a44:	027c      	lsls	r4, r7, #9
     a46:	0078      	lsls	r0, r7, #1
     a48:	0a64      	lsrs	r4, r4, #9
     a4a:	0e00      	lsrs	r0, r0, #24
     a4c:	9100      	str	r1, [sp, #0]
     a4e:	468a      	mov	sl, r1
     a50:	d03c      	beq.n	acc <__aeabi_fdiv+0xbc>
     a52:	28ff      	cmp	r0, #255	; 0xff
     a54:	d034      	beq.n	ac0 <__aeabi_fdiv+0xb0>
     a56:	2380      	movs	r3, #128	; 0x80
     a58:	041b      	lsls	r3, r3, #16
     a5a:	431c      	orrs	r4, r3
     a5c:	2300      	movs	r3, #0
     a5e:	00e4      	lsls	r4, r4, #3
     a60:	387f      	subs	r0, #127	; 0x7f
     a62:	9301      	str	r3, [sp, #4]
     a64:	9f00      	ldr	r7, [sp, #0]
     a66:	4643      	mov	r3, r8
     a68:	9a01      	ldr	r2, [sp, #4]
     a6a:	407b      	eors	r3, r7
     a6c:	4649      	mov	r1, r9
     a6e:	469c      	mov	ip, r3
     a70:	4311      	orrs	r1, r2
     a72:	290f      	cmp	r1, #15
     a74:	d900      	bls.n	a78 <__aeabi_fdiv+0x68>
     a76:	e071      	b.n	b5c <__aeabi_fdiv+0x14c>
     a78:	4f76      	ldr	r7, [pc, #472]	; (c54 <__aeabi_fdiv+0x244>)
     a7a:	0089      	lsls	r1, r1, #2
     a7c:	587f      	ldr	r7, [r7, r1]
     a7e:	46bf      	mov	pc, r7
     a80:	2e00      	cmp	r6, #0
     a82:	d13e      	bne.n	b02 <__aeabi_fdiv+0xf2>
     a84:	2208      	movs	r2, #8
     a86:	2302      	movs	r3, #2
     a88:	4691      	mov	r9, r2
     a8a:	469b      	mov	fp, r3
     a8c:	e7d9      	b.n	a42 <__aeabi_fdiv+0x32>
     a8e:	465a      	mov	r2, fp
     a90:	1c34      	adds	r4, r6, #0
     a92:	46c2      	mov	sl, r8
     a94:	9201      	str	r2, [sp, #4]
     a96:	9901      	ldr	r1, [sp, #4]
     a98:	2902      	cmp	r1, #2
     a9a:	d037      	beq.n	b0c <__aeabi_fdiv+0xfc>
     a9c:	2903      	cmp	r1, #3
     a9e:	d100      	bne.n	aa2 <__aeabi_fdiv+0x92>
     aa0:	e0cf      	b.n	c42 <__aeabi_fdiv+0x232>
     aa2:	2901      	cmp	r1, #1
     aa4:	d000      	beq.n	aa8 <__aeabi_fdiv+0x98>
     aa6:	e0ab      	b.n	c00 <__aeabi_fdiv+0x1f0>
     aa8:	4653      	mov	r3, sl
     aaa:	400b      	ands	r3, r1
     aac:	2200      	movs	r2, #0
     aae:	2600      	movs	r6, #0
     ab0:	e032      	b.n	b18 <__aeabi_fdiv+0x108>
     ab2:	2e00      	cmp	r6, #0
     ab4:	d119      	bne.n	aea <__aeabi_fdiv+0xda>
     ab6:	2104      	movs	r1, #4
     ab8:	2201      	movs	r2, #1
     aba:	4689      	mov	r9, r1
     abc:	4693      	mov	fp, r2
     abe:	e7c0      	b.n	a42 <__aeabi_fdiv+0x32>
     ac0:	1c22      	adds	r2, r4, #0
     ac2:	1e53      	subs	r3, r2, #1
     ac4:	419a      	sbcs	r2, r3
     ac6:	3202      	adds	r2, #2
     ac8:	9201      	str	r2, [sp, #4]
     aca:	e7cb      	b.n	a64 <__aeabi_fdiv+0x54>
     acc:	2701      	movs	r7, #1
     ace:	9701      	str	r7, [sp, #4]
     ad0:	2c00      	cmp	r4, #0
     ad2:	d0c7      	beq.n	a64 <__aeabi_fdiv+0x54>
     ad4:	1c20      	adds	r0, r4, #0
     ad6:	f000 fe83 	bl	17e0 <__clzsi2>
     ada:	1f43      	subs	r3, r0, #5
     adc:	409c      	lsls	r4, r3
     ade:	2376      	movs	r3, #118	; 0x76
     ae0:	425b      	negs	r3, r3
     ae2:	2100      	movs	r1, #0
     ae4:	1a18      	subs	r0, r3, r0
     ae6:	9101      	str	r1, [sp, #4]
     ae8:	e7bc      	b.n	a64 <__aeabi_fdiv+0x54>
     aea:	1c30      	adds	r0, r6, #0
     aec:	f000 fe78 	bl	17e0 <__clzsi2>
     af0:	2576      	movs	r5, #118	; 0x76
     af2:	1f43      	subs	r3, r0, #5
     af4:	409e      	lsls	r6, r3
     af6:	426d      	negs	r5, r5
     af8:	2300      	movs	r3, #0
     afa:	1a2d      	subs	r5, r5, r0
     afc:	4699      	mov	r9, r3
     afe:	469b      	mov	fp, r3
     b00:	e79f      	b.n	a42 <__aeabi_fdiv+0x32>
     b02:	230c      	movs	r3, #12
     b04:	2103      	movs	r1, #3
     b06:	4699      	mov	r9, r3
     b08:	468b      	mov	fp, r1
     b0a:	e79a      	b.n	a42 <__aeabi_fdiv+0x32>
     b0c:	46d4      	mov	ip, sl
     b0e:	2301      	movs	r3, #1
     b10:	4667      	mov	r7, ip
     b12:	403b      	ands	r3, r7
     b14:	22ff      	movs	r2, #255	; 0xff
     b16:	2600      	movs	r6, #0
     b18:	0276      	lsls	r6, r6, #9
     b1a:	05d2      	lsls	r2, r2, #23
     b1c:	0a70      	lsrs	r0, r6, #9
     b1e:	07db      	lsls	r3, r3, #31
     b20:	4310      	orrs	r0, r2
     b22:	4318      	orrs	r0, r3
     b24:	b005      	add	sp, #20
     b26:	bc3c      	pop	{r2, r3, r4, r5}
     b28:	4690      	mov	r8, r2
     b2a:	4699      	mov	r9, r3
     b2c:	46a2      	mov	sl, r4
     b2e:	46ab      	mov	fp, r5
     b30:	bdf0      	pop	{r4, r5, r6, r7, pc}
     b32:	2680      	movs	r6, #128	; 0x80
     b34:	2300      	movs	r3, #0
     b36:	03f6      	lsls	r6, r6, #15
     b38:	22ff      	movs	r2, #255	; 0xff
     b3a:	e7ed      	b.n	b18 <__aeabi_fdiv+0x108>
     b3c:	2200      	movs	r2, #0
     b3e:	2600      	movs	r6, #0
     b40:	e7ea      	b.n	b18 <__aeabi_fdiv+0x108>
     b42:	2080      	movs	r0, #128	; 0x80
     b44:	03c0      	lsls	r0, r0, #15
     b46:	4206      	tst	r6, r0
     b48:	d03b      	beq.n	bc2 <__aeabi_fdiv+0x1b2>
     b4a:	4204      	tst	r4, r0
     b4c:	d139      	bne.n	bc2 <__aeabi_fdiv+0x1b2>
     b4e:	1c06      	adds	r6, r0, #0
     b50:	4326      	orrs	r6, r4
     b52:	0276      	lsls	r6, r6, #9
     b54:	0a76      	lsrs	r6, r6, #9
     b56:	9b00      	ldr	r3, [sp, #0]
     b58:	22ff      	movs	r2, #255	; 0xff
     b5a:	e7dd      	b.n	b18 <__aeabi_fdiv+0x108>
     b5c:	1a28      	subs	r0, r5, r0
     b5e:	9003      	str	r0, [sp, #12]
     b60:	0176      	lsls	r6, r6, #5
     b62:	0164      	lsls	r4, r4, #5
     b64:	42a6      	cmp	r6, r4
     b66:	d339      	bcc.n	bdc <__aeabi_fdiv+0x1cc>
     b68:	1b36      	subs	r6, r6, r4
     b6a:	221a      	movs	r2, #26
     b6c:	2301      	movs	r3, #1
     b6e:	2001      	movs	r0, #1
     b70:	1c31      	adds	r1, r6, #0
     b72:	005b      	lsls	r3, r3, #1
     b74:	0076      	lsls	r6, r6, #1
     b76:	2900      	cmp	r1, #0
     b78:	db01      	blt.n	b7e <__aeabi_fdiv+0x16e>
     b7a:	42b4      	cmp	r4, r6
     b7c:	d801      	bhi.n	b82 <__aeabi_fdiv+0x172>
     b7e:	1b36      	subs	r6, r6, r4
     b80:	4303      	orrs	r3, r0
     b82:	3a01      	subs	r2, #1
     b84:	2a00      	cmp	r2, #0
     b86:	dcf3      	bgt.n	b70 <__aeabi_fdiv+0x160>
     b88:	1e74      	subs	r4, r6, #1
     b8a:	41a6      	sbcs	r6, r4
     b8c:	1c34      	adds	r4, r6, #0
     b8e:	431c      	orrs	r4, r3
     b90:	9a03      	ldr	r2, [sp, #12]
     b92:	327f      	adds	r2, #127	; 0x7f
     b94:	2a00      	cmp	r2, #0
     b96:	dd27      	ble.n	be8 <__aeabi_fdiv+0x1d8>
     b98:	0763      	lsls	r3, r4, #29
     b9a:	d004      	beq.n	ba6 <__aeabi_fdiv+0x196>
     b9c:	230f      	movs	r3, #15
     b9e:	4023      	ands	r3, r4
     ba0:	2b04      	cmp	r3, #4
     ba2:	d000      	beq.n	ba6 <__aeabi_fdiv+0x196>
     ba4:	3404      	adds	r4, #4
     ba6:	0127      	lsls	r7, r4, #4
     ba8:	d503      	bpl.n	bb2 <__aeabi_fdiv+0x1a2>
     baa:	4b2b      	ldr	r3, [pc, #172]	; (c58 <__aeabi_fdiv+0x248>)
     bac:	9a03      	ldr	r2, [sp, #12]
     bae:	401c      	ands	r4, r3
     bb0:	3280      	adds	r2, #128	; 0x80
     bb2:	2afe      	cmp	r2, #254	; 0xfe
     bb4:	dd0b      	ble.n	bce <__aeabi_fdiv+0x1be>
     bb6:	2301      	movs	r3, #1
     bb8:	4661      	mov	r1, ip
     bba:	400b      	ands	r3, r1
     bbc:	22ff      	movs	r2, #255	; 0xff
     bbe:	2600      	movs	r6, #0
     bc0:	e7aa      	b.n	b18 <__aeabi_fdiv+0x108>
     bc2:	4306      	orrs	r6, r0
     bc4:	0276      	lsls	r6, r6, #9
     bc6:	0a76      	lsrs	r6, r6, #9
     bc8:	4643      	mov	r3, r8
     bca:	22ff      	movs	r2, #255	; 0xff
     bcc:	e7a4      	b.n	b18 <__aeabi_fdiv+0x108>
     bce:	01a4      	lsls	r4, r4, #6
     bd0:	2301      	movs	r3, #1
     bd2:	4667      	mov	r7, ip
     bd4:	0a66      	lsrs	r6, r4, #9
     bd6:	b2d2      	uxtb	r2, r2
     bd8:	403b      	ands	r3, r7
     bda:	e79d      	b.n	b18 <__aeabi_fdiv+0x108>
     bdc:	9f03      	ldr	r7, [sp, #12]
     bde:	221b      	movs	r2, #27
     be0:	3f01      	subs	r7, #1
     be2:	9703      	str	r7, [sp, #12]
     be4:	2300      	movs	r3, #0
     be6:	e7c2      	b.n	b6e <__aeabi_fdiv+0x15e>
     be8:	237e      	movs	r3, #126	; 0x7e
     bea:	9f03      	ldr	r7, [sp, #12]
     bec:	425b      	negs	r3, r3
     bee:	1bdb      	subs	r3, r3, r7
     bf0:	2b1b      	cmp	r3, #27
     bf2:	dd07      	ble.n	c04 <__aeabi_fdiv+0x1f4>
     bf4:	2301      	movs	r3, #1
     bf6:	4661      	mov	r1, ip
     bf8:	400b      	ands	r3, r1
     bfa:	2200      	movs	r2, #0
     bfc:	2600      	movs	r6, #0
     bfe:	e78b      	b.n	b18 <__aeabi_fdiv+0x108>
     c00:	46d4      	mov	ip, sl
     c02:	e7c5      	b.n	b90 <__aeabi_fdiv+0x180>
     c04:	1c22      	adds	r2, r4, #0
     c06:	40da      	lsrs	r2, r3
     c08:	9b03      	ldr	r3, [sp, #12]
     c0a:	339e      	adds	r3, #158	; 0x9e
     c0c:	409c      	lsls	r4, r3
     c0e:	1c23      	adds	r3, r4, #0
     c10:	1e5c      	subs	r4, r3, #1
     c12:	41a3      	sbcs	r3, r4
     c14:	4313      	orrs	r3, r2
     c16:	075a      	lsls	r2, r3, #29
     c18:	d004      	beq.n	c24 <__aeabi_fdiv+0x214>
     c1a:	220f      	movs	r2, #15
     c1c:	401a      	ands	r2, r3
     c1e:	2a04      	cmp	r2, #4
     c20:	d000      	beq.n	c24 <__aeabi_fdiv+0x214>
     c22:	3304      	adds	r3, #4
     c24:	015f      	lsls	r7, r3, #5
     c26:	d505      	bpl.n	c34 <__aeabi_fdiv+0x224>
     c28:	2301      	movs	r3, #1
     c2a:	4661      	mov	r1, ip
     c2c:	400b      	ands	r3, r1
     c2e:	2201      	movs	r2, #1
     c30:	2600      	movs	r6, #0
     c32:	e771      	b.n	b18 <__aeabi_fdiv+0x108>
     c34:	019e      	lsls	r6, r3, #6
     c36:	4662      	mov	r2, ip
     c38:	2301      	movs	r3, #1
     c3a:	4013      	ands	r3, r2
     c3c:	0a76      	lsrs	r6, r6, #9
     c3e:	2200      	movs	r2, #0
     c40:	e76a      	b.n	b18 <__aeabi_fdiv+0x108>
     c42:	2680      	movs	r6, #128	; 0x80
     c44:	03f6      	lsls	r6, r6, #15
     c46:	4326      	orrs	r6, r4
     c48:	0276      	lsls	r6, r6, #9
     c4a:	0a76      	lsrs	r6, r6, #9
     c4c:	4653      	mov	r3, sl
     c4e:	22ff      	movs	r2, #255	; 0xff
     c50:	e762      	b.n	b18 <__aeabi_fdiv+0x108>
     c52:	46c0      	nop			; (mov r8, r8)
     c54:	00003958 	.word	0x00003958
     c58:	f7ffffff 	.word	0xf7ffffff

00000c5c <__eqsf2>:
__nesf2():
     c5c:	024a      	lsls	r2, r1, #9
     c5e:	0243      	lsls	r3, r0, #9
     c60:	b570      	push	{r4, r5, r6, lr}
     c62:	0a5c      	lsrs	r4, r3, #9
     c64:	0a55      	lsrs	r5, r2, #9
     c66:	0043      	lsls	r3, r0, #1
     c68:	004a      	lsls	r2, r1, #1
     c6a:	0e1b      	lsrs	r3, r3, #24
     c6c:	0fc6      	lsrs	r6, r0, #31
     c6e:	0e12      	lsrs	r2, r2, #24
     c70:	0fc9      	lsrs	r1, r1, #31
     c72:	2bff      	cmp	r3, #255	; 0xff
     c74:	d005      	beq.n	c82 <__eqsf2+0x26>
     c76:	2aff      	cmp	r2, #255	; 0xff
     c78:	d008      	beq.n	c8c <__eqsf2+0x30>
     c7a:	2001      	movs	r0, #1
     c7c:	4293      	cmp	r3, r2
     c7e:	d00b      	beq.n	c98 <__eqsf2+0x3c>
     c80:	bd70      	pop	{r4, r5, r6, pc}
     c82:	2001      	movs	r0, #1
     c84:	2c00      	cmp	r4, #0
     c86:	d1fb      	bne.n	c80 <__eqsf2+0x24>
     c88:	2aff      	cmp	r2, #255	; 0xff
     c8a:	d1f6      	bne.n	c7a <__eqsf2+0x1e>
     c8c:	2001      	movs	r0, #1
     c8e:	2d00      	cmp	r5, #0
     c90:	d1f6      	bne.n	c80 <__eqsf2+0x24>
     c92:	2001      	movs	r0, #1
     c94:	4293      	cmp	r3, r2
     c96:	d1f3      	bne.n	c80 <__eqsf2+0x24>
     c98:	42ac      	cmp	r4, r5
     c9a:	d1f1      	bne.n	c80 <__eqsf2+0x24>
     c9c:	428e      	cmp	r6, r1
     c9e:	d005      	beq.n	cac <__eqsf2+0x50>
     ca0:	2b00      	cmp	r3, #0
     ca2:	d1ed      	bne.n	c80 <__eqsf2+0x24>
     ca4:	1c20      	adds	r0, r4, #0
     ca6:	1e44      	subs	r4, r0, #1
     ca8:	41a0      	sbcs	r0, r4
     caa:	e7e9      	b.n	c80 <__eqsf2+0x24>
     cac:	2000      	movs	r0, #0
     cae:	e7e7      	b.n	c80 <__eqsf2+0x24>

00000cb0 <__gesf2>:
__gtsf2():
     cb0:	024a      	lsls	r2, r1, #9
     cb2:	0243      	lsls	r3, r0, #9
     cb4:	b5f0      	push	{r4, r5, r6, r7, lr}
     cb6:	0a5c      	lsrs	r4, r3, #9
     cb8:	0a55      	lsrs	r5, r2, #9
     cba:	0043      	lsls	r3, r0, #1
     cbc:	004a      	lsls	r2, r1, #1
     cbe:	0e1b      	lsrs	r3, r3, #24
     cc0:	0fc6      	lsrs	r6, r0, #31
     cc2:	0e12      	lsrs	r2, r2, #24
     cc4:	0fc9      	lsrs	r1, r1, #31
     cc6:	2bff      	cmp	r3, #255	; 0xff
     cc8:	d031      	beq.n	d2e <__gesf2+0x7e>
     cca:	2aff      	cmp	r2, #255	; 0xff
     ccc:	d034      	beq.n	d38 <__gesf2+0x88>
     cce:	2b00      	cmp	r3, #0
     cd0:	d116      	bne.n	d00 <__gesf2+0x50>
     cd2:	4260      	negs	r0, r4
     cd4:	4160      	adcs	r0, r4
     cd6:	4684      	mov	ip, r0
     cd8:	2a00      	cmp	r2, #0
     cda:	d014      	beq.n	d06 <__gesf2+0x56>
     cdc:	2800      	cmp	r0, #0
     cde:	d120      	bne.n	d22 <__gesf2+0x72>
     ce0:	428e      	cmp	r6, r1
     ce2:	d117      	bne.n	d14 <__gesf2+0x64>
     ce4:	4293      	cmp	r3, r2
     ce6:	dc15      	bgt.n	d14 <__gesf2+0x64>
     ce8:	db04      	blt.n	cf4 <__gesf2+0x44>
     cea:	42ac      	cmp	r4, r5
     cec:	d812      	bhi.n	d14 <__gesf2+0x64>
     cee:	2000      	movs	r0, #0
     cf0:	42ac      	cmp	r4, r5
     cf2:	d212      	bcs.n	d1a <__gesf2+0x6a>
     cf4:	4270      	negs	r0, r6
     cf6:	4170      	adcs	r0, r6
     cf8:	4240      	negs	r0, r0
     cfa:	2301      	movs	r3, #1
     cfc:	4318      	orrs	r0, r3
     cfe:	e00c      	b.n	d1a <__gesf2+0x6a>
     d00:	2a00      	cmp	r2, #0
     d02:	d1ed      	bne.n	ce0 <__gesf2+0x30>
     d04:	4694      	mov	ip, r2
     d06:	426f      	negs	r7, r5
     d08:	416f      	adcs	r7, r5
     d0a:	4660      	mov	r0, ip
     d0c:	2800      	cmp	r0, #0
     d0e:	d105      	bne.n	d1c <__gesf2+0x6c>
     d10:	2f00      	cmp	r7, #0
     d12:	d0e5      	beq.n	ce0 <__gesf2+0x30>
     d14:	4270      	negs	r0, r6
     d16:	2301      	movs	r3, #1
     d18:	4318      	orrs	r0, r3
     d1a:	bdf0      	pop	{r4, r5, r6, r7, pc}
     d1c:	2000      	movs	r0, #0
     d1e:	2f00      	cmp	r7, #0
     d20:	d1fb      	bne.n	d1a <__gesf2+0x6a>
     d22:	4248      	negs	r0, r1
     d24:	4148      	adcs	r0, r1
     d26:	4240      	negs	r0, r0
     d28:	2301      	movs	r3, #1
     d2a:	4318      	orrs	r0, r3
     d2c:	e7f5      	b.n	d1a <__gesf2+0x6a>
     d2e:	2c00      	cmp	r4, #0
     d30:	d0cb      	beq.n	cca <__gesf2+0x1a>
     d32:	2002      	movs	r0, #2
     d34:	4240      	negs	r0, r0
     d36:	e7f0      	b.n	d1a <__gesf2+0x6a>
     d38:	2d00      	cmp	r5, #0
     d3a:	d0c8      	beq.n	cce <__gesf2+0x1e>
     d3c:	e7f9      	b.n	d32 <__gesf2+0x82>
     d3e:	46c0      	nop			; (mov r8, r8)

00000d40 <__lesf2>:
__lesf2():
     d40:	024a      	lsls	r2, r1, #9
     d42:	0243      	lsls	r3, r0, #9
     d44:	b5f0      	push	{r4, r5, r6, r7, lr}
     d46:	0a5c      	lsrs	r4, r3, #9
     d48:	0a55      	lsrs	r5, r2, #9
     d4a:	0043      	lsls	r3, r0, #1
     d4c:	004a      	lsls	r2, r1, #1
     d4e:	0e1b      	lsrs	r3, r3, #24
     d50:	0fc6      	lsrs	r6, r0, #31
     d52:	0e12      	lsrs	r2, r2, #24
     d54:	0fc9      	lsrs	r1, r1, #31
     d56:	2bff      	cmp	r3, #255	; 0xff
     d58:	d027      	beq.n	daa <__lesf2+0x6a>
     d5a:	2aff      	cmp	r2, #255	; 0xff
     d5c:	d029      	beq.n	db2 <__lesf2+0x72>
     d5e:	2b00      	cmp	r3, #0
     d60:	d010      	beq.n	d84 <__lesf2+0x44>
     d62:	2a00      	cmp	r2, #0
     d64:	d115      	bne.n	d92 <__lesf2+0x52>
     d66:	4694      	mov	ip, r2
     d68:	426f      	negs	r7, r5
     d6a:	416f      	adcs	r7, r5
     d6c:	4660      	mov	r0, ip
     d6e:	2800      	cmp	r0, #0
     d70:	d015      	beq.n	d9e <__lesf2+0x5e>
     d72:	2000      	movs	r0, #0
     d74:	2f00      	cmp	r7, #0
     d76:	d104      	bne.n	d82 <__lesf2+0x42>
     d78:	4248      	negs	r0, r1
     d7a:	4148      	adcs	r0, r1
     d7c:	4240      	negs	r0, r0
     d7e:	2301      	movs	r3, #1
     d80:	4318      	orrs	r0, r3
     d82:	bdf0      	pop	{r4, r5, r6, r7, pc}
     d84:	4260      	negs	r0, r4
     d86:	4160      	adcs	r0, r4
     d88:	4684      	mov	ip, r0
     d8a:	2a00      	cmp	r2, #0
     d8c:	d0ec      	beq.n	d68 <__lesf2+0x28>
     d8e:	2800      	cmp	r0, #0
     d90:	d1f2      	bne.n	d78 <__lesf2+0x38>
     d92:	428e      	cmp	r6, r1
     d94:	d011      	beq.n	dba <__lesf2+0x7a>
     d96:	4270      	negs	r0, r6
     d98:	2301      	movs	r3, #1
     d9a:	4318      	orrs	r0, r3
     d9c:	e7f1      	b.n	d82 <__lesf2+0x42>
     d9e:	2f00      	cmp	r7, #0
     da0:	d0f7      	beq.n	d92 <__lesf2+0x52>
     da2:	4270      	negs	r0, r6
     da4:	2301      	movs	r3, #1
     da6:	4318      	orrs	r0, r3
     da8:	e7eb      	b.n	d82 <__lesf2+0x42>
     daa:	2002      	movs	r0, #2
     dac:	2c00      	cmp	r4, #0
     dae:	d1e8      	bne.n	d82 <__lesf2+0x42>
     db0:	e7d3      	b.n	d5a <__lesf2+0x1a>
     db2:	2002      	movs	r0, #2
     db4:	2d00      	cmp	r5, #0
     db6:	d1e4      	bne.n	d82 <__lesf2+0x42>
     db8:	e7d1      	b.n	d5e <__lesf2+0x1e>
     dba:	4293      	cmp	r3, r2
     dbc:	dceb      	bgt.n	d96 <__lesf2+0x56>
     dbe:	db04      	blt.n	dca <__lesf2+0x8a>
     dc0:	42ac      	cmp	r4, r5
     dc2:	d8e8      	bhi.n	d96 <__lesf2+0x56>
     dc4:	2000      	movs	r0, #0
     dc6:	42ac      	cmp	r4, r5
     dc8:	d2db      	bcs.n	d82 <__lesf2+0x42>
     dca:	4270      	negs	r0, r6
     dcc:	4170      	adcs	r0, r6
     dce:	4240      	negs	r0, r0
     dd0:	2301      	movs	r3, #1
     dd2:	4318      	orrs	r0, r3
     dd4:	e7d5      	b.n	d82 <__lesf2+0x42>
     dd6:	46c0      	nop			; (mov r8, r8)

00000dd8 <__aeabi_ui2f>:
__aeabi_ui2f():
     dd8:	b510      	push	{r4, lr}
     dda:	1e04      	subs	r4, r0, #0
     ddc:	d033      	beq.n	e46 <__aeabi_ui2f+0x6e>
     dde:	f000 fcff 	bl	17e0 <__clzsi2>
     de2:	239e      	movs	r3, #158	; 0x9e
     de4:	1a1b      	subs	r3, r3, r0
     de6:	2b96      	cmp	r3, #150	; 0x96
     de8:	dc09      	bgt.n	dfe <__aeabi_ui2f+0x26>
     dea:	3808      	subs	r0, #8
     dec:	4084      	lsls	r4, r0
     dee:	0264      	lsls	r4, r4, #9
     df0:	0a64      	lsrs	r4, r4, #9
     df2:	b2db      	uxtb	r3, r3
     df4:	0264      	lsls	r4, r4, #9
     df6:	05db      	lsls	r3, r3, #23
     df8:	0a60      	lsrs	r0, r4, #9
     dfa:	4318      	orrs	r0, r3
     dfc:	bd10      	pop	{r4, pc}
     dfe:	2b99      	cmp	r3, #153	; 0x99
     e00:	dd0a      	ble.n	e18 <__aeabi_ui2f+0x40>
     e02:	2205      	movs	r2, #5
     e04:	1a12      	subs	r2, r2, r0
     e06:	1c21      	adds	r1, r4, #0
     e08:	40d1      	lsrs	r1, r2
     e0a:	1c0a      	adds	r2, r1, #0
     e0c:	1c01      	adds	r1, r0, #0
     e0e:	311b      	adds	r1, #27
     e10:	408c      	lsls	r4, r1
     e12:	1e61      	subs	r1, r4, #1
     e14:	418c      	sbcs	r4, r1
     e16:	4314      	orrs	r4, r2
     e18:	2805      	cmp	r0, #5
     e1a:	dd01      	ble.n	e20 <__aeabi_ui2f+0x48>
     e1c:	1f42      	subs	r2, r0, #5
     e1e:	4094      	lsls	r4, r2
     e20:	4a14      	ldr	r2, [pc, #80]	; (e74 <__aeabi_ui2f+0x9c>)
     e22:	4022      	ands	r2, r4
     e24:	0761      	lsls	r1, r4, #29
     e26:	d004      	beq.n	e32 <__aeabi_ui2f+0x5a>
     e28:	210f      	movs	r1, #15
     e2a:	400c      	ands	r4, r1
     e2c:	2c04      	cmp	r4, #4
     e2e:	d000      	beq.n	e32 <__aeabi_ui2f+0x5a>
     e30:	3204      	adds	r2, #4
     e32:	0151      	lsls	r1, r2, #5
     e34:	d50a      	bpl.n	e4c <__aeabi_ui2f+0x74>
     e36:	239f      	movs	r3, #159	; 0x9f
     e38:	1a18      	subs	r0, r3, r0
     e3a:	28ff      	cmp	r0, #255	; 0xff
     e3c:	d016      	beq.n	e6c <__aeabi_ui2f+0x94>
     e3e:	0194      	lsls	r4, r2, #6
     e40:	0a64      	lsrs	r4, r4, #9
     e42:	b2c3      	uxtb	r3, r0
     e44:	e7d6      	b.n	df4 <__aeabi_ui2f+0x1c>
     e46:	2300      	movs	r3, #0
     e48:	2400      	movs	r4, #0
     e4a:	e7d3      	b.n	df4 <__aeabi_ui2f+0x1c>
     e4c:	08d2      	lsrs	r2, r2, #3
     e4e:	2bff      	cmp	r3, #255	; 0xff
     e50:	d003      	beq.n	e5a <__aeabi_ui2f+0x82>
     e52:	0254      	lsls	r4, r2, #9
     e54:	0a64      	lsrs	r4, r4, #9
     e56:	b2db      	uxtb	r3, r3
     e58:	e7cc      	b.n	df4 <__aeabi_ui2f+0x1c>
     e5a:	2a00      	cmp	r2, #0
     e5c:	d006      	beq.n	e6c <__aeabi_ui2f+0x94>
     e5e:	2480      	movs	r4, #128	; 0x80
     e60:	03e4      	lsls	r4, r4, #15
     e62:	4314      	orrs	r4, r2
     e64:	0264      	lsls	r4, r4, #9
     e66:	0a64      	lsrs	r4, r4, #9
     e68:	23ff      	movs	r3, #255	; 0xff
     e6a:	e7c3      	b.n	df4 <__aeabi_ui2f+0x1c>
     e6c:	23ff      	movs	r3, #255	; 0xff
     e6e:	2400      	movs	r4, #0
     e70:	e7c0      	b.n	df4 <__aeabi_ui2f+0x1c>
     e72:	46c0      	nop			; (mov r8, r8)
     e74:	fbffffff 	.word	0xfbffffff

00000e78 <__eqdf2>:
__eqdf2():
     e78:	b5f0      	push	{r4, r5, r6, r7, lr}
     e7a:	465f      	mov	r7, fp
     e7c:	4656      	mov	r6, sl
     e7e:	464d      	mov	r5, r9
     e80:	4644      	mov	r4, r8
     e82:	b4f0      	push	{r4, r5, r6, r7}
     e84:	1c0d      	adds	r5, r1, #0
     e86:	1c04      	adds	r4, r0, #0
     e88:	4680      	mov	r8, r0
     e8a:	0fe8      	lsrs	r0, r5, #31
     e8c:	4681      	mov	r9, r0
     e8e:	0318      	lsls	r0, r3, #12
     e90:	030f      	lsls	r7, r1, #12
     e92:	0b00      	lsrs	r0, r0, #12
     e94:	0b3f      	lsrs	r7, r7, #12
     e96:	b083      	sub	sp, #12
     e98:	4684      	mov	ip, r0
     e9a:	481b      	ldr	r0, [pc, #108]	; (f08 <__eqdf2+0x90>)
     e9c:	9700      	str	r7, [sp, #0]
     e9e:	0049      	lsls	r1, r1, #1
     ea0:	005e      	lsls	r6, r3, #1
     ea2:	0fdf      	lsrs	r7, r3, #31
     ea4:	0d49      	lsrs	r1, r1, #21
     ea6:	4692      	mov	sl, r2
     ea8:	0d76      	lsrs	r6, r6, #21
     eaa:	46bb      	mov	fp, r7
     eac:	4281      	cmp	r1, r0
     eae:	d00c      	beq.n	eca <__eqdf2+0x52>
     eb0:	4815      	ldr	r0, [pc, #84]	; (f08 <__eqdf2+0x90>)
     eb2:	4286      	cmp	r6, r0
     eb4:	d010      	beq.n	ed8 <__eqdf2+0x60>
     eb6:	2001      	movs	r0, #1
     eb8:	42b1      	cmp	r1, r6
     eba:	d015      	beq.n	ee8 <__eqdf2+0x70>
     ebc:	b003      	add	sp, #12
     ebe:	bc3c      	pop	{r2, r3, r4, r5}
     ec0:	4690      	mov	r8, r2
     ec2:	4699      	mov	r9, r3
     ec4:	46a2      	mov	sl, r4
     ec6:	46ab      	mov	fp, r5
     ec8:	bdf0      	pop	{r4, r5, r6, r7, pc}
     eca:	9f00      	ldr	r7, [sp, #0]
     ecc:	2001      	movs	r0, #1
     ece:	4327      	orrs	r7, r4
     ed0:	d1f4      	bne.n	ebc <__eqdf2+0x44>
     ed2:	480d      	ldr	r0, [pc, #52]	; (f08 <__eqdf2+0x90>)
     ed4:	4286      	cmp	r6, r0
     ed6:	d1ee      	bne.n	eb6 <__eqdf2+0x3e>
     ed8:	4660      	mov	r0, ip
     eda:	4302      	orrs	r2, r0
     edc:	2001      	movs	r0, #1
     ede:	2a00      	cmp	r2, #0
     ee0:	d1ec      	bne.n	ebc <__eqdf2+0x44>
     ee2:	2001      	movs	r0, #1
     ee4:	42b1      	cmp	r1, r6
     ee6:	d1e9      	bne.n	ebc <__eqdf2+0x44>
     ee8:	9b00      	ldr	r3, [sp, #0]
     eea:	4563      	cmp	r3, ip
     eec:	d1e6      	bne.n	ebc <__eqdf2+0x44>
     eee:	45d0      	cmp	r8, sl
     ef0:	d1e4      	bne.n	ebc <__eqdf2+0x44>
     ef2:	45d9      	cmp	r9, fp
     ef4:	d006      	beq.n	f04 <__eqdf2+0x8c>
     ef6:	2900      	cmp	r1, #0
     ef8:	d1e0      	bne.n	ebc <__eqdf2+0x44>
     efa:	431c      	orrs	r4, r3
     efc:	1c20      	adds	r0, r4, #0
     efe:	1e44      	subs	r4, r0, #1
     f00:	41a0      	sbcs	r0, r4
     f02:	e7db      	b.n	ebc <__eqdf2+0x44>
     f04:	2000      	movs	r0, #0
     f06:	e7d9      	b.n	ebc <__eqdf2+0x44>
     f08:	000007ff 	.word	0x000007ff

00000f0c <__gedf2>:
__gtdf2():
     f0c:	b5f0      	push	{r4, r5, r6, r7, lr}
     f0e:	465f      	mov	r7, fp
     f10:	4656      	mov	r6, sl
     f12:	464d      	mov	r5, r9
     f14:	4644      	mov	r4, r8
     f16:	b4f0      	push	{r4, r5, r6, r7}
     f18:	0fcd      	lsrs	r5, r1, #31
     f1a:	0fde      	lsrs	r6, r3, #31
     f1c:	46ac      	mov	ip, r5
     f1e:	031d      	lsls	r5, r3, #12
     f20:	0b2d      	lsrs	r5, r5, #12
     f22:	46b1      	mov	r9, r6
     f24:	4e37      	ldr	r6, [pc, #220]	; (1004 <__gedf2+0xf8>)
     f26:	030f      	lsls	r7, r1, #12
     f28:	004c      	lsls	r4, r1, #1
     f2a:	46ab      	mov	fp, r5
     f2c:	005d      	lsls	r5, r3, #1
     f2e:	4680      	mov	r8, r0
     f30:	0b3f      	lsrs	r7, r7, #12
     f32:	0d64      	lsrs	r4, r4, #21
     f34:	4692      	mov	sl, r2
     f36:	0d6d      	lsrs	r5, r5, #21
     f38:	42b4      	cmp	r4, r6
     f3a:	d032      	beq.n	fa2 <__gedf2+0x96>
     f3c:	4e31      	ldr	r6, [pc, #196]	; (1004 <__gedf2+0xf8>)
     f3e:	42b5      	cmp	r5, r6
     f40:	d035      	beq.n	fae <__gedf2+0xa2>
     f42:	2c00      	cmp	r4, #0
     f44:	d10e      	bne.n	f64 <__gedf2+0x58>
     f46:	4338      	orrs	r0, r7
     f48:	4241      	negs	r1, r0
     f4a:	4141      	adcs	r1, r0
     f4c:	1c08      	adds	r0, r1, #0
     f4e:	2d00      	cmp	r5, #0
     f50:	d00b      	beq.n	f6a <__gedf2+0x5e>
     f52:	2900      	cmp	r1, #0
     f54:	d119      	bne.n	f8a <__gedf2+0x7e>
     f56:	45cc      	cmp	ip, r9
     f58:	d02d      	beq.n	fb6 <__gedf2+0xaa>
     f5a:	4665      	mov	r5, ip
     f5c:	4268      	negs	r0, r5
     f5e:	2301      	movs	r3, #1
     f60:	4318      	orrs	r0, r3
     f62:	e018      	b.n	f96 <__gedf2+0x8a>
     f64:	2d00      	cmp	r5, #0
     f66:	d1f6      	bne.n	f56 <__gedf2+0x4a>
     f68:	1c28      	adds	r0, r5, #0
     f6a:	4659      	mov	r1, fp
     f6c:	430a      	orrs	r2, r1
     f6e:	4253      	negs	r3, r2
     f70:	4153      	adcs	r3, r2
     f72:	2800      	cmp	r0, #0
     f74:	d106      	bne.n	f84 <__gedf2+0x78>
     f76:	2b00      	cmp	r3, #0
     f78:	d0ed      	beq.n	f56 <__gedf2+0x4a>
     f7a:	4663      	mov	r3, ip
     f7c:	4258      	negs	r0, r3
     f7e:	2301      	movs	r3, #1
     f80:	4318      	orrs	r0, r3
     f82:	e008      	b.n	f96 <__gedf2+0x8a>
     f84:	2000      	movs	r0, #0
     f86:	2b00      	cmp	r3, #0
     f88:	d105      	bne.n	f96 <__gedf2+0x8a>
     f8a:	464a      	mov	r2, r9
     f8c:	4250      	negs	r0, r2
     f8e:	4150      	adcs	r0, r2
     f90:	4240      	negs	r0, r0
     f92:	2301      	movs	r3, #1
     f94:	4318      	orrs	r0, r3
     f96:	bc3c      	pop	{r2, r3, r4, r5}
     f98:	4690      	mov	r8, r2
     f9a:	4699      	mov	r9, r3
     f9c:	46a2      	mov	sl, r4
     f9e:	46ab      	mov	fp, r5
     fa0:	bdf0      	pop	{r4, r5, r6, r7, pc}
     fa2:	1c3e      	adds	r6, r7, #0
     fa4:	4306      	orrs	r6, r0
     fa6:	d0c9      	beq.n	f3c <__gedf2+0x30>
     fa8:	2002      	movs	r0, #2
     faa:	4240      	negs	r0, r0
     fac:	e7f3      	b.n	f96 <__gedf2+0x8a>
     fae:	465e      	mov	r6, fp
     fb0:	4316      	orrs	r6, r2
     fb2:	d0c6      	beq.n	f42 <__gedf2+0x36>
     fb4:	e7f8      	b.n	fa8 <__gedf2+0x9c>
     fb6:	42ac      	cmp	r4, r5
     fb8:	dc07      	bgt.n	fca <__gedf2+0xbe>
     fba:	da0b      	bge.n	fd4 <__gedf2+0xc8>
     fbc:	4661      	mov	r1, ip
     fbe:	4248      	negs	r0, r1
     fc0:	4148      	adcs	r0, r1
     fc2:	4240      	negs	r0, r0
     fc4:	2301      	movs	r3, #1
     fc6:	4318      	orrs	r0, r3
     fc8:	e7e5      	b.n	f96 <__gedf2+0x8a>
     fca:	4666      	mov	r6, ip
     fcc:	4270      	negs	r0, r6
     fce:	2301      	movs	r3, #1
     fd0:	4318      	orrs	r0, r3
     fd2:	e7e0      	b.n	f96 <__gedf2+0x8a>
     fd4:	455f      	cmp	r7, fp
     fd6:	d80a      	bhi.n	fee <__gedf2+0xe2>
     fd8:	d00e      	beq.n	ff8 <__gedf2+0xec>
     fda:	2000      	movs	r0, #0
     fdc:	455f      	cmp	r7, fp
     fde:	d2da      	bcs.n	f96 <__gedf2+0x8a>
     fe0:	4665      	mov	r5, ip
     fe2:	4268      	negs	r0, r5
     fe4:	4168      	adcs	r0, r5
     fe6:	4240      	negs	r0, r0
     fe8:	2301      	movs	r3, #1
     fea:	4318      	orrs	r0, r3
     fec:	e7d3      	b.n	f96 <__gedf2+0x8a>
     fee:	4662      	mov	r2, ip
     ff0:	4250      	negs	r0, r2
     ff2:	2301      	movs	r3, #1
     ff4:	4318      	orrs	r0, r3
     ff6:	e7ce      	b.n	f96 <__gedf2+0x8a>
     ff8:	45d0      	cmp	r8, sl
     ffa:	d8f8      	bhi.n	fee <__gedf2+0xe2>
     ffc:	2000      	movs	r0, #0
     ffe:	45d0      	cmp	r8, sl
    1000:	d3ee      	bcc.n	fe0 <__gedf2+0xd4>
    1002:	e7c8      	b.n	f96 <__gedf2+0x8a>
    1004:	000007ff 	.word	0x000007ff

00001008 <__ledf2>:
__ltdf2():
    1008:	b5f0      	push	{r4, r5, r6, r7, lr}
    100a:	4656      	mov	r6, sl
    100c:	464d      	mov	r5, r9
    100e:	4644      	mov	r4, r8
    1010:	465f      	mov	r7, fp
    1012:	b4f0      	push	{r4, r5, r6, r7}
    1014:	1c0d      	adds	r5, r1, #0
    1016:	b083      	sub	sp, #12
    1018:	1c04      	adds	r4, r0, #0
    101a:	9001      	str	r0, [sp, #4]
    101c:	0fe8      	lsrs	r0, r5, #31
    101e:	4681      	mov	r9, r0
    1020:	0318      	lsls	r0, r3, #12
    1022:	030f      	lsls	r7, r1, #12
    1024:	0b00      	lsrs	r0, r0, #12
    1026:	0b3f      	lsrs	r7, r7, #12
    1028:	4684      	mov	ip, r0
    102a:	4835      	ldr	r0, [pc, #212]	; (1100 <__ledf2+0xf8>)
    102c:	9700      	str	r7, [sp, #0]
    102e:	0049      	lsls	r1, r1, #1
    1030:	005e      	lsls	r6, r3, #1
    1032:	0fdf      	lsrs	r7, r3, #31
    1034:	0d49      	lsrs	r1, r1, #21
    1036:	4692      	mov	sl, r2
    1038:	0d76      	lsrs	r6, r6, #21
    103a:	46b8      	mov	r8, r7
    103c:	4281      	cmp	r1, r0
    103e:	d034      	beq.n	10aa <__ledf2+0xa2>
    1040:	482f      	ldr	r0, [pc, #188]	; (1100 <__ledf2+0xf8>)
    1042:	4286      	cmp	r6, r0
    1044:	d036      	beq.n	10b4 <__ledf2+0xac>
    1046:	2900      	cmp	r1, #0
    1048:	d018      	beq.n	107c <__ledf2+0x74>
    104a:	2e00      	cmp	r6, #0
    104c:	d11f      	bne.n	108e <__ledf2+0x86>
    104e:	1c34      	adds	r4, r6, #0
    1050:	4667      	mov	r7, ip
    1052:	433a      	orrs	r2, r7
    1054:	4253      	negs	r3, r2
    1056:	4153      	adcs	r3, r2
    1058:	2c00      	cmp	r4, #0
    105a:	d01f      	beq.n	109c <__ledf2+0x94>
    105c:	2000      	movs	r0, #0
    105e:	2b00      	cmp	r3, #0
    1060:	d105      	bne.n	106e <__ledf2+0x66>
    1062:	4642      	mov	r2, r8
    1064:	4250      	negs	r0, r2
    1066:	4150      	adcs	r0, r2
    1068:	4240      	negs	r0, r0
    106a:	2301      	movs	r3, #1
    106c:	4318      	orrs	r0, r3
    106e:	b003      	add	sp, #12
    1070:	bc3c      	pop	{r2, r3, r4, r5}
    1072:	4690      	mov	r8, r2
    1074:	4699      	mov	r9, r3
    1076:	46a2      	mov	sl, r4
    1078:	46ab      	mov	fp, r5
    107a:	bdf0      	pop	{r4, r5, r6, r7, pc}
    107c:	9800      	ldr	r0, [sp, #0]
    107e:	4304      	orrs	r4, r0
    1080:	4260      	negs	r0, r4
    1082:	4160      	adcs	r0, r4
    1084:	1c04      	adds	r4, r0, #0
    1086:	2e00      	cmp	r6, #0
    1088:	d0e2      	beq.n	1050 <__ledf2+0x48>
    108a:	2800      	cmp	r0, #0
    108c:	d1e9      	bne.n	1062 <__ledf2+0x5a>
    108e:	45c1      	cmp	r9, r8
    1090:	d015      	beq.n	10be <__ledf2+0xb6>
    1092:	464f      	mov	r7, r9
    1094:	4278      	negs	r0, r7
    1096:	2301      	movs	r3, #1
    1098:	4318      	orrs	r0, r3
    109a:	e7e8      	b.n	106e <__ledf2+0x66>
    109c:	2b00      	cmp	r3, #0
    109e:	d0f6      	beq.n	108e <__ledf2+0x86>
    10a0:	464b      	mov	r3, r9
    10a2:	4258      	negs	r0, r3
    10a4:	2301      	movs	r3, #1
    10a6:	4318      	orrs	r0, r3
    10a8:	e7e1      	b.n	106e <__ledf2+0x66>
    10aa:	9f00      	ldr	r7, [sp, #0]
    10ac:	2002      	movs	r0, #2
    10ae:	4327      	orrs	r7, r4
    10b0:	d1dd      	bne.n	106e <__ledf2+0x66>
    10b2:	e7c5      	b.n	1040 <__ledf2+0x38>
    10b4:	4667      	mov	r7, ip
    10b6:	2002      	movs	r0, #2
    10b8:	4317      	orrs	r7, r2
    10ba:	d1d8      	bne.n	106e <__ledf2+0x66>
    10bc:	e7c3      	b.n	1046 <__ledf2+0x3e>
    10be:	42b1      	cmp	r1, r6
    10c0:	dd04      	ble.n	10cc <__ledf2+0xc4>
    10c2:	464a      	mov	r2, r9
    10c4:	4250      	negs	r0, r2
    10c6:	2301      	movs	r3, #1
    10c8:	4318      	orrs	r0, r3
    10ca:	e7d0      	b.n	106e <__ledf2+0x66>
    10cc:	42b1      	cmp	r1, r6
    10ce:	db07      	blt.n	10e0 <__ledf2+0xd8>
    10d0:	9800      	ldr	r0, [sp, #0]
    10d2:	4560      	cmp	r0, ip
    10d4:	d8e4      	bhi.n	10a0 <__ledf2+0x98>
    10d6:	d00a      	beq.n	10ee <__ledf2+0xe6>
    10d8:	9f00      	ldr	r7, [sp, #0]
    10da:	2000      	movs	r0, #0
    10dc:	4567      	cmp	r7, ip
    10de:	d2c6      	bcs.n	106e <__ledf2+0x66>
    10e0:	464f      	mov	r7, r9
    10e2:	4278      	negs	r0, r7
    10e4:	4178      	adcs	r0, r7
    10e6:	4240      	negs	r0, r0
    10e8:	2301      	movs	r3, #1
    10ea:	4318      	orrs	r0, r3
    10ec:	e7bf      	b.n	106e <__ledf2+0x66>
    10ee:	9a01      	ldr	r2, [sp, #4]
    10f0:	4552      	cmp	r2, sl
    10f2:	d8d5      	bhi.n	10a0 <__ledf2+0x98>
    10f4:	9a01      	ldr	r2, [sp, #4]
    10f6:	2000      	movs	r0, #0
    10f8:	4552      	cmp	r2, sl
    10fa:	d3f1      	bcc.n	10e0 <__ledf2+0xd8>
    10fc:	e7b7      	b.n	106e <__ledf2+0x66>
    10fe:	46c0      	nop			; (mov r8, r8)
    1100:	000007ff 	.word	0x000007ff

00001104 <__aeabi_dmul>:
__aeabi_dmul():
    1104:	b5f0      	push	{r4, r5, r6, r7, lr}
    1106:	4656      	mov	r6, sl
    1108:	4644      	mov	r4, r8
    110a:	465f      	mov	r7, fp
    110c:	464d      	mov	r5, r9
    110e:	b4f0      	push	{r4, r5, r6, r7}
    1110:	1c1f      	adds	r7, r3, #0
    1112:	030b      	lsls	r3, r1, #12
    1114:	0b1b      	lsrs	r3, r3, #12
    1116:	469a      	mov	sl, r3
    1118:	004b      	lsls	r3, r1, #1
    111a:	b087      	sub	sp, #28
    111c:	1c04      	adds	r4, r0, #0
    111e:	4680      	mov	r8, r0
    1120:	0d5b      	lsrs	r3, r3, #21
    1122:	0fc8      	lsrs	r0, r1, #31
    1124:	1c16      	adds	r6, r2, #0
    1126:	9302      	str	r3, [sp, #8]
    1128:	4681      	mov	r9, r0
    112a:	2b00      	cmp	r3, #0
    112c:	d068      	beq.n	1200 <__aeabi_dmul+0xfc>
    112e:	4b69      	ldr	r3, [pc, #420]	; (12d4 <__aeabi_dmul+0x1d0>)
    1130:	9902      	ldr	r1, [sp, #8]
    1132:	4299      	cmp	r1, r3
    1134:	d032      	beq.n	119c <__aeabi_dmul+0x98>
    1136:	2280      	movs	r2, #128	; 0x80
    1138:	4653      	mov	r3, sl
    113a:	0352      	lsls	r2, r2, #13
    113c:	431a      	orrs	r2, r3
    113e:	00d2      	lsls	r2, r2, #3
    1140:	0f63      	lsrs	r3, r4, #29
    1142:	431a      	orrs	r2, r3
    1144:	4692      	mov	sl, r2
    1146:	4a64      	ldr	r2, [pc, #400]	; (12d8 <__aeabi_dmul+0x1d4>)
    1148:	00e0      	lsls	r0, r4, #3
    114a:	1889      	adds	r1, r1, r2
    114c:	4680      	mov	r8, r0
    114e:	9102      	str	r1, [sp, #8]
    1150:	2400      	movs	r4, #0
    1152:	2500      	movs	r5, #0
    1154:	033b      	lsls	r3, r7, #12
    1156:	0b1b      	lsrs	r3, r3, #12
    1158:	469b      	mov	fp, r3
    115a:	0078      	lsls	r0, r7, #1
    115c:	0ffb      	lsrs	r3, r7, #31
    115e:	1c32      	adds	r2, r6, #0
    1160:	0d40      	lsrs	r0, r0, #21
    1162:	9303      	str	r3, [sp, #12]
    1164:	d100      	bne.n	1168 <__aeabi_dmul+0x64>
    1166:	e075      	b.n	1254 <__aeabi_dmul+0x150>
    1168:	4b5a      	ldr	r3, [pc, #360]	; (12d4 <__aeabi_dmul+0x1d0>)
    116a:	4298      	cmp	r0, r3
    116c:	d069      	beq.n	1242 <__aeabi_dmul+0x13e>
    116e:	2280      	movs	r2, #128	; 0x80
    1170:	4659      	mov	r1, fp
    1172:	0352      	lsls	r2, r2, #13
    1174:	430a      	orrs	r2, r1
    1176:	0f73      	lsrs	r3, r6, #29
    1178:	00d2      	lsls	r2, r2, #3
    117a:	431a      	orrs	r2, r3
    117c:	4b56      	ldr	r3, [pc, #344]	; (12d8 <__aeabi_dmul+0x1d4>)
    117e:	4693      	mov	fp, r2
    1180:	18c0      	adds	r0, r0, r3
    1182:	00f2      	lsls	r2, r6, #3
    1184:	2300      	movs	r3, #0
    1186:	9903      	ldr	r1, [sp, #12]
    1188:	464e      	mov	r6, r9
    118a:	4071      	eors	r1, r6
    118c:	431c      	orrs	r4, r3
    118e:	2c0f      	cmp	r4, #15
    1190:	d900      	bls.n	1194 <__aeabi_dmul+0x90>
    1192:	e0a9      	b.n	12e8 <__aeabi_dmul+0x1e4>
    1194:	4e51      	ldr	r6, [pc, #324]	; (12dc <__aeabi_dmul+0x1d8>)
    1196:	00a4      	lsls	r4, r4, #2
    1198:	5934      	ldr	r4, [r6, r4]
    119a:	46a7      	mov	pc, r4
    119c:	4653      	mov	r3, sl
    119e:	431c      	orrs	r4, r3
    11a0:	d000      	beq.n	11a4 <__aeabi_dmul+0xa0>
    11a2:	e087      	b.n	12b4 <__aeabi_dmul+0x1b0>
    11a4:	2500      	movs	r5, #0
    11a6:	46aa      	mov	sl, r5
    11a8:	46a8      	mov	r8, r5
    11aa:	2408      	movs	r4, #8
    11ac:	2502      	movs	r5, #2
    11ae:	e7d1      	b.n	1154 <__aeabi_dmul+0x50>
    11b0:	4649      	mov	r1, r9
    11b2:	2d02      	cmp	r5, #2
    11b4:	d06c      	beq.n	1290 <__aeabi_dmul+0x18c>
    11b6:	2d03      	cmp	r5, #3
    11b8:	d100      	bne.n	11bc <__aeabi_dmul+0xb8>
    11ba:	e217      	b.n	15ec <__aeabi_dmul+0x4e8>
    11bc:	2d01      	cmp	r5, #1
    11be:	d000      	beq.n	11c2 <__aeabi_dmul+0xbe>
    11c0:	e158      	b.n	1474 <__aeabi_dmul+0x370>
    11c2:	400d      	ands	r5, r1
    11c4:	b2ed      	uxtb	r5, r5
    11c6:	2400      	movs	r4, #0
    11c8:	46a9      	mov	r9, r5
    11ca:	2300      	movs	r3, #0
    11cc:	46a0      	mov	r8, r4
    11ce:	2000      	movs	r0, #0
    11d0:	2100      	movs	r1, #0
    11d2:	0325      	lsls	r5, r4, #12
    11d4:	0d0a      	lsrs	r2, r1, #20
    11d6:	051c      	lsls	r4, r3, #20
    11d8:	0b2d      	lsrs	r5, r5, #12
    11da:	0512      	lsls	r2, r2, #20
    11dc:	4b40      	ldr	r3, [pc, #256]	; (12e0 <__aeabi_dmul+0x1dc>)
    11de:	432a      	orrs	r2, r5
    11e0:	4013      	ands	r3, r2
    11e2:	4323      	orrs	r3, r4
    11e4:	005b      	lsls	r3, r3, #1
    11e6:	464c      	mov	r4, r9
    11e8:	085b      	lsrs	r3, r3, #1
    11ea:	07e2      	lsls	r2, r4, #31
    11ec:	1c19      	adds	r1, r3, #0
    11ee:	4640      	mov	r0, r8
    11f0:	4311      	orrs	r1, r2
    11f2:	b007      	add	sp, #28
    11f4:	bc3c      	pop	{r2, r3, r4, r5}
    11f6:	4690      	mov	r8, r2
    11f8:	4699      	mov	r9, r3
    11fa:	46a2      	mov	sl, r4
    11fc:	46ab      	mov	fp, r5
    11fe:	bdf0      	pop	{r4, r5, r6, r7, pc}
    1200:	4653      	mov	r3, sl
    1202:	4323      	orrs	r3, r4
    1204:	d050      	beq.n	12a8 <__aeabi_dmul+0x1a4>
    1206:	4653      	mov	r3, sl
    1208:	2b00      	cmp	r3, #0
    120a:	d100      	bne.n	120e <__aeabi_dmul+0x10a>
    120c:	e184      	b.n	1518 <__aeabi_dmul+0x414>
    120e:	4650      	mov	r0, sl
    1210:	f000 fae6 	bl	17e0 <__clzsi2>
    1214:	1e03      	subs	r3, r0, #0
    1216:	2b27      	cmp	r3, #39	; 0x27
    1218:	dd00      	ble.n	121c <__aeabi_dmul+0x118>
    121a:	e176      	b.n	150a <__aeabi_dmul+0x406>
    121c:	2128      	movs	r1, #40	; 0x28
    121e:	1a0d      	subs	r5, r1, r0
    1220:	1c21      	adds	r1, r4, #0
    1222:	3b08      	subs	r3, #8
    1224:	4652      	mov	r2, sl
    1226:	40e9      	lsrs	r1, r5
    1228:	409a      	lsls	r2, r3
    122a:	1c0d      	adds	r5, r1, #0
    122c:	4315      	orrs	r5, r2
    122e:	1c22      	adds	r2, r4, #0
    1230:	409a      	lsls	r2, r3
    1232:	46aa      	mov	sl, r5
    1234:	4690      	mov	r8, r2
    1236:	4b2b      	ldr	r3, [pc, #172]	; (12e4 <__aeabi_dmul+0x1e0>)
    1238:	2400      	movs	r4, #0
    123a:	1a1b      	subs	r3, r3, r0
    123c:	9302      	str	r3, [sp, #8]
    123e:	2500      	movs	r5, #0
    1240:	e788      	b.n	1154 <__aeabi_dmul+0x50>
    1242:	465b      	mov	r3, fp
    1244:	431e      	orrs	r6, r3
    1246:	2303      	movs	r3, #3
    1248:	2e00      	cmp	r6, #0
    124a:	d19c      	bne.n	1186 <__aeabi_dmul+0x82>
    124c:	46b3      	mov	fp, r6
    124e:	2200      	movs	r2, #0
    1250:	2302      	movs	r3, #2
    1252:	e798      	b.n	1186 <__aeabi_dmul+0x82>
    1254:	465b      	mov	r3, fp
    1256:	4333      	orrs	r3, r6
    1258:	d021      	beq.n	129e <__aeabi_dmul+0x19a>
    125a:	4658      	mov	r0, fp
    125c:	2800      	cmp	r0, #0
    125e:	d100      	bne.n	1262 <__aeabi_dmul+0x15e>
    1260:	e14e      	b.n	1500 <__aeabi_dmul+0x3fc>
    1262:	f000 fabd 	bl	17e0 <__clzsi2>
    1266:	2827      	cmp	r0, #39	; 0x27
    1268:	dd00      	ble.n	126c <__aeabi_dmul+0x168>
    126a:	e142      	b.n	14f2 <__aeabi_dmul+0x3ee>
    126c:	2128      	movs	r1, #40	; 0x28
    126e:	1a0f      	subs	r7, r1, r0
    1270:	1c02      	adds	r2, r0, #0
    1272:	1c31      	adds	r1, r6, #0
    1274:	3a08      	subs	r2, #8
    1276:	465b      	mov	r3, fp
    1278:	40f9      	lsrs	r1, r7
    127a:	4093      	lsls	r3, r2
    127c:	1c0f      	adds	r7, r1, #0
    127e:	431f      	orrs	r7, r3
    1280:	1c33      	adds	r3, r6, #0
    1282:	4093      	lsls	r3, r2
    1284:	46bb      	mov	fp, r7
    1286:	1c1a      	adds	r2, r3, #0
    1288:	4b16      	ldr	r3, [pc, #88]	; (12e4 <__aeabi_dmul+0x1e0>)
    128a:	1a18      	subs	r0, r3, r0
    128c:	2300      	movs	r3, #0
    128e:	e77a      	b.n	1186 <__aeabi_dmul+0x82>
    1290:	2301      	movs	r3, #1
    1292:	400b      	ands	r3, r1
    1294:	2400      	movs	r4, #0
    1296:	4699      	mov	r9, r3
    1298:	46a0      	mov	r8, r4
    129a:	4b0e      	ldr	r3, [pc, #56]	; (12d4 <__aeabi_dmul+0x1d0>)
    129c:	e797      	b.n	11ce <__aeabi_dmul+0xca>
    129e:	2700      	movs	r7, #0
    12a0:	46bb      	mov	fp, r7
    12a2:	2200      	movs	r2, #0
    12a4:	2301      	movs	r3, #1
    12a6:	e76e      	b.n	1186 <__aeabi_dmul+0x82>
    12a8:	2100      	movs	r1, #0
    12aa:	2404      	movs	r4, #4
    12ac:	468a      	mov	sl, r1
    12ae:	4688      	mov	r8, r1
    12b0:	2501      	movs	r5, #1
    12b2:	e74f      	b.n	1154 <__aeabi_dmul+0x50>
    12b4:	240c      	movs	r4, #12
    12b6:	2503      	movs	r5, #3
    12b8:	e74c      	b.n	1154 <__aeabi_dmul+0x50>
    12ba:	2500      	movs	r5, #0
    12bc:	2480      	movs	r4, #128	; 0x80
    12be:	46a9      	mov	r9, r5
    12c0:	0324      	lsls	r4, r4, #12
    12c2:	46a8      	mov	r8, r5
    12c4:	4b03      	ldr	r3, [pc, #12]	; (12d4 <__aeabi_dmul+0x1d0>)
    12c6:	e782      	b.n	11ce <__aeabi_dmul+0xca>
    12c8:	46da      	mov	sl, fp
    12ca:	4690      	mov	r8, r2
    12cc:	9903      	ldr	r1, [sp, #12]
    12ce:	1c1d      	adds	r5, r3, #0
    12d0:	e76f      	b.n	11b2 <__aeabi_dmul+0xae>
    12d2:	46c0      	nop			; (mov r8, r8)
    12d4:	000007ff 	.word	0x000007ff
    12d8:	fffffc01 	.word	0xfffffc01
    12dc:	00003998 	.word	0x00003998
    12e0:	800fffff 	.word	0x800fffff
    12e4:	fffffc0d 	.word	0xfffffc0d
    12e8:	9f02      	ldr	r7, [sp, #8]
    12ea:	0c16      	lsrs	r6, r2, #16
    12ec:	1838      	adds	r0, r7, r0
    12ee:	9004      	str	r0, [sp, #16]
    12f0:	4640      	mov	r0, r8
    12f2:	0c07      	lsrs	r7, r0, #16
    12f4:	0400      	lsls	r0, r0, #16
    12f6:	0c00      	lsrs	r0, r0, #16
    12f8:	0412      	lsls	r2, r2, #16
    12fa:	0c12      	lsrs	r2, r2, #16
    12fc:	1c03      	adds	r3, r0, #0
    12fe:	4353      	muls	r3, r2
    1300:	1c04      	adds	r4, r0, #0
    1302:	1c3d      	adds	r5, r7, #0
    1304:	4374      	muls	r4, r6
    1306:	4355      	muls	r5, r2
    1308:	4698      	mov	r8, r3
    130a:	1c3b      	adds	r3, r7, #0
    130c:	4373      	muls	r3, r6
    130e:	1964      	adds	r4, r4, r5
    1310:	46a4      	mov	ip, r4
    1312:	4644      	mov	r4, r8
    1314:	9302      	str	r3, [sp, #8]
    1316:	0c23      	lsrs	r3, r4, #16
    1318:	4463      	add	r3, ip
    131a:	429d      	cmp	r5, r3
    131c:	d904      	bls.n	1328 <__aeabi_dmul+0x224>
    131e:	9d02      	ldr	r5, [sp, #8]
    1320:	2480      	movs	r4, #128	; 0x80
    1322:	0264      	lsls	r4, r4, #9
    1324:	192d      	adds	r5, r5, r4
    1326:	9502      	str	r5, [sp, #8]
    1328:	0c1d      	lsrs	r5, r3, #16
    132a:	9503      	str	r5, [sp, #12]
    132c:	4645      	mov	r5, r8
    132e:	042c      	lsls	r4, r5, #16
    1330:	041b      	lsls	r3, r3, #16
    1332:	0c24      	lsrs	r4, r4, #16
    1334:	191c      	adds	r4, r3, r4
    1336:	9405      	str	r4, [sp, #20]
    1338:	465c      	mov	r4, fp
    133a:	0c23      	lsrs	r3, r4, #16
    133c:	1c05      	adds	r5, r0, #0
    133e:	4358      	muls	r0, r3
    1340:	0424      	lsls	r4, r4, #16
    1342:	0c24      	lsrs	r4, r4, #16
    1344:	4684      	mov	ip, r0
    1346:	1c38      	adds	r0, r7, #0
    1348:	4360      	muls	r0, r4
    134a:	4365      	muls	r5, r4
    134c:	435f      	muls	r7, r3
    134e:	4681      	mov	r9, r0
    1350:	44cc      	add	ip, r9
    1352:	0c28      	lsrs	r0, r5, #16
    1354:	4460      	add	r0, ip
    1356:	46bb      	mov	fp, r7
    1358:	4581      	cmp	r9, r0
    135a:	d902      	bls.n	1362 <__aeabi_dmul+0x25e>
    135c:	2780      	movs	r7, #128	; 0x80
    135e:	027f      	lsls	r7, r7, #9
    1360:	44bb      	add	fp, r7
    1362:	042d      	lsls	r5, r5, #16
    1364:	0c07      	lsrs	r7, r0, #16
    1366:	0c2d      	lsrs	r5, r5, #16
    1368:	0400      	lsls	r0, r0, #16
    136a:	1940      	adds	r0, r0, r5
    136c:	4655      	mov	r5, sl
    136e:	46bc      	mov	ip, r7
    1370:	042f      	lsls	r7, r5, #16
    1372:	44e3      	add	fp, ip
    1374:	4684      	mov	ip, r0
    1376:	0c28      	lsrs	r0, r5, #16
    1378:	0c3d      	lsrs	r5, r7, #16
    137a:	1c2f      	adds	r7, r5, #0
    137c:	4357      	muls	r7, r2
    137e:	46b8      	mov	r8, r7
    1380:	1c2f      	adds	r7, r5, #0
    1382:	4377      	muls	r7, r6
    1384:	4342      	muls	r2, r0
    1386:	46b9      	mov	r9, r7
    1388:	4647      	mov	r7, r8
    138a:	0c3f      	lsrs	r7, r7, #16
    138c:	4491      	add	r9, r2
    138e:	46ba      	mov	sl, r7
    1390:	44d1      	add	r9, sl
    1392:	4346      	muls	r6, r0
    1394:	454a      	cmp	r2, r9
    1396:	d902      	bls.n	139e <__aeabi_dmul+0x29a>
    1398:	2280      	movs	r2, #128	; 0x80
    139a:	0252      	lsls	r2, r2, #9
    139c:	18b6      	adds	r6, r6, r2
    139e:	464f      	mov	r7, r9
    13a0:	0c3a      	lsrs	r2, r7, #16
    13a2:	18b6      	adds	r6, r6, r2
    13a4:	043a      	lsls	r2, r7, #16
    13a6:	4647      	mov	r7, r8
    13a8:	043f      	lsls	r7, r7, #16
    13aa:	0c3f      	lsrs	r7, r7, #16
    13ac:	46b8      	mov	r8, r7
    13ae:	1c2f      	adds	r7, r5, #0
    13b0:	4367      	muls	r7, r4
    13b2:	435d      	muls	r5, r3
    13b4:	4344      	muls	r4, r0
    13b6:	4358      	muls	r0, r3
    13b8:	1965      	adds	r5, r4, r5
    13ba:	9001      	str	r0, [sp, #4]
    13bc:	0c38      	lsrs	r0, r7, #16
    13be:	182d      	adds	r5, r5, r0
    13c0:	4442      	add	r2, r8
    13c2:	46b8      	mov	r8, r7
    13c4:	42ac      	cmp	r4, r5
    13c6:	d904      	bls.n	13d2 <__aeabi_dmul+0x2ce>
    13c8:	9801      	ldr	r0, [sp, #4]
    13ca:	2380      	movs	r3, #128	; 0x80
    13cc:	025b      	lsls	r3, r3, #9
    13ce:	18c0      	adds	r0, r0, r3
    13d0:	9001      	str	r0, [sp, #4]
    13d2:	9c03      	ldr	r4, [sp, #12]
    13d4:	9f02      	ldr	r7, [sp, #8]
    13d6:	1c20      	adds	r0, r4, #0
    13d8:	4460      	add	r0, ip
    13da:	19c0      	adds	r0, r0, r7
    13dc:	4560      	cmp	r0, ip
    13de:	41a4      	sbcs	r4, r4
    13e0:	4647      	mov	r7, r8
    13e2:	4264      	negs	r4, r4
    13e4:	46a4      	mov	ip, r4
    13e6:	042b      	lsls	r3, r5, #16
    13e8:	043c      	lsls	r4, r7, #16
    13ea:	4699      	mov	r9, r3
    13ec:	0c24      	lsrs	r4, r4, #16
    13ee:	444c      	add	r4, r9
    13f0:	46a0      	mov	r8, r4
    13f2:	44d8      	add	r8, fp
    13f4:	1880      	adds	r0, r0, r2
    13f6:	46c2      	mov	sl, r8
    13f8:	44e2      	add	sl, ip
    13fa:	4290      	cmp	r0, r2
    13fc:	4192      	sbcs	r2, r2
    13fe:	4657      	mov	r7, sl
    1400:	4252      	negs	r2, r2
    1402:	4691      	mov	r9, r2
    1404:	19f2      	adds	r2, r6, r7
    1406:	45e2      	cmp	sl, ip
    1408:	41bf      	sbcs	r7, r7
    140a:	427f      	negs	r7, r7
    140c:	464b      	mov	r3, r9
    140e:	46bc      	mov	ip, r7
    1410:	45d8      	cmp	r8, fp
    1412:	41bf      	sbcs	r7, r7
    1414:	18d4      	adds	r4, r2, r3
    1416:	427f      	negs	r7, r7
    1418:	4663      	mov	r3, ip
    141a:	431f      	orrs	r7, r3
    141c:	0c2d      	lsrs	r5, r5, #16
    141e:	197f      	adds	r7, r7, r5
    1420:	42b2      	cmp	r2, r6
    1422:	4192      	sbcs	r2, r2
    1424:	454c      	cmp	r4, r9
    1426:	41ad      	sbcs	r5, r5
    1428:	4252      	negs	r2, r2
    142a:	426d      	negs	r5, r5
    142c:	4315      	orrs	r5, r2
    142e:	9e01      	ldr	r6, [sp, #4]
    1430:	197d      	adds	r5, r7, r5
    1432:	19ab      	adds	r3, r5, r6
    1434:	0de2      	lsrs	r2, r4, #23
    1436:	025b      	lsls	r3, r3, #9
    1438:	9f05      	ldr	r7, [sp, #20]
    143a:	4313      	orrs	r3, r2
    143c:	0242      	lsls	r2, r0, #9
    143e:	433a      	orrs	r2, r7
    1440:	469a      	mov	sl, r3
    1442:	1e53      	subs	r3, r2, #1
    1444:	419a      	sbcs	r2, r3
    1446:	0dc3      	lsrs	r3, r0, #23
    1448:	1c10      	adds	r0, r2, #0
    144a:	4318      	orrs	r0, r3
    144c:	0264      	lsls	r4, r4, #9
    144e:	4320      	orrs	r0, r4
    1450:	4680      	mov	r8, r0
    1452:	4650      	mov	r0, sl
    1454:	01c0      	lsls	r0, r0, #7
    1456:	d50d      	bpl.n	1474 <__aeabi_dmul+0x370>
    1458:	4645      	mov	r5, r8
    145a:	2201      	movs	r2, #1
    145c:	4656      	mov	r6, sl
    145e:	9c04      	ldr	r4, [sp, #16]
    1460:	086b      	lsrs	r3, r5, #1
    1462:	402a      	ands	r2, r5
    1464:	431a      	orrs	r2, r3
    1466:	07f3      	lsls	r3, r6, #31
    1468:	3401      	adds	r4, #1
    146a:	431a      	orrs	r2, r3
    146c:	0876      	lsrs	r6, r6, #1
    146e:	9404      	str	r4, [sp, #16]
    1470:	4690      	mov	r8, r2
    1472:	46b2      	mov	sl, r6
    1474:	9e04      	ldr	r6, [sp, #16]
    1476:	4f63      	ldr	r7, [pc, #396]	; (1604 <__aeabi_dmul+0x500>)
    1478:	19f3      	adds	r3, r6, r7
    147a:	2b00      	cmp	r3, #0
    147c:	dd61      	ble.n	1542 <__aeabi_dmul+0x43e>
    147e:	4640      	mov	r0, r8
    1480:	0740      	lsls	r0, r0, #29
    1482:	d00b      	beq.n	149c <__aeabi_dmul+0x398>
    1484:	220f      	movs	r2, #15
    1486:	4644      	mov	r4, r8
    1488:	4022      	ands	r2, r4
    148a:	2a04      	cmp	r2, #4
    148c:	d006      	beq.n	149c <__aeabi_dmul+0x398>
    148e:	4642      	mov	r2, r8
    1490:	3204      	adds	r2, #4
    1492:	4542      	cmp	r2, r8
    1494:	4180      	sbcs	r0, r0
    1496:	4240      	negs	r0, r0
    1498:	4482      	add	sl, r0
    149a:	4690      	mov	r8, r2
    149c:	4655      	mov	r5, sl
    149e:	01ed      	lsls	r5, r5, #7
    14a0:	d507      	bpl.n	14b2 <__aeabi_dmul+0x3ae>
    14a2:	4b59      	ldr	r3, [pc, #356]	; (1608 <__aeabi_dmul+0x504>)
    14a4:	4656      	mov	r6, sl
    14a6:	9f04      	ldr	r7, [sp, #16]
    14a8:	2080      	movs	r0, #128	; 0x80
    14aa:	401e      	ands	r6, r3
    14ac:	00c0      	lsls	r0, r0, #3
    14ae:	46b2      	mov	sl, r6
    14b0:	183b      	adds	r3, r7, r0
    14b2:	4a56      	ldr	r2, [pc, #344]	; (160c <__aeabi_dmul+0x508>)
    14b4:	4293      	cmp	r3, r2
    14b6:	dd00      	ble.n	14ba <__aeabi_dmul+0x3b6>
    14b8:	e6ea      	b.n	1290 <__aeabi_dmul+0x18c>
    14ba:	4644      	mov	r4, r8
    14bc:	4655      	mov	r5, sl
    14be:	08e2      	lsrs	r2, r4, #3
    14c0:	0768      	lsls	r0, r5, #29
    14c2:	4310      	orrs	r0, r2
    14c4:	2201      	movs	r2, #1
    14c6:	026c      	lsls	r4, r5, #9
    14c8:	055b      	lsls	r3, r3, #21
    14ca:	400a      	ands	r2, r1
    14cc:	4680      	mov	r8, r0
    14ce:	0b24      	lsrs	r4, r4, #12
    14d0:	0d5b      	lsrs	r3, r3, #21
    14d2:	4691      	mov	r9, r2
    14d4:	e67b      	b.n	11ce <__aeabi_dmul+0xca>
    14d6:	46da      	mov	sl, fp
    14d8:	4690      	mov	r8, r2
    14da:	1c1d      	adds	r5, r3, #0
    14dc:	e669      	b.n	11b2 <__aeabi_dmul+0xae>
    14de:	2480      	movs	r4, #128	; 0x80
    14e0:	0324      	lsls	r4, r4, #12
    14e2:	4657      	mov	r7, sl
    14e4:	4227      	tst	r7, r4
    14e6:	d11c      	bne.n	1522 <__aeabi_dmul+0x41e>
    14e8:	433c      	orrs	r4, r7
    14ea:	0324      	lsls	r4, r4, #12
    14ec:	0b24      	lsrs	r4, r4, #12
    14ee:	4b48      	ldr	r3, [pc, #288]	; (1610 <__aeabi_dmul+0x50c>)
    14f0:	e66d      	b.n	11ce <__aeabi_dmul+0xca>
    14f2:	1c03      	adds	r3, r0, #0
    14f4:	3b28      	subs	r3, #40	; 0x28
    14f6:	1c31      	adds	r1, r6, #0
    14f8:	4099      	lsls	r1, r3
    14fa:	468b      	mov	fp, r1
    14fc:	2200      	movs	r2, #0
    14fe:	e6c3      	b.n	1288 <__aeabi_dmul+0x184>
    1500:	1c30      	adds	r0, r6, #0
    1502:	f000 f96d 	bl	17e0 <__clzsi2>
    1506:	3020      	adds	r0, #32
    1508:	e6ad      	b.n	1266 <__aeabi_dmul+0x162>
    150a:	3b28      	subs	r3, #40	; 0x28
    150c:	1c21      	adds	r1, r4, #0
    150e:	4099      	lsls	r1, r3
    1510:	2200      	movs	r2, #0
    1512:	468a      	mov	sl, r1
    1514:	4690      	mov	r8, r2
    1516:	e68e      	b.n	1236 <__aeabi_dmul+0x132>
    1518:	1c20      	adds	r0, r4, #0
    151a:	f000 f961 	bl	17e0 <__clzsi2>
    151e:	3020      	adds	r0, #32
    1520:	e678      	b.n	1214 <__aeabi_dmul+0x110>
    1522:	4658      	mov	r0, fp
    1524:	4220      	tst	r0, r4
    1526:	d107      	bne.n	1538 <__aeabi_dmul+0x434>
    1528:	4304      	orrs	r4, r0
    152a:	9903      	ldr	r1, [sp, #12]
    152c:	0324      	lsls	r4, r4, #12
    152e:	0b24      	lsrs	r4, r4, #12
    1530:	4689      	mov	r9, r1
    1532:	4690      	mov	r8, r2
    1534:	4b36      	ldr	r3, [pc, #216]	; (1610 <__aeabi_dmul+0x50c>)
    1536:	e64a      	b.n	11ce <__aeabi_dmul+0xca>
    1538:	433c      	orrs	r4, r7
    153a:	0324      	lsls	r4, r4, #12
    153c:	0b24      	lsrs	r4, r4, #12
    153e:	4b34      	ldr	r3, [pc, #208]	; (1610 <__aeabi_dmul+0x50c>)
    1540:	e645      	b.n	11ce <__aeabi_dmul+0xca>
    1542:	4b34      	ldr	r3, [pc, #208]	; (1614 <__aeabi_dmul+0x510>)
    1544:	9e04      	ldr	r6, [sp, #16]
    1546:	1b9b      	subs	r3, r3, r6
    1548:	2b38      	cmp	r3, #56	; 0x38
    154a:	dd06      	ble.n	155a <__aeabi_dmul+0x456>
    154c:	2301      	movs	r3, #1
    154e:	400b      	ands	r3, r1
    1550:	2400      	movs	r4, #0
    1552:	4699      	mov	r9, r3
    1554:	46a0      	mov	r8, r4
    1556:	2300      	movs	r3, #0
    1558:	e639      	b.n	11ce <__aeabi_dmul+0xca>
    155a:	2b1f      	cmp	r3, #31
    155c:	dc25      	bgt.n	15aa <__aeabi_dmul+0x4a6>
    155e:	9c04      	ldr	r4, [sp, #16]
    1560:	4d2d      	ldr	r5, [pc, #180]	; (1618 <__aeabi_dmul+0x514>)
    1562:	4646      	mov	r6, r8
    1564:	1960      	adds	r0, r4, r5
    1566:	4652      	mov	r2, sl
    1568:	4644      	mov	r4, r8
    156a:	4086      	lsls	r6, r0
    156c:	40dc      	lsrs	r4, r3
    156e:	4082      	lsls	r2, r0
    1570:	4657      	mov	r7, sl
    1572:	1c30      	adds	r0, r6, #0
    1574:	4322      	orrs	r2, r4
    1576:	40df      	lsrs	r7, r3
    1578:	1e44      	subs	r4, r0, #1
    157a:	41a0      	sbcs	r0, r4
    157c:	4302      	orrs	r2, r0
    157e:	1c3b      	adds	r3, r7, #0
    1580:	0754      	lsls	r4, r2, #29
    1582:	d009      	beq.n	1598 <__aeabi_dmul+0x494>
    1584:	200f      	movs	r0, #15
    1586:	4010      	ands	r0, r2
    1588:	2804      	cmp	r0, #4
    158a:	d005      	beq.n	1598 <__aeabi_dmul+0x494>
    158c:	1d10      	adds	r0, r2, #4
    158e:	4290      	cmp	r0, r2
    1590:	4192      	sbcs	r2, r2
    1592:	4252      	negs	r2, r2
    1594:	189b      	adds	r3, r3, r2
    1596:	1c02      	adds	r2, r0, #0
    1598:	021d      	lsls	r5, r3, #8
    159a:	d51a      	bpl.n	15d2 <__aeabi_dmul+0x4ce>
    159c:	2301      	movs	r3, #1
    159e:	400b      	ands	r3, r1
    15a0:	2400      	movs	r4, #0
    15a2:	4699      	mov	r9, r3
    15a4:	46a0      	mov	r8, r4
    15a6:	2301      	movs	r3, #1
    15a8:	e611      	b.n	11ce <__aeabi_dmul+0xca>
    15aa:	481c      	ldr	r0, [pc, #112]	; (161c <__aeabi_dmul+0x518>)
    15ac:	9c04      	ldr	r4, [sp, #16]
    15ae:	4655      	mov	r5, sl
    15b0:	1b00      	subs	r0, r0, r4
    15b2:	40c5      	lsrs	r5, r0
    15b4:	1c28      	adds	r0, r5, #0
    15b6:	2b20      	cmp	r3, #32
    15b8:	d016      	beq.n	15e8 <__aeabi_dmul+0x4e4>
    15ba:	4e19      	ldr	r6, [pc, #100]	; (1620 <__aeabi_dmul+0x51c>)
    15bc:	4657      	mov	r7, sl
    15be:	19a2      	adds	r2, r4, r6
    15c0:	4097      	lsls	r7, r2
    15c2:	1c3a      	adds	r2, r7, #0
    15c4:	4643      	mov	r3, r8
    15c6:	431a      	orrs	r2, r3
    15c8:	1e53      	subs	r3, r2, #1
    15ca:	419a      	sbcs	r2, r3
    15cc:	4302      	orrs	r2, r0
    15ce:	2300      	movs	r3, #0
    15d0:	e7d6      	b.n	1580 <__aeabi_dmul+0x47c>
    15d2:	0758      	lsls	r0, r3, #29
    15d4:	025b      	lsls	r3, r3, #9
    15d6:	08d2      	lsrs	r2, r2, #3
    15d8:	0b1c      	lsrs	r4, r3, #12
    15da:	2301      	movs	r3, #1
    15dc:	400b      	ands	r3, r1
    15de:	4310      	orrs	r0, r2
    15e0:	4699      	mov	r9, r3
    15e2:	4680      	mov	r8, r0
    15e4:	2300      	movs	r3, #0
    15e6:	e5f2      	b.n	11ce <__aeabi_dmul+0xca>
    15e8:	2200      	movs	r2, #0
    15ea:	e7eb      	b.n	15c4 <__aeabi_dmul+0x4c0>
    15ec:	2480      	movs	r4, #128	; 0x80
    15ee:	0324      	lsls	r4, r4, #12
    15f0:	4650      	mov	r0, sl
    15f2:	2301      	movs	r3, #1
    15f4:	4304      	orrs	r4, r0
    15f6:	4019      	ands	r1, r3
    15f8:	0324      	lsls	r4, r4, #12
    15fa:	0b24      	lsrs	r4, r4, #12
    15fc:	4689      	mov	r9, r1
    15fe:	4b04      	ldr	r3, [pc, #16]	; (1610 <__aeabi_dmul+0x50c>)
    1600:	e5e5      	b.n	11ce <__aeabi_dmul+0xca>
    1602:	46c0      	nop			; (mov r8, r8)
    1604:	000003ff 	.word	0x000003ff
    1608:	feffffff 	.word	0xfeffffff
    160c:	000007fe 	.word	0x000007fe
    1610:	000007ff 	.word	0x000007ff
    1614:	fffffc02 	.word	0xfffffc02
    1618:	0000041e 	.word	0x0000041e
    161c:	fffffbe2 	.word	0xfffffbe2
    1620:	0000043e 	.word	0x0000043e

00001624 <__aeabi_f2d>:
__aeabi_f2d():
    1624:	0043      	lsls	r3, r0, #1
    1626:	0e1b      	lsrs	r3, r3, #24
    1628:	1c5a      	adds	r2, r3, #1
    162a:	0241      	lsls	r1, r0, #9
    162c:	b2d2      	uxtb	r2, r2
    162e:	b570      	push	{r4, r5, r6, lr}
    1630:	0a4c      	lsrs	r4, r1, #9
    1632:	0fc5      	lsrs	r5, r0, #31
    1634:	2a01      	cmp	r2, #1
    1636:	dd17      	ble.n	1668 <__aeabi_f2d+0x44>
    1638:	22e0      	movs	r2, #224	; 0xe0
    163a:	0092      	lsls	r2, r2, #2
    163c:	0764      	lsls	r4, r4, #29
    163e:	0b09      	lsrs	r1, r1, #12
    1640:	1898      	adds	r0, r3, r2
    1642:	2200      	movs	r2, #0
    1644:	2300      	movs	r3, #0
    1646:	0d1e      	lsrs	r6, r3, #20
    1648:	1c22      	adds	r2, r4, #0
    164a:	0534      	lsls	r4, r6, #20
    164c:	430c      	orrs	r4, r1
    164e:	491b      	ldr	r1, [pc, #108]	; (16bc <__aeabi_f2d+0x98>)
    1650:	0540      	lsls	r0, r0, #21
    1652:	0840      	lsrs	r0, r0, #1
    1654:	4021      	ands	r1, r4
    1656:	4301      	orrs	r1, r0
    1658:	0049      	lsls	r1, r1, #1
    165a:	0849      	lsrs	r1, r1, #1
    165c:	07ed      	lsls	r5, r5, #31
    165e:	1c0b      	adds	r3, r1, #0
    1660:	432b      	orrs	r3, r5
    1662:	1c10      	adds	r0, r2, #0
    1664:	1c19      	adds	r1, r3, #0
    1666:	bd70      	pop	{r4, r5, r6, pc}
    1668:	2b00      	cmp	r3, #0
    166a:	d115      	bne.n	1698 <__aeabi_f2d+0x74>
    166c:	2c00      	cmp	r4, #0
    166e:	d01c      	beq.n	16aa <__aeabi_f2d+0x86>
    1670:	1c20      	adds	r0, r4, #0
    1672:	f000 f8b5 	bl	17e0 <__clzsi2>
    1676:	280a      	cmp	r0, #10
    1678:	dc1a      	bgt.n	16b0 <__aeabi_f2d+0x8c>
    167a:	210b      	movs	r1, #11
    167c:	1a09      	subs	r1, r1, r0
    167e:	1c23      	adds	r3, r4, #0
    1680:	40cb      	lsrs	r3, r1
    1682:	1c19      	adds	r1, r3, #0
    1684:	1c03      	adds	r3, r0, #0
    1686:	3315      	adds	r3, #21
    1688:	409c      	lsls	r4, r3
    168a:	4b0d      	ldr	r3, [pc, #52]	; (16c0 <__aeabi_f2d+0x9c>)
    168c:	0309      	lsls	r1, r1, #12
    168e:	1a18      	subs	r0, r3, r0
    1690:	0540      	lsls	r0, r0, #21
    1692:	0b09      	lsrs	r1, r1, #12
    1694:	0d40      	lsrs	r0, r0, #21
    1696:	e7d4      	b.n	1642 <__aeabi_f2d+0x1e>
    1698:	2c00      	cmp	r4, #0
    169a:	d003      	beq.n	16a4 <__aeabi_f2d+0x80>
    169c:	0764      	lsls	r4, r4, #29
    169e:	0b09      	lsrs	r1, r1, #12
    16a0:	4808      	ldr	r0, [pc, #32]	; (16c4 <__aeabi_f2d+0xa0>)
    16a2:	e7ce      	b.n	1642 <__aeabi_f2d+0x1e>
    16a4:	4807      	ldr	r0, [pc, #28]	; (16c4 <__aeabi_f2d+0xa0>)
    16a6:	2100      	movs	r1, #0
    16a8:	e7cb      	b.n	1642 <__aeabi_f2d+0x1e>
    16aa:	2000      	movs	r0, #0
    16ac:	2100      	movs	r1, #0
    16ae:	e7c8      	b.n	1642 <__aeabi_f2d+0x1e>
    16b0:	1c01      	adds	r1, r0, #0
    16b2:	390b      	subs	r1, #11
    16b4:	408c      	lsls	r4, r1
    16b6:	1c21      	adds	r1, r4, #0
    16b8:	2400      	movs	r4, #0
    16ba:	e7e6      	b.n	168a <__aeabi_f2d+0x66>
    16bc:	800fffff 	.word	0x800fffff
    16c0:	00000389 	.word	0x00000389
    16c4:	000007ff 	.word	0x000007ff

000016c8 <__aeabi_d2f>:
__aeabi_d2f():
    16c8:	b5f0      	push	{r4, r5, r6, r7, lr}
    16ca:	004b      	lsls	r3, r1, #1
    16cc:	030d      	lsls	r5, r1, #12
    16ce:	0f42      	lsrs	r2, r0, #29
    16d0:	0d5b      	lsrs	r3, r3, #21
    16d2:	0a6d      	lsrs	r5, r5, #9
    16d4:	4315      	orrs	r5, r2
    16d6:	1c5a      	adds	r2, r3, #1
    16d8:	0552      	lsls	r2, r2, #21
    16da:	0fcc      	lsrs	r4, r1, #31
    16dc:	00c6      	lsls	r6, r0, #3
    16de:	0d52      	lsrs	r2, r2, #21
    16e0:	2a01      	cmp	r2, #1
    16e2:	dd27      	ble.n	1734 <__aeabi_d2f+0x6c>
    16e4:	4f39      	ldr	r7, [pc, #228]	; (17cc <__aeabi_d2f+0x104>)
    16e6:	19da      	adds	r2, r3, r7
    16e8:	2afe      	cmp	r2, #254	; 0xfe
    16ea:	dc1a      	bgt.n	1722 <__aeabi_d2f+0x5a>
    16ec:	2a00      	cmp	r2, #0
    16ee:	dd35      	ble.n	175c <__aeabi_d2f+0x94>
    16f0:	0180      	lsls	r0, r0, #6
    16f2:	00ed      	lsls	r5, r5, #3
    16f4:	1e43      	subs	r3, r0, #1
    16f6:	4198      	sbcs	r0, r3
    16f8:	4328      	orrs	r0, r5
    16fa:	0f76      	lsrs	r6, r6, #29
    16fc:	4330      	orrs	r0, r6
    16fe:	0743      	lsls	r3, r0, #29
    1700:	d004      	beq.n	170c <__aeabi_d2f+0x44>
    1702:	230f      	movs	r3, #15
    1704:	4003      	ands	r3, r0
    1706:	2b04      	cmp	r3, #4
    1708:	d000      	beq.n	170c <__aeabi_d2f+0x44>
    170a:	3004      	adds	r0, #4
    170c:	2180      	movs	r1, #128	; 0x80
    170e:	04c9      	lsls	r1, r1, #19
    1710:	4001      	ands	r1, r0
    1712:	d027      	beq.n	1764 <__aeabi_d2f+0x9c>
    1714:	3201      	adds	r2, #1
    1716:	2aff      	cmp	r2, #255	; 0xff
    1718:	d01d      	beq.n	1756 <__aeabi_d2f+0x8e>
    171a:	0183      	lsls	r3, r0, #6
    171c:	0a5b      	lsrs	r3, r3, #9
    171e:	b2d1      	uxtb	r1, r2
    1720:	e001      	b.n	1726 <__aeabi_d2f+0x5e>
    1722:	21ff      	movs	r1, #255	; 0xff
    1724:	2300      	movs	r3, #0
    1726:	0258      	lsls	r0, r3, #9
    1728:	05c9      	lsls	r1, r1, #23
    172a:	0a40      	lsrs	r0, r0, #9
    172c:	07e4      	lsls	r4, r4, #31
    172e:	4308      	orrs	r0, r1
    1730:	4320      	orrs	r0, r4
    1732:	bdf0      	pop	{r4, r5, r6, r7, pc}
    1734:	2b00      	cmp	r3, #0
    1736:	d106      	bne.n	1746 <__aeabi_d2f+0x7e>
    1738:	4335      	orrs	r5, r6
    173a:	d111      	bne.n	1760 <__aeabi_d2f+0x98>
    173c:	2100      	movs	r1, #0
    173e:	2000      	movs	r0, #0
    1740:	0243      	lsls	r3, r0, #9
    1742:	0a5b      	lsrs	r3, r3, #9
    1744:	e7ef      	b.n	1726 <__aeabi_d2f+0x5e>
    1746:	432e      	orrs	r6, r5
    1748:	d0eb      	beq.n	1722 <__aeabi_d2f+0x5a>
    174a:	2080      	movs	r0, #128	; 0x80
    174c:	00ed      	lsls	r5, r5, #3
    174e:	0480      	lsls	r0, r0, #18
    1750:	4328      	orrs	r0, r5
    1752:	22ff      	movs	r2, #255	; 0xff
    1754:	e7d3      	b.n	16fe <__aeabi_d2f+0x36>
    1756:	21ff      	movs	r1, #255	; 0xff
    1758:	2300      	movs	r3, #0
    175a:	e7e4      	b.n	1726 <__aeabi_d2f+0x5e>
    175c:	3217      	adds	r2, #23
    175e:	da0d      	bge.n	177c <__aeabi_d2f+0xb4>
    1760:	2005      	movs	r0, #5
    1762:	2200      	movs	r2, #0
    1764:	08c0      	lsrs	r0, r0, #3
    1766:	b2d1      	uxtb	r1, r2
    1768:	2aff      	cmp	r2, #255	; 0xff
    176a:	d1e9      	bne.n	1740 <__aeabi_d2f+0x78>
    176c:	2800      	cmp	r0, #0
    176e:	d0d9      	beq.n	1724 <__aeabi_d2f+0x5c>
    1770:	2380      	movs	r3, #128	; 0x80
    1772:	03db      	lsls	r3, r3, #15
    1774:	4303      	orrs	r3, r0
    1776:	025b      	lsls	r3, r3, #9
    1778:	0a5b      	lsrs	r3, r3, #9
    177a:	e7d4      	b.n	1726 <__aeabi_d2f+0x5e>
    177c:	2280      	movs	r2, #128	; 0x80
    177e:	4914      	ldr	r1, [pc, #80]	; (17d0 <__aeabi_d2f+0x108>)
    1780:	0412      	lsls	r2, r2, #16
    1782:	4315      	orrs	r5, r2
    1784:	1ac9      	subs	r1, r1, r3
    1786:	291f      	cmp	r1, #31
    1788:	dc0d      	bgt.n	17a6 <__aeabi_d2f+0xde>
    178a:	4a12      	ldr	r2, [pc, #72]	; (17d4 <__aeabi_d2f+0x10c>)
    178c:	1c37      	adds	r7, r6, #0
    178e:	189b      	adds	r3, r3, r2
    1790:	1c28      	adds	r0, r5, #0
    1792:	409f      	lsls	r7, r3
    1794:	4098      	lsls	r0, r3
    1796:	1c3b      	adds	r3, r7, #0
    1798:	1e5a      	subs	r2, r3, #1
    179a:	4193      	sbcs	r3, r2
    179c:	4318      	orrs	r0, r3
    179e:	40ce      	lsrs	r6, r1
    17a0:	4330      	orrs	r0, r6
    17a2:	2200      	movs	r2, #0
    17a4:	e7ab      	b.n	16fe <__aeabi_d2f+0x36>
    17a6:	4f0c      	ldr	r7, [pc, #48]	; (17d8 <__aeabi_d2f+0x110>)
    17a8:	1c2a      	adds	r2, r5, #0
    17aa:	1aff      	subs	r7, r7, r3
    17ac:	40fa      	lsrs	r2, r7
    17ae:	1c17      	adds	r7, r2, #0
    17b0:	2920      	cmp	r1, #32
    17b2:	d009      	beq.n	17c8 <__aeabi_d2f+0x100>
    17b4:	4a09      	ldr	r2, [pc, #36]	; (17dc <__aeabi_d2f+0x114>)
    17b6:	1898      	adds	r0, r3, r2
    17b8:	4085      	lsls	r5, r0
    17ba:	1c28      	adds	r0, r5, #0
    17bc:	4330      	orrs	r0, r6
    17be:	1e46      	subs	r6, r0, #1
    17c0:	41b0      	sbcs	r0, r6
    17c2:	4338      	orrs	r0, r7
    17c4:	2200      	movs	r2, #0
    17c6:	e79a      	b.n	16fe <__aeabi_d2f+0x36>
    17c8:	2000      	movs	r0, #0
    17ca:	e7f7      	b.n	17bc <__aeabi_d2f+0xf4>
    17cc:	fffffc80 	.word	0xfffffc80
    17d0:	0000039e 	.word	0x0000039e
    17d4:	fffffc82 	.word	0xfffffc82
    17d8:	0000037e 	.word	0x0000037e
    17dc:	fffffca2 	.word	0xfffffca2

000017e0 <__clzsi2>:
__clzsi2():
    17e0:	211c      	movs	r1, #28
    17e2:	2301      	movs	r3, #1
    17e4:	041b      	lsls	r3, r3, #16
    17e6:	4298      	cmp	r0, r3
    17e8:	d301      	bcc.n	17ee <__clzsi2+0xe>
    17ea:	0c00      	lsrs	r0, r0, #16
    17ec:	3910      	subs	r1, #16
    17ee:	0a1b      	lsrs	r3, r3, #8
    17f0:	4298      	cmp	r0, r3
    17f2:	d301      	bcc.n	17f8 <__clzsi2+0x18>
    17f4:	0a00      	lsrs	r0, r0, #8
    17f6:	3908      	subs	r1, #8
    17f8:	091b      	lsrs	r3, r3, #4
    17fa:	4298      	cmp	r0, r3
    17fc:	d301      	bcc.n	1802 <__clzsi2+0x22>
    17fe:	0900      	lsrs	r0, r0, #4
    1800:	3904      	subs	r1, #4
    1802:	a202      	add	r2, pc, #8	; (adr r2, 180c <__clzsi2+0x2c>)
    1804:	5c10      	ldrb	r0, [r2, r0]
    1806:	1840      	adds	r0, r0, r1
    1808:	4770      	bx	lr
    180a:	46c0      	nop			; (mov r8, r8)
    180c:	02020304 	.word	0x02020304
    1810:	01010101 	.word	0x01010101
	...

0000181c <updateBatteryLevel>:
updateBatteryLevel():
/home/marcelo/Documentos/GER/SDP/SDP-2016/KDS/SDP-2016/Debug/../Sources/BatteryController.c:11
 */

#include "BatteryController.h"

void updateBatteryLevel()
{
    181c:	b580      	push	{r7, lr}
    181e:	af00      	add	r7, sp, #0
/home/marcelo/Documentos/GER/SDP/SDP-2016/KDS/SDP-2016/Debug/../Sources/BatteryController.c:12
	handlingPowerUpdate = TRUE;
    1820:	4b07      	ldr	r3, [pc, #28]	; (1840 <updateBatteryLevel+0x24>)
    1822:	2201      	movs	r2, #1
    1824:	701a      	strb	r2, [r3, #0]
/home/marcelo/Documentos/GER/SDP/SDP-2016/KDS/SDP-2016/Debug/../Sources/BatteryController.c:15

	// Converts the voltage vOut of PTE29 pin
	AD_Converter_MeasureChan(FALSE, 1);
    1826:	2000      	movs	r0, #0
    1828:	2101      	movs	r1, #1
    182a:	f000 fc87 	bl	213c <AD_Converter_MeasureChan>
/home/marcelo/Documentos/GER/SDP/SDP-2016/KDS/SDP-2016/Debug/../Sources/BatteryController.c:18

	// Waits the end of conversion
	while (handlingPowerUpdate);
    182e:	46c0      	nop			; (mov r8, r8)
/home/marcelo/Documentos/GER/SDP/SDP-2016/KDS/SDP-2016/Debug/../Sources/BatteryController.c:18 (discriminator 1)
    1830:	4b03      	ldr	r3, [pc, #12]	; (1840 <updateBatteryLevel+0x24>)
    1832:	781b      	ldrb	r3, [r3, #0]
    1834:	b2db      	uxtb	r3, r3
    1836:	2b00      	cmp	r3, #0
    1838:	d1fa      	bne.n	1830 <updateBatteryLevel+0x14>
/home/marcelo/Documentos/GER/SDP/SDP-2016/KDS/SDP-2016/Debug/../Sources/BatteryController.c:19
}
    183a:	46bd      	mov	sp, r7
    183c:	bd80      	pop	{r7, pc}
    183e:	46c0      	nop			; (mov r8, r8)
    1840:	1ffff1a8 	.word	0x1ffff1a8
$d():
    1844:	00000000 	.word	0x00000000

00001848 <updatePowerState>:
updatePowerState():
/home/marcelo/Documentos/GER/SDP/SDP-2016/KDS/SDP-2016/Debug/../Sources/BatteryController.c:22

void updatePowerState()
{
    1848:	b590      	push	{r4, r7, lr}
    184a:	b085      	sub	sp, #20
    184c:	af00      	add	r7, sp, #0
/home/marcelo/Documentos/GER/SDP/SDP-2016/KDS/SDP-2016/Debug/../Sources/BatteryController.c:27
	unsigned char adcValue;
	float vOut;
	float newVoltage;

	AD_Converter_GetChanValue(1, &adcValue);
    184e:	1cfb      	adds	r3, r7, #3
    1850:	2001      	movs	r0, #1
    1852:	1c19      	adds	r1, r3, #0
    1854:	f000 fca4 	bl	21a0 <AD_Converter_GetChanValue>
/home/marcelo/Documentos/GER/SDP/SDP-2016/KDS/SDP-2016/Debug/../Sources/BatteryController.c:30

	// Find the value of vOut
	vOut = (2.87 / 255) * (float) adcValue; // Theoretical value: 3.0
    1858:	1cfb      	adds	r3, r7, #3
    185a:	781b      	ldrb	r3, [r3, #0]
    185c:	1c18      	adds	r0, r3, #0
    185e:	f7ff fabb 	bl	dd8 <__aeabi_ui2f>
    1862:	1c03      	adds	r3, r0, #0
    1864:	1c18      	adds	r0, r3, #0
    1866:	f7ff fedd 	bl	1624 <__aeabi_f2d>
    186a:	1c03      	adds	r3, r0, #0
    186c:	1c0c      	adds	r4, r1, #0
    186e:	1c18      	adds	r0, r3, #0
    1870:	1c21      	adds	r1, r4, #0
    1872:	4b72      	ldr	r3, [pc, #456]	; (1a3c <updatePowerState+0x1f4>)
    1874:	4a70      	ldr	r2, [pc, #448]	; (1a38 <updatePowerState+0x1f0>)
    1876:	f7ff fc45 	bl	1104 <__aeabi_dmul>
    187a:	1c03      	adds	r3, r0, #0
    187c:	1c0c      	adds	r4, r1, #0
    187e:	1c18      	adds	r0, r3, #0
    1880:	1c21      	adds	r1, r4, #0
    1882:	f7ff ff21 	bl	16c8 <__aeabi_d2f>
    1886:	1c03      	adds	r3, r0, #0
    1888:	60bb      	str	r3, [r7, #8]
/home/marcelo/Documentos/GER/SDP/SDP-2016/KDS/SDP-2016/Debug/../Sources/BatteryController.c:34


	// Find the value of batteryLevel (voltage of battery)
	newVoltage = 5.7 * vOut;			// Theoretical value: 57/10
    188a:	68b8      	ldr	r0, [r7, #8]
    188c:	f7ff feca 	bl	1624 <__aeabi_f2d>
    1890:	1c03      	adds	r3, r0, #0
    1892:	1c0c      	adds	r4, r1, #0
    1894:	1c18      	adds	r0, r3, #0
    1896:	1c21      	adds	r1, r4, #0
    1898:	4a69      	ldr	r2, [pc, #420]	; (1a40 <updatePowerState+0x1f8>)
    189a:	4b6a      	ldr	r3, [pc, #424]	; (1a44 <updatePowerState+0x1fc>)
    189c:	f7ff fc32 	bl	1104 <__aeabi_dmul>
    18a0:	1c03      	adds	r3, r0, #0
    18a2:	1c0c      	adds	r4, r1, #0
    18a4:	1c18      	adds	r0, r3, #0
    18a6:	1c21      	adds	r1, r4, #0
    18a8:	f7ff ff0e 	bl	16c8 <__aeabi_d2f>
    18ac:	1c03      	adds	r3, r0, #0
    18ae:	607b      	str	r3, [r7, #4]
/home/marcelo/Documentos/GER/SDP/SDP-2016/KDS/SDP-2016/Debug/../Sources/BatteryController.c:36

	batteryLevel = (batteryLevel + newVoltage) / 2;
    18b0:	4b6b      	ldr	r3, [pc, #428]	; (1a60 <updatePowerState+0x218>)
    18b2:	681b      	ldr	r3, [r3, #0]
    18b4:	1c18      	adds	r0, r3, #0
    18b6:	6879      	ldr	r1, [r7, #4]
    18b8:	f7fe ff3e 	bl	738 <__aeabi_fadd>
    18bc:	1c03      	adds	r3, r0, #0
    18be:	1c18      	adds	r0, r3, #0
    18c0:	2180      	movs	r1, #128	; 0x80
    18c2:	05c9      	lsls	r1, r1, #23
    18c4:	f7ff f8a4 	bl	a10 <__aeabi_fdiv>
    18c8:	1c03      	adds	r3, r0, #0
    18ca:	1c1a      	adds	r2, r3, #0
    18cc:	4b64      	ldr	r3, [pc, #400]	; (1a60 <updatePowerState+0x218>)
    18ce:	601a      	str	r2, [r3, #0]
/home/marcelo/Documentos/GER/SDP/SDP-2016/KDS/SDP-2016/Debug/../Sources/BatteryController.c:38

	if (batteryLevel > 7.5)
    18d0:	4b63      	ldr	r3, [pc, #396]	; (1a60 <updatePowerState+0x218>)
    18d2:	681b      	ldr	r3, [r3, #0]
    18d4:	1c18      	adds	r0, r3, #0
    18d6:	4963      	ldr	r1, [pc, #396]	; (1a64 <updatePowerState+0x21c>)
    18d8:	f7fe ff1a 	bl	710 <__aeabi_fcmpgt>
    18dc:	1c03      	adds	r3, r0, #0
    18de:	2b00      	cmp	r3, #0
    18e0:	d014      	beq.n	190c <updatePowerState+0xc4>
/home/marcelo/Documentos/GER/SDP/SDP-2016/KDS/SDP-2016/Debug/../Sources/BatteryController.c:40
	{
		Power_Level1_SetVal();
    18e2:	4b61      	ldr	r3, [pc, #388]	; (1a68 <updatePowerState+0x220>)
    18e4:	6bdb      	ldr	r3, [r3, #60]	; 0x3c
    18e6:	1c18      	adds	r0, r3, #0
    18e8:	f001 f852 	bl	2990 <BitIoLdd5_SetVal>
/home/marcelo/Documentos/GER/SDP/SDP-2016/KDS/SDP-2016/Debug/../Sources/BatteryController.c:41
		Power_Level2_SetVal();
    18ec:	4b5e      	ldr	r3, [pc, #376]	; (1a68 <updatePowerState+0x220>)
    18ee:	6c1b      	ldr	r3, [r3, #64]	; 0x40
    18f0:	1c18      	adds	r0, r3, #0
    18f2:	f001 f8ab 	bl	2a4c <BitIoLdd6_SetVal>
/home/marcelo/Documentos/GER/SDP/SDP-2016/KDS/SDP-2016/Debug/../Sources/BatteryController.c:42
		Power_Level3_SetVal();
    18f6:	4b5c      	ldr	r3, [pc, #368]	; (1a68 <updatePowerState+0x220>)
    18f8:	6c5b      	ldr	r3, [r3, #68]	; 0x44
    18fa:	1c18      	adds	r0, r3, #0
    18fc:	f001 f904 	bl	2b08 <BitIoLdd7_SetVal>
/home/marcelo/Documentos/GER/SDP/SDP-2016/KDS/SDP-2016/Debug/../Sources/BatteryController.c:43
		Power_Level4_SetVal();
    1900:	4b59      	ldr	r3, [pc, #356]	; (1a68 <updatePowerState+0x220>)
    1902:	6c9b      	ldr	r3, [r3, #72]	; 0x48
    1904:	1c18      	adds	r0, r3, #0
    1906:	f001 f95d 	bl	2bc4 <BitIoLdd8_SetVal>
    190a:	e08c      	b.n	1a26 <updatePowerState+0x1de>
/home/marcelo/Documentos/GER/SDP/SDP-2016/KDS/SDP-2016/Debug/../Sources/BatteryController.c:45
	}
	else if (batteryLevel > 7.2)
    190c:	4b54      	ldr	r3, [pc, #336]	; (1a60 <updatePowerState+0x218>)
    190e:	681b      	ldr	r3, [r3, #0]
    1910:	1c18      	adds	r0, r3, #0
    1912:	f7ff fe87 	bl	1624 <__aeabi_f2d>
    1916:	1c03      	adds	r3, r0, #0
    1918:	1c0c      	adds	r4, r1, #0
    191a:	1c18      	adds	r0, r3, #0
    191c:	1c21      	adds	r1, r4, #0
    191e:	4a4a      	ldr	r2, [pc, #296]	; (1a48 <updatePowerState+0x200>)
    1920:	4b4a      	ldr	r3, [pc, #296]	; (1a4c <updatePowerState+0x204>)
    1922:	f7fe febb 	bl	69c <__aeabi_dcmpgt>
    1926:	1c03      	adds	r3, r0, #0
    1928:	2b00      	cmp	r3, #0
    192a:	d014      	beq.n	1956 <updatePowerState+0x10e>
/home/marcelo/Documentos/GER/SDP/SDP-2016/KDS/SDP-2016/Debug/../Sources/BatteryController.c:47
	{
		Power_Level1_SetVal();
    192c:	4b4e      	ldr	r3, [pc, #312]	; (1a68 <updatePowerState+0x220>)
    192e:	6bdb      	ldr	r3, [r3, #60]	; 0x3c
    1930:	1c18      	adds	r0, r3, #0
    1932:	f001 f82d 	bl	2990 <BitIoLdd5_SetVal>
/home/marcelo/Documentos/GER/SDP/SDP-2016/KDS/SDP-2016/Debug/../Sources/BatteryController.c:48
		Power_Level2_SetVal();
    1936:	4b4c      	ldr	r3, [pc, #304]	; (1a68 <updatePowerState+0x220>)
    1938:	6c1b      	ldr	r3, [r3, #64]	; 0x40
    193a:	1c18      	adds	r0, r3, #0
    193c:	f001 f886 	bl	2a4c <BitIoLdd6_SetVal>
/home/marcelo/Documentos/GER/SDP/SDP-2016/KDS/SDP-2016/Debug/../Sources/BatteryController.c:49
		Power_Level3_SetVal();
    1940:	4b49      	ldr	r3, [pc, #292]	; (1a68 <updatePowerState+0x220>)
    1942:	6c5b      	ldr	r3, [r3, #68]	; 0x44
    1944:	1c18      	adds	r0, r3, #0
    1946:	f001 f8df 	bl	2b08 <BitIoLdd7_SetVal>
/home/marcelo/Documentos/GER/SDP/SDP-2016/KDS/SDP-2016/Debug/../Sources/BatteryController.c:50
		Power_Level4_ClrVal();
    194a:	4b47      	ldr	r3, [pc, #284]	; (1a68 <updatePowerState+0x220>)
    194c:	6c9b      	ldr	r3, [r3, #72]	; 0x48
    194e:	1c18      	adds	r0, r3, #0
    1950:	f001 f92a 	bl	2ba8 <BitIoLdd8_ClrVal>
    1954:	e067      	b.n	1a26 <updatePowerState+0x1de>
/home/marcelo/Documentos/GER/SDP/SDP-2016/KDS/SDP-2016/Debug/../Sources/BatteryController.c:53
	}

	else if (batteryLevel > 6.9)
    1956:	4b42      	ldr	r3, [pc, #264]	; (1a60 <updatePowerState+0x218>)
    1958:	681b      	ldr	r3, [r3, #0]
    195a:	1c18      	adds	r0, r3, #0
    195c:	f7ff fe62 	bl	1624 <__aeabi_f2d>
    1960:	1c03      	adds	r3, r0, #0
    1962:	1c0c      	adds	r4, r1, #0
    1964:	1c18      	adds	r0, r3, #0
    1966:	1c21      	adds	r1, r4, #0
    1968:	4a39      	ldr	r2, [pc, #228]	; (1a50 <updatePowerState+0x208>)
    196a:	4b3a      	ldr	r3, [pc, #232]	; (1a54 <updatePowerState+0x20c>)
    196c:	f7fe fe96 	bl	69c <__aeabi_dcmpgt>
    1970:	1c03      	adds	r3, r0, #0
    1972:	2b00      	cmp	r3, #0
    1974:	d014      	beq.n	19a0 <updatePowerState+0x158>
/home/marcelo/Documentos/GER/SDP/SDP-2016/KDS/SDP-2016/Debug/../Sources/BatteryController.c:55
	{
		Power_Level1_SetVal();
    1976:	4b3c      	ldr	r3, [pc, #240]	; (1a68 <updatePowerState+0x220>)
    1978:	6bdb      	ldr	r3, [r3, #60]	; 0x3c
    197a:	1c18      	adds	r0, r3, #0
    197c:	f001 f808 	bl	2990 <BitIoLdd5_SetVal>
/home/marcelo/Documentos/GER/SDP/SDP-2016/KDS/SDP-2016/Debug/../Sources/BatteryController.c:56
		Power_Level2_SetVal();
    1980:	4b39      	ldr	r3, [pc, #228]	; (1a68 <updatePowerState+0x220>)
    1982:	6c1b      	ldr	r3, [r3, #64]	; 0x40
    1984:	1c18      	adds	r0, r3, #0
    1986:	f001 f861 	bl	2a4c <BitIoLdd6_SetVal>
/home/marcelo/Documentos/GER/SDP/SDP-2016/KDS/SDP-2016/Debug/../Sources/BatteryController.c:57
		Power_Level3_ClrVal();
    198a:	4b37      	ldr	r3, [pc, #220]	; (1a68 <updatePowerState+0x220>)
    198c:	6c5b      	ldr	r3, [r3, #68]	; 0x44
    198e:	1c18      	adds	r0, r3, #0
    1990:	f001 f8ac 	bl	2aec <BitIoLdd7_ClrVal>
/home/marcelo/Documentos/GER/SDP/SDP-2016/KDS/SDP-2016/Debug/../Sources/BatteryController.c:58
		Power_Level4_ClrVal();
    1994:	4b34      	ldr	r3, [pc, #208]	; (1a68 <updatePowerState+0x220>)
    1996:	6c9b      	ldr	r3, [r3, #72]	; 0x48
    1998:	1c18      	adds	r0, r3, #0
    199a:	f001 f905 	bl	2ba8 <BitIoLdd8_ClrVal>
    199e:	e042      	b.n	1a26 <updatePowerState+0x1de>
/home/marcelo/Documentos/GER/SDP/SDP-2016/KDS/SDP-2016/Debug/../Sources/BatteryController.c:60
	}
	else if (batteryLevel > 6.6)
    19a0:	4b2f      	ldr	r3, [pc, #188]	; (1a60 <updatePowerState+0x218>)
    19a2:	681b      	ldr	r3, [r3, #0]
    19a4:	1c18      	adds	r0, r3, #0
    19a6:	f7ff fe3d 	bl	1624 <__aeabi_f2d>
    19aa:	1c03      	adds	r3, r0, #0
    19ac:	1c0c      	adds	r4, r1, #0
    19ae:	1c18      	adds	r0, r3, #0
    19b0:	1c21      	adds	r1, r4, #0
    19b2:	4a29      	ldr	r2, [pc, #164]	; (1a58 <updatePowerState+0x210>)
    19b4:	4b29      	ldr	r3, [pc, #164]	; (1a5c <updatePowerState+0x214>)
    19b6:	f7fe fe71 	bl	69c <__aeabi_dcmpgt>
    19ba:	1c03      	adds	r3, r0, #0
    19bc:	2b00      	cmp	r3, #0
    19be:	d014      	beq.n	19ea <updatePowerState+0x1a2>
/home/marcelo/Documentos/GER/SDP/SDP-2016/KDS/SDP-2016/Debug/../Sources/BatteryController.c:62
	{
		Power_Level1_SetVal();
    19c0:	4b29      	ldr	r3, [pc, #164]	; (1a68 <updatePowerState+0x220>)
    19c2:	6bdb      	ldr	r3, [r3, #60]	; 0x3c
    19c4:	1c18      	adds	r0, r3, #0
    19c6:	f000 ffe3 	bl	2990 <BitIoLdd5_SetVal>
/home/marcelo/Documentos/GER/SDP/SDP-2016/KDS/SDP-2016/Debug/../Sources/BatteryController.c:63
		Power_Level2_ClrVal();
    19ca:	4b27      	ldr	r3, [pc, #156]	; (1a68 <updatePowerState+0x220>)
    19cc:	6c1b      	ldr	r3, [r3, #64]	; 0x40
    19ce:	1c18      	adds	r0, r3, #0
    19d0:	f001 f82e 	bl	2a30 <BitIoLdd6_ClrVal>
/home/marcelo/Documentos/GER/SDP/SDP-2016/KDS/SDP-2016/Debug/../Sources/BatteryController.c:64
		Power_Level3_ClrVal();
    19d4:	4b24      	ldr	r3, [pc, #144]	; (1a68 <updatePowerState+0x220>)
    19d6:	6c5b      	ldr	r3, [r3, #68]	; 0x44
    19d8:	1c18      	adds	r0, r3, #0
    19da:	f001 f887 	bl	2aec <BitIoLdd7_ClrVal>
/home/marcelo/Documentos/GER/SDP/SDP-2016/KDS/SDP-2016/Debug/../Sources/BatteryController.c:65
		Power_Level4_ClrVal();
    19de:	4b22      	ldr	r3, [pc, #136]	; (1a68 <updatePowerState+0x220>)
    19e0:	6c9b      	ldr	r3, [r3, #72]	; 0x48
    19e2:	1c18      	adds	r0, r3, #0
    19e4:	f001 f8e0 	bl	2ba8 <BitIoLdd8_ClrVal>
    19e8:	e01d      	b.n	1a26 <updatePowerState+0x1de>
/home/marcelo/Documentos/GER/SDP/SDP-2016/KDS/SDP-2016/Debug/../Sources/BatteryController.c:73
	{
		//ApplicationEnd = TRUE;
		// FUNO PARA DESLIGAR MOTORES!!!!!!!!!!!!!!!!!!!!!!!!!!!!!!!!!!!!!!!!!!!!!!!!!!!!!!!!!!!!!!!!!!!!!!


		Power_Level1_NegVal();
    19ea:	4b1f      	ldr	r3, [pc, #124]	; (1a68 <updatePowerState+0x220>)
    19ec:	6bdb      	ldr	r3, [r3, #60]	; 0x3c
    19ee:	1c18      	adds	r0, r3, #0
    19f0:	f000 ffdc 	bl	29ac <BitIoLdd5_NegVal>
/home/marcelo/Documentos/GER/SDP/SDP-2016/KDS/SDP-2016/Debug/../Sources/BatteryController.c:74
		Power_Level2_NegVal();
    19f4:	4b1c      	ldr	r3, [pc, #112]	; (1a68 <updatePowerState+0x220>)
    19f6:	6c1b      	ldr	r3, [r3, #64]	; 0x40
    19f8:	1c18      	adds	r0, r3, #0
    19fa:	f001 f835 	bl	2a68 <BitIoLdd6_NegVal>
/home/marcelo/Documentos/GER/SDP/SDP-2016/KDS/SDP-2016/Debug/../Sources/BatteryController.c:75
		Power_Level3_NegVal();
    19fe:	4b1a      	ldr	r3, [pc, #104]	; (1a68 <updatePowerState+0x220>)
    1a00:	6c5b      	ldr	r3, [r3, #68]	; 0x44
    1a02:	1c18      	adds	r0, r3, #0
    1a04:	f001 f88e 	bl	2b24 <BitIoLdd7_NegVal>
/home/marcelo/Documentos/GER/SDP/SDP-2016/KDS/SDP-2016/Debug/../Sources/BatteryController.c:76
		Power_Level4_NegVal();
    1a08:	4b17      	ldr	r3, [pc, #92]	; (1a68 <updatePowerState+0x220>)
    1a0a:	6c9b      	ldr	r3, [r3, #72]	; 0x48
    1a0c:	1c18      	adds	r0, r3, #0
    1a0e:	f001 f8e7 	bl	2be0 <BitIoLdd8_NegVal>
/home/marcelo/Documentos/GER/SDP/SDP-2016/KDS/SDP-2016/Debug/../Sources/BatteryController.c:78

		for (int delay = 0; delay < 1000000; delay++);
    1a12:	2300      	movs	r3, #0
    1a14:	60fb      	str	r3, [r7, #12]
    1a16:	e002      	b.n	1a1e <updatePowerState+0x1d6>
/home/marcelo/Documentos/GER/SDP/SDP-2016/KDS/SDP-2016/Debug/../Sources/BatteryController.c:78 (discriminator 2)
    1a18:	68fb      	ldr	r3, [r7, #12]
    1a1a:	3301      	adds	r3, #1
    1a1c:	60fb      	str	r3, [r7, #12]
/home/marcelo/Documentos/GER/SDP/SDP-2016/KDS/SDP-2016/Debug/../Sources/BatteryController.c:78 (discriminator 1)
    1a1e:	68fa      	ldr	r2, [r7, #12]
    1a20:	4b12      	ldr	r3, [pc, #72]	; (1a6c <updatePowerState+0x224>)
    1a22:	429a      	cmp	r2, r3
    1a24:	ddf8      	ble.n	1a18 <updatePowerState+0x1d0>
/home/marcelo/Documentos/GER/SDP/SDP-2016/KDS/SDP-2016/Debug/../Sources/BatteryController.c:81
	}

	handlingPowerUpdate = FALSE;
    1a26:	4b12      	ldr	r3, [pc, #72]	; (1a70 <updatePowerState+0x228>)
    1a28:	2200      	movs	r2, #0
    1a2a:	701a      	strb	r2, [r3, #0]
/home/marcelo/Documentos/GER/SDP/SDP-2016/KDS/SDP-2016/Debug/../Sources/BatteryController.c:82
}
    1a2c:	46bd      	mov	sp, r7
    1a2e:	b005      	add	sp, #20
    1a30:	bd90      	pop	{r4, r7, pc}
    1a32:	46c0      	nop			; (mov r8, r8)
    1a34:	46c0      	nop			; (mov r8, r8)
    1a36:	46c0      	nop			; (mov r8, r8)
    1a38:	5ebae3da 	.word	0x5ebae3da
    1a3c:	3f870ccf 	.word	0x3f870ccf
    1a40:	cccccccd 	.word	0xcccccccd
    1a44:	4016cccc 	.word	0x4016cccc
    1a48:	cccccccd 	.word	0xcccccccd
    1a4c:	401ccccc 	.word	0x401ccccc
    1a50:	9999999a 	.word	0x9999999a
    1a54:	401b9999 	.word	0x401b9999
    1a58:	66666666 	.word	0x66666666
    1a5c:	401a6666 	.word	0x401a6666
    1a60:	1ffff1ac 	.word	0x1ffff1ac
    1a64:	40f00000 	.word	0x40f00000
    1a68:	1ffff0cc 	.word	0x1ffff0cc
    1a6c:	000f423f 	.word	0x000f423f
    1a70:	1ffff1a8 	.word	0x1ffff1a8
$t():
    1a74:	46c0      	nop			; (mov r8, r8)
    1a76:	46c0      	nop			; (mov r8, r8)

00001a78 <initializeCamera>:
initializeCamera():
/home/marcelo/Documentos/GER/SDP/SDP-2016/KDS/SDP-2016/Debug/../Sources/CameraController.c:45
//	}
//
//}

void initializeCamera()
{
    1a78:	b580      	push	{r7, lr}
    1a7a:	af00      	add	r7, sp, #0
/home/marcelo/Documentos/GER/SDP/SDP-2016/KDS/SDP-2016/Debug/../Sources/CameraController.c:47
	// Inicial state
	state = HALF_LOW_CLK;
    1a7c:	4b05      	ldr	r3, [pc, #20]	; (1a94 <initializeCamera+0x1c>)
    1a7e:	2203      	movs	r2, #3
    1a80:	601a      	str	r2, [r3, #0]
/home/marcelo/Documentos/GER/SDP/SDP-2016/KDS/SDP-2016/Debug/../Sources/CameraController.c:49

	clockCounter = 0;
    1a82:	4b05      	ldr	r3, [pc, #20]	; (1a98 <initializeCamera+0x20>)
    1a84:	2200      	movs	r2, #0
    1a86:	601a      	str	r2, [r3, #0]
/home/marcelo/Documentos/GER/SDP/SDP-2016/KDS/SDP-2016/Debug/../Sources/CameraController.c:51

	transferTime = 0;
    1a88:	4b04      	ldr	r3, [pc, #16]	; (1a9c <initializeCamera+0x24>)
    1a8a:	2200      	movs	r2, #0
    1a8c:	601a      	str	r2, [r3, #0]
/home/marcelo/Documentos/GER/SDP/SDP-2016/KDS/SDP-2016/Debug/../Sources/CameraController.c:52
}
    1a8e:	46bd      	mov	sp, r7
    1a90:	bd80      	pop	{r7, pc}
    1a92:	46c0      	nop			; (mov r8, r8)
    1a94:	1ffff1c4 	.word	0x1ffff1c4
    1a98:	1ffff1b4 	.word	0x1ffff1b4
    1a9c:	1ffff1bc 	.word	0x1ffff1bc

00001aa0 <getRawImageMean>:
getRawImageMean():
/home/marcelo/Documentos/GER/SDP/SDP-2016/KDS/SDP-2016/Debug/../Sources/CameraController.c:78
//	}
//
//}

int getRawImageMean(int samplesNum)
{
    1aa0:	b580      	push	{r7, lr}
    1aa2:	b084      	sub	sp, #16
    1aa4:	af00      	add	r7, sp, #0
    1aa6:	6078      	str	r0, [r7, #4]
/home/marcelo/Documentos/GER/SDP/SDP-2016/KDS/SDP-2016/Debug/../Sources/CameraController.c:80
	// Standard value
	currentSample = -1;
    1aa8:	4b15      	ldr	r3, [pc, #84]	; (1b00 <getRawImageMean+0x60>)
    1aaa:	2201      	movs	r2, #1
    1aac:	4252      	negs	r2, r2
    1aae:	601a      	str	r2, [r3, #0]
/home/marcelo/Documentos/GER/SDP/SDP-2016/KDS/SDP-2016/Debug/../Sources/CameraController.c:81
	samplesNumber = samplesNum;
    1ab0:	4b14      	ldr	r3, [pc, #80]	; (1b04 <getRawImageMean+0x64>)
    1ab2:	687a      	ldr	r2, [r7, #4]
    1ab4:	601a      	str	r2, [r3, #0]
/home/marcelo/Documentos/GER/SDP/SDP-2016/KDS/SDP-2016/Debug/../Sources/CameraController.c:84

	// Initializes the array for put the image with zeros
	for (int pixel = 0; pixel < 128; pixel++)
    1ab6:	2300      	movs	r3, #0
    1ab8:	60fb      	str	r3, [r7, #12]
    1aba:	e007      	b.n	1acc <getRawImageMean+0x2c>
/home/marcelo/Documentos/GER/SDP/SDP-2016/KDS/SDP-2016/Debug/../Sources/CameraController.c:86 (discriminator 2)
	{
		rawImage[pixel] = 0;
    1abc:	4a12      	ldr	r2, [pc, #72]	; (1b08 <getRawImageMean+0x68>)
    1abe:	68fb      	ldr	r3, [r7, #12]
    1ac0:	18d3      	adds	r3, r2, r3
    1ac2:	2200      	movs	r2, #0
    1ac4:	701a      	strb	r2, [r3, #0]
/home/marcelo/Documentos/GER/SDP/SDP-2016/KDS/SDP-2016/Debug/../Sources/CameraController.c:84 (discriminator 2)
	// Standard value
	currentSample = -1;
	samplesNumber = samplesNum;

	// Initializes the array for put the image with zeros
	for (int pixel = 0; pixel < 128; pixel++)
    1ac6:	68fb      	ldr	r3, [r7, #12]
    1ac8:	3301      	adds	r3, #1
    1aca:	60fb      	str	r3, [r7, #12]
/home/marcelo/Documentos/GER/SDP/SDP-2016/KDS/SDP-2016/Debug/../Sources/CameraController.c:84 (discriminator 1)
    1acc:	68fb      	ldr	r3, [r7, #12]
    1ace:	2b7f      	cmp	r3, #127	; 0x7f
    1ad0:	ddf4      	ble.n	1abc <getRawImageMean+0x1c>
/home/marcelo/Documentos/GER/SDP/SDP-2016/KDS/SDP-2016/Debug/../Sources/CameraController.c:90
	{
		rawImage[pixel] = 0;
	}

	// Initializes the camera
	initializeCamera();
    1ad2:	f7ff ffd1 	bl	1a78 <initializeCamera>
/home/marcelo/Documentos/GER/SDP/SDP-2016/KDS/SDP-2016/Debug/../Sources/CameraController.c:93

	// Camera activation
	Camera_CLK_Interruption_Enable();
    1ad6:	4b0d      	ldr	r3, [pc, #52]	; (1b0c <getRawImageMean+0x6c>)
    1ad8:	68db      	ldr	r3, [r3, #12]
    1ada:	1c18      	adds	r0, r3, #0
    1adc:	f001 feb4 	bl	3848 <TimerIntLdd1_Enable>
/home/marcelo/Documentos/GER/SDP/SDP-2016/KDS/SDP-2016/Debug/../Sources/CameraController.c:95

	while (currentSample < samplesNumber);
    1ae0:	46c0      	nop			; (mov r8, r8)
/home/marcelo/Documentos/GER/SDP/SDP-2016/KDS/SDP-2016/Debug/../Sources/CameraController.c:95 (discriminator 1)
    1ae2:	4b07      	ldr	r3, [pc, #28]	; (1b00 <getRawImageMean+0x60>)
    1ae4:	681a      	ldr	r2, [r3, #0]
    1ae6:	4b07      	ldr	r3, [pc, #28]	; (1b04 <getRawImageMean+0x64>)
    1ae8:	681b      	ldr	r3, [r3, #0]
    1aea:	429a      	cmp	r2, r3
    1aec:	dbf9      	blt.n	1ae2 <getRawImageMean+0x42>
/home/marcelo/Documentos/GER/SDP/SDP-2016/KDS/SDP-2016/Debug/../Sources/CameraController.c:97

	Camera_CLK_Interruption_Disable();
    1aee:	4b07      	ldr	r3, [pc, #28]	; (1b0c <getRawImageMean+0x6c>)
    1af0:	68db      	ldr	r3, [r3, #12]
    1af2:	1c18      	adds	r0, r3, #0
    1af4:	f001 fec0 	bl	3878 <TimerIntLdd1_Disable>
/home/marcelo/Documentos/GER/SDP/SDP-2016/KDS/SDP-2016/Debug/../Sources/CameraController.c:98
}
    1af8:	1c18      	adds	r0, r3, #0
    1afa:	46bd      	mov	sp, r7
    1afc:	b004      	add	sp, #16
    1afe:	bd80      	pop	{r7, pc}
    1b00:	1ffff1c0 	.word	0x1ffff1c0
    1b04:	1ffff1b8 	.word	0x1ffff1b8
    1b08:	1ffff1c8 	.word	0x1ffff1c8
    1b0c:	1ffff0cc 	.word	0x1ffff0cc

00001b10 <verifySample>:
verifySample():
/home/marcelo/Documentos/GER/SDP/SDP-2016/KDS/SDP-2016/Debug/../Sources/CameraController.c:105
/*
 * The initial currentSample value must be -1
 * The sampleNumber value must be >= 1
 */
void verifySample()
{
    1b10:	b590      	push	{r4, r7, lr}
    1b12:	b083      	sub	sp, #12
    1b14:	af00      	add	r7, sp, #0
/home/marcelo/Documentos/GER/SDP/SDP-2016/KDS/SDP-2016/Debug/../Sources/CameraController.c:107
	// The first sample is Discarded
	if (currentSample != -1)
    1b16:	4b16      	ldr	r3, [pc, #88]	; (1b70 <verifySample+0x60>)
    1b18:	681b      	ldr	r3, [r3, #0]
    1b1a:	3301      	adds	r3, #1
    1b1c:	d01f      	beq.n	1b5e <verifySample+0x4e>
/home/marcelo/Documentos/GER/SDP/SDP-2016/KDS/SDP-2016/Debug/../Sources/CameraController.c:109
	{
		for (int pixel = 0; pixel < 128; pixel++)
    1b1e:	2300      	movs	r3, #0
    1b20:	607b      	str	r3, [r7, #4]
    1b22:	e019      	b.n	1b58 <verifySample+0x48>
/home/marcelo/Documentos/GER/SDP/SDP-2016/KDS/SDP-2016/Debug/../Sources/CameraController.c:111 (discriminator 2)
		{
			rawImage[pixel] += rawImageBuffer[pixel] / samplesNumber;
    1b24:	4a13      	ldr	r2, [pc, #76]	; (1b74 <verifySample+0x64>)
    1b26:	687b      	ldr	r3, [r7, #4]
    1b28:	18d3      	adds	r3, r2, r3
    1b2a:	781c      	ldrb	r4, [r3, #0]
    1b2c:	4a12      	ldr	r2, [pc, #72]	; (1b78 <verifySample+0x68>)
    1b2e:	687b      	ldr	r3, [r7, #4]
    1b30:	18d3      	adds	r3, r2, r3
    1b32:	781b      	ldrb	r3, [r3, #0]
    1b34:	1c1a      	adds	r2, r3, #0
    1b36:	4b11      	ldr	r3, [pc, #68]	; (1b7c <verifySample+0x6c>)
    1b38:	681b      	ldr	r3, [r3, #0]
    1b3a:	1c10      	adds	r0, r2, #0
    1b3c:	1c19      	adds	r1, r3, #0
    1b3e:	f7fe fd21 	bl	584 <__aeabi_idiv>
    1b42:	1c03      	adds	r3, r0, #0
    1b44:	b2db      	uxtb	r3, r3
    1b46:	18e3      	adds	r3, r4, r3
    1b48:	b2da      	uxtb	r2, r3
    1b4a:	490a      	ldr	r1, [pc, #40]	; (1b74 <verifySample+0x64>)
    1b4c:	687b      	ldr	r3, [r7, #4]
    1b4e:	18cb      	adds	r3, r1, r3
    1b50:	701a      	strb	r2, [r3, #0]
/home/marcelo/Documentos/GER/SDP/SDP-2016/KDS/SDP-2016/Debug/../Sources/CameraController.c:109 (discriminator 2)
void verifySample()
{
	// The first sample is Discarded
	if (currentSample != -1)
	{
		for (int pixel = 0; pixel < 128; pixel++)
    1b52:	687b      	ldr	r3, [r7, #4]
    1b54:	3301      	adds	r3, #1
    1b56:	607b      	str	r3, [r7, #4]
/home/marcelo/Documentos/GER/SDP/SDP-2016/KDS/SDP-2016/Debug/../Sources/CameraController.c:109 (discriminator 1)
    1b58:	687b      	ldr	r3, [r7, #4]
    1b5a:	2b7f      	cmp	r3, #127	; 0x7f
    1b5c:	dde2      	ble.n	1b24 <verifySample+0x14>
/home/marcelo/Documentos/GER/SDP/SDP-2016/KDS/SDP-2016/Debug/../Sources/CameraController.c:114
		{
			rawImage[pixel] += rawImageBuffer[pixel] / samplesNumber;
		}
	}
	currentSample++;
    1b5e:	4b04      	ldr	r3, [pc, #16]	; (1b70 <verifySample+0x60>)
    1b60:	681b      	ldr	r3, [r3, #0]
    1b62:	1c5a      	adds	r2, r3, #1
    1b64:	4b02      	ldr	r3, [pc, #8]	; (1b70 <verifySample+0x60>)
    1b66:	601a      	str	r2, [r3, #0]
/home/marcelo/Documentos/GER/SDP/SDP-2016/KDS/SDP-2016/Debug/../Sources/CameraController.c:115
}
    1b68:	46bd      	mov	sp, r7
    1b6a:	b003      	add	sp, #12
    1b6c:	bd90      	pop	{r4, r7, pc}
    1b6e:	46c0      	nop			; (mov r8, r8)
    1b70:	1ffff1c0 	.word	0x1ffff1c0
    1b74:	1ffff1c8 	.word	0x1ffff1c8
    1b78:	1ffff248 	.word	0x1ffff248
    1b7c:	1ffff1b8 	.word	0x1ffff1b8

00001b80 <Cpu_OnNMIINT>:
Cpu_OnNMIINT():
/home/marcelo/Documentos/GER/SDP/SDP-2016/KDS/SDP-2016/Debug/../Sources/Events.c:53
 **         occurred. This event is automatically enabled when the [NMI
 **         interrupt] property is set to 'Enabled'.
 */
/* ===================================================================*/
void Cpu_OnNMIINT(void)
{
    1b80:	b580      	push	{r7, lr}
    1b82:	af00      	add	r7, sp, #0
/home/marcelo/Documentos/GER/SDP/SDP-2016/KDS/SDP-2016/Debug/../Sources/Events.c:55
	/* Write your code here ... */
}
    1b84:	46bd      	mov	sp, r7
    1b86:	bd80      	pop	{r7, pc}

00001b88 <Camera_CLK_Interruption_OnInterrupt>:
Camera_CLK_Interruption_OnInterrupt():
/home/marcelo/Documentos/GER/SDP/SDP-2016/KDS/SDP-2016/Debug/../Sources/Events.c:72
 **     Parameters  : None
 **     Returns     : Nothing
 ** ===================================================================
 */
void Camera_CLK_Interruption_OnInterrupt(void)
{
    1b88:	b580      	push	{r7, lr}
    1b8a:	af00      	add	r7, sp, #0
/home/marcelo/Documentos/GER/SDP/SDP-2016/KDS/SDP-2016/Debug/../Sources/Events.c:73
	switch (state)
    1b8c:	4b41      	ldr	r3, [pc, #260]	; (1c94 <Camera_CLK_Interruption_OnInterrupt+0x10c>)
    1b8e:	681b      	ldr	r3, [r3, #0]
    1b90:	2b04      	cmp	r3, #4
    1b92:	d900      	bls.n	1b96 <Camera_CLK_Interruption_OnInterrupt+0xe>
    1b94:	e07c      	b.n	1c90 <Camera_CLK_Interruption_OnInterrupt+0x108>
    1b96:	009a      	lsls	r2, r3, #2
    1b98:	4b3f      	ldr	r3, [pc, #252]	; (1c98 <Camera_CLK_Interruption_OnInterrupt+0x110>)
    1b9a:	18d3      	adds	r3, r2, r3
    1b9c:	681b      	ldr	r3, [r3, #0]
    1b9e:	469f      	mov	pc, r3
/home/marcelo/Documentos/GER/SDP/SDP-2016/KDS/SDP-2016/Debug/../Sources/Events.c:79
	{
	// First state
	case HALF_LOW_CLK:
	{
		// next state
		state = HIGH_CLK;
    1ba0:	4b3c      	ldr	r3, [pc, #240]	; (1c94 <Camera_CLK_Interruption_OnInterrupt+0x10c>)
    1ba2:	2200      	movs	r2, #0
    1ba4:	601a      	str	r2, [r3, #0]
/home/marcelo/Documentos/GER/SDP/SDP-2016/KDS/SDP-2016/Debug/../Sources/Events.c:81

		if (clockCounter == 0)
    1ba6:	4b3d      	ldr	r3, [pc, #244]	; (1c9c <Camera_CLK_Interruption_OnInterrupt+0x114>)
    1ba8:	681b      	ldr	r3, [r3, #0]
    1baa:	2b00      	cmp	r3, #0
    1bac:	d10e      	bne.n	1bcc <Camera_CLK_Interruption_OnInterrupt+0x44>
/home/marcelo/Documentos/GER/SDP/SDP-2016/KDS/SDP-2016/Debug/../Sources/Events.c:84
		{
			// SI High
			SI_SetVal();
    1bae:	4b3c      	ldr	r3, [pc, #240]	; (1ca0 <Camera_CLK_Interruption_OnInterrupt+0x118>)
    1bb0:	681b      	ldr	r3, [r3, #0]
    1bb2:	1c18      	adds	r0, r3, #0
    1bb4:	f000 fd6e 	bl	2694 <BitIoLdd1_SetVal>
/home/marcelo/Documentos/GER/SDP/SDP-2016/KDS/SDP-2016/Debug/../Sources/Events.c:85
			while (!SI_GetVal());
    1bb8:	46c0      	nop			; (mov r8, r8)
/home/marcelo/Documentos/GER/SDP/SDP-2016/KDS/SDP-2016/Debug/../Sources/Events.c:85 (discriminator 1)
    1bba:	4b39      	ldr	r3, [pc, #228]	; (1ca0 <Camera_CLK_Interruption_OnInterrupt+0x118>)
    1bbc:	681b      	ldr	r3, [r3, #0]
    1bbe:	1c18      	adds	r0, r3, #0
    1bc0:	f000 fd48 	bl	2654 <BitIoLdd1_GetVal>
    1bc4:	1c03      	adds	r3, r0, #0
    1bc6:	2b00      	cmp	r3, #0
    1bc8:	d0f7      	beq.n	1bba <Camera_CLK_Interruption_OnInterrupt+0x32>
/home/marcelo/Documentos/GER/SDP/SDP-2016/KDS/SDP-2016/Debug/../Sources/Events.c:100
			state = WAIT_TRANSFER_CHARGE;

			// Checks if reading is finished
			verifySample();
		}
		break;
    1bca:	e061      	b.n	1c90 <Camera_CLK_Interruption_OnInterrupt+0x108>
/home/marcelo/Documentos/GER/SDP/SDP-2016/KDS/SDP-2016/Debug/../Sources/Events.c:90
			while (!SI_GetVal());
		}

		// End of the cycle
		// The camera needs an extra clock (129) to send the last pixel
		else if (clockCounter == 129)
    1bcc:	4b33      	ldr	r3, [pc, #204]	; (1c9c <Camera_CLK_Interruption_OnInterrupt+0x114>)
    1bce:	681b      	ldr	r3, [r3, #0]
    1bd0:	2b81      	cmp	r3, #129	; 0x81
    1bd2:	d108      	bne.n	1be6 <Camera_CLK_Interruption_OnInterrupt+0x5e>
/home/marcelo/Documentos/GER/SDP/SDP-2016/KDS/SDP-2016/Debug/../Sources/Events.c:92
		{
			clockCounter = 0;
    1bd4:	4b31      	ldr	r3, [pc, #196]	; (1c9c <Camera_CLK_Interruption_OnInterrupt+0x114>)
    1bd6:	2200      	movs	r2, #0
    1bd8:	601a      	str	r2, [r3, #0]
/home/marcelo/Documentos/GER/SDP/SDP-2016/KDS/SDP-2016/Debug/../Sources/Events.c:95

			// And 20 microseconds to prepare for the next cycle.
			state = WAIT_TRANSFER_CHARGE;
    1bda:	4b2e      	ldr	r3, [pc, #184]	; (1c94 <Camera_CLK_Interruption_OnInterrupt+0x10c>)
    1bdc:	2204      	movs	r2, #4
    1bde:	601a      	str	r2, [r3, #0]
/home/marcelo/Documentos/GER/SDP/SDP-2016/KDS/SDP-2016/Debug/../Sources/Events.c:98

			// Checks if reading is finished
			verifySample();
    1be0:	f7ff ff96 	bl	1b10 <verifySample>
/home/marcelo/Documentos/GER/SDP/SDP-2016/KDS/SDP-2016/Debug/../Sources/Events.c:100
		}
		break;
    1be4:	e054      	b.n	1c90 <Camera_CLK_Interruption_OnInterrupt+0x108>
    1be6:	e053      	b.n	1c90 <Camera_CLK_Interruption_OnInterrupt+0x108>
/home/marcelo/Documentos/GER/SDP/SDP-2016/KDS/SDP-2016/Debug/../Sources/Events.c:106
	}

	case HIGH_CLK:
	{
		// Clock High.
		CLK_SetVal();
    1be8:	4b2d      	ldr	r3, [pc, #180]	; (1ca0 <Camera_CLK_Interruption_OnInterrupt+0x118>)
    1bea:	685b      	ldr	r3, [r3, #4]
    1bec:	1c18      	adds	r0, r3, #0
    1bee:	f000 fe0d 	bl	280c <BitIoLdd2_SetVal>
/home/marcelo/Documentos/GER/SDP/SDP-2016/KDS/SDP-2016/Debug/../Sources/Events.c:107
		while (!CLK_GetVal());
    1bf2:	46c0      	nop			; (mov r8, r8)
/home/marcelo/Documentos/GER/SDP/SDP-2016/KDS/SDP-2016/Debug/../Sources/Events.c:107 (discriminator 1)
    1bf4:	4b2a      	ldr	r3, [pc, #168]	; (1ca0 <Camera_CLK_Interruption_OnInterrupt+0x118>)
    1bf6:	685b      	ldr	r3, [r3, #4]
    1bf8:	1c18      	adds	r0, r3, #0
    1bfa:	f000 fde7 	bl	27cc <BitIoLdd2_GetVal>
    1bfe:	1c03      	adds	r3, r0, #0
    1c00:	2b00      	cmp	r3, #0
    1c02:	d0f7      	beq.n	1bf4 <Camera_CLK_Interruption_OnInterrupt+0x6c>
/home/marcelo/Documentos/GER/SDP/SDP-2016/KDS/SDP-2016/Debug/../Sources/Events.c:109

		clockCounter++;
    1c04:	4b25      	ldr	r3, [pc, #148]	; (1c9c <Camera_CLK_Interruption_OnInterrupt+0x114>)
    1c06:	681b      	ldr	r3, [r3, #0]
    1c08:	1c5a      	adds	r2, r3, #1
    1c0a:	4b24      	ldr	r3, [pc, #144]	; (1c9c <Camera_CLK_Interruption_OnInterrupt+0x114>)
    1c0c:	601a      	str	r2, [r3, #0]
/home/marcelo/Documentos/GER/SDP/SDP-2016/KDS/SDP-2016/Debug/../Sources/Events.c:111

		state = HALF_HIGH_CLK;
    1c0e:	4b21      	ldr	r3, [pc, #132]	; (1c94 <Camera_CLK_Interruption_OnInterrupt+0x10c>)
    1c10:	2201      	movs	r2, #1
    1c12:	601a      	str	r2, [r3, #0]
/home/marcelo/Documentos/GER/SDP/SDP-2016/KDS/SDP-2016/Debug/../Sources/Events.c:113

		break;
    1c14:	e03c      	b.n	1c90 <Camera_CLK_Interruption_OnInterrupt+0x108>
/home/marcelo/Documentos/GER/SDP/SDP-2016/KDS/SDP-2016/Debug/../Sources/Events.c:118
	}

	case HALF_HIGH_CLK:
	{
		if (clockCounter == 1)
    1c16:	4b21      	ldr	r3, [pc, #132]	; (1c9c <Camera_CLK_Interruption_OnInterrupt+0x114>)
    1c18:	681b      	ldr	r3, [r3, #0]
    1c1a:	2b01      	cmp	r3, #1
    1c1c:	d10d      	bne.n	1c3a <Camera_CLK_Interruption_OnInterrupt+0xb2>
/home/marcelo/Documentos/GER/SDP/SDP-2016/KDS/SDP-2016/Debug/../Sources/Events.c:121
		{
			// SI Low.
			SI_ClrVal();
    1c1e:	4b20      	ldr	r3, [pc, #128]	; (1ca0 <Camera_CLK_Interruption_OnInterrupt+0x118>)
    1c20:	681b      	ldr	r3, [r3, #0]
    1c22:	1c18      	adds	r0, r3, #0
    1c24:	f000 fd2a 	bl	267c <BitIoLdd1_ClrVal>
/home/marcelo/Documentos/GER/SDP/SDP-2016/KDS/SDP-2016/Debug/../Sources/Events.c:122
			while (SI_GetVal());
    1c28:	46c0      	nop			; (mov r8, r8)
/home/marcelo/Documentos/GER/SDP/SDP-2016/KDS/SDP-2016/Debug/../Sources/Events.c:122 (discriminator 1)
    1c2a:	4b1d      	ldr	r3, [pc, #116]	; (1ca0 <Camera_CLK_Interruption_OnInterrupt+0x118>)
    1c2c:	681b      	ldr	r3, [r3, #0]
    1c2e:	1c18      	adds	r0, r3, #0
    1c30:	f000 fd10 	bl	2654 <BitIoLdd1_GetVal>
    1c34:	1c03      	adds	r3, r0, #0
    1c36:	2b00      	cmp	r3, #0
    1c38:	d1f7      	bne.n	1c2a <Camera_CLK_Interruption_OnInterrupt+0xa2>
/home/marcelo/Documentos/GER/SDP/SDP-2016/KDS/SDP-2016/Debug/../Sources/Events.c:126
		}

		// Starts the AD convertion
		AD_Converter_MeasureChan(FALSE, 0);
    1c3a:	2000      	movs	r0, #0
    1c3c:	2100      	movs	r1, #0
    1c3e:	f000 fa7d 	bl	213c <AD_Converter_MeasureChan>
/home/marcelo/Documentos/GER/SDP/SDP-2016/KDS/SDP-2016/Debug/../Sources/Events.c:127
		state = LOW_CLK;
    1c42:	4b14      	ldr	r3, [pc, #80]	; (1c94 <Camera_CLK_Interruption_OnInterrupt+0x10c>)
    1c44:	2202      	movs	r2, #2
    1c46:	601a      	str	r2, [r3, #0]
/home/marcelo/Documentos/GER/SDP/SDP-2016/KDS/SDP-2016/Debug/../Sources/Events.c:128
		break;
    1c48:	e022      	b.n	1c90 <Camera_CLK_Interruption_OnInterrupt+0x108>
/home/marcelo/Documentos/GER/SDP/SDP-2016/KDS/SDP-2016/Debug/../Sources/Events.c:133
	}
	case LOW_CLK:
	{
		// Clock Low.
		CLK_ClrVal();
    1c4a:	4b15      	ldr	r3, [pc, #84]	; (1ca0 <Camera_CLK_Interruption_OnInterrupt+0x118>)
    1c4c:	685b      	ldr	r3, [r3, #4]
    1c4e:	1c18      	adds	r0, r3, #0
    1c50:	f000 fdd0 	bl	27f4 <BitIoLdd2_ClrVal>
/home/marcelo/Documentos/GER/SDP/SDP-2016/KDS/SDP-2016/Debug/../Sources/Events.c:134
		while (CLK_GetVal());
    1c54:	46c0      	nop			; (mov r8, r8)
/home/marcelo/Documentos/GER/SDP/SDP-2016/KDS/SDP-2016/Debug/../Sources/Events.c:134 (discriminator 1)
    1c56:	4b12      	ldr	r3, [pc, #72]	; (1ca0 <Camera_CLK_Interruption_OnInterrupt+0x118>)
    1c58:	685b      	ldr	r3, [r3, #4]
    1c5a:	1c18      	adds	r0, r3, #0
    1c5c:	f000 fdb6 	bl	27cc <BitIoLdd2_GetVal>
    1c60:	1c03      	adds	r3, r0, #0
    1c62:	2b00      	cmp	r3, #0
    1c64:	d1f7      	bne.n	1c56 <Camera_CLK_Interruption_OnInterrupt+0xce>
/home/marcelo/Documentos/GER/SDP/SDP-2016/KDS/SDP-2016/Debug/../Sources/Events.c:136

		state = HALF_LOW_CLK;
    1c66:	4b0b      	ldr	r3, [pc, #44]	; (1c94 <Camera_CLK_Interruption_OnInterrupt+0x10c>)
    1c68:	2203      	movs	r2, #3
    1c6a:	601a      	str	r2, [r3, #0]
/home/marcelo/Documentos/GER/SDP/SDP-2016/KDS/SDP-2016/Debug/../Sources/Events.c:138

		break;
    1c6c:	e010      	b.n	1c90 <Camera_CLK_Interruption_OnInterrupt+0x108>
/home/marcelo/Documentos/GER/SDP/SDP-2016/KDS/SDP-2016/Debug/../Sources/Events.c:144
	}

	// Pixel charge transfer time
	case WAIT_TRANSFER_CHARGE:
	{
		if (transferTime)
    1c6e:	4b0d      	ldr	r3, [pc, #52]	; (1ca4 <Camera_CLK_Interruption_OnInterrupt+0x11c>)
    1c70:	681b      	ldr	r3, [r3, #0]
    1c72:	2b00      	cmp	r3, #0
    1c74:	d005      	beq.n	1c82 <Camera_CLK_Interruption_OnInterrupt+0xfa>
/home/marcelo/Documentos/GER/SDP/SDP-2016/KDS/SDP-2016/Debug/../Sources/Events.c:146
		{
			transferTime++;
    1c76:	4b0b      	ldr	r3, [pc, #44]	; (1ca4 <Camera_CLK_Interruption_OnInterrupt+0x11c>)
    1c78:	681b      	ldr	r3, [r3, #0]
    1c7a:	1c5a      	adds	r2, r3, #1
    1c7c:	4b09      	ldr	r3, [pc, #36]	; (1ca4 <Camera_CLK_Interruption_OnInterrupt+0x11c>)
    1c7e:	601a      	str	r2, [r3, #0]
    1c80:	e005      	b.n	1c8e <Camera_CLK_Interruption_OnInterrupt+0x106>
/home/marcelo/Documentos/GER/SDP/SDP-2016/KDS/SDP-2016/Debug/../Sources/Events.c:150
		}
		else
		{
			transferTime = 0;
    1c82:	4b08      	ldr	r3, [pc, #32]	; (1ca4 <Camera_CLK_Interruption_OnInterrupt+0x11c>)
    1c84:	2200      	movs	r2, #0
    1c86:	601a      	str	r2, [r3, #0]
/home/marcelo/Documentos/GER/SDP/SDP-2016/KDS/SDP-2016/Debug/../Sources/Events.c:151
			state = HALF_LOW_CLK;
    1c88:	4b02      	ldr	r3, [pc, #8]	; (1c94 <Camera_CLK_Interruption_OnInterrupt+0x10c>)
    1c8a:	2203      	movs	r2, #3
    1c8c:	601a      	str	r2, [r3, #0]
/home/marcelo/Documentos/GER/SDP/SDP-2016/KDS/SDP-2016/Debug/../Sources/Events.c:154
		}

		break;
    1c8e:	46c0      	nop			; (mov r8, r8)
/home/marcelo/Documentos/GER/SDP/SDP-2016/KDS/SDP-2016/Debug/../Sources/Events.c:158
	}

	}
}
    1c90:	46bd      	mov	sp, r7
    1c92:	bd80      	pop	{r7, pc}
    1c94:	1ffff1c4 	.word	0x1ffff1c4
    1c98:	000039d8 	.word	0x000039d8
    1c9c:	1ffff1b4 	.word	0x1ffff1b4
    1ca0:	1ffff0cc 	.word	0x1ffff0cc
    1ca4:	1ffff1bc 	.word	0x1ffff1bc

00001ca8 <AD_Converter_OnEnd>:
AD_Converter_OnEnd():
/home/marcelo/Documentos/GER/SDP/SDP-2016/KDS/SDP-2016/Debug/../Sources/Events.c:175
 **     Parameters  : None
 **     Returns     : Nothing
 ** ===================================================================
 */
void AD_Converter_OnEnd(void)
{
    1ca8:	b580      	push	{r7, lr}
    1caa:	af00      	add	r7, sp, #0
/home/marcelo/Documentos/GER/SDP/SDP-2016/KDS/SDP-2016/Debug/../Sources/Events.c:176
	if (!handlingPowerUpdate)
    1cac:	4b08      	ldr	r3, [pc, #32]	; (1cd0 <AD_Converter_OnEnd+0x28>)
    1cae:	781b      	ldrb	r3, [r3, #0]
    1cb0:	b2db      	uxtb	r3, r3
    1cb2:	2b00      	cmp	r3, #0
    1cb4:	d108      	bne.n	1cc8 <AD_Converter_OnEnd+0x20>
/home/marcelo/Documentos/GER/SDP/SDP-2016/KDS/SDP-2016/Debug/../Sources/Events.c:178
	{
		AD_Converter_GetChanValue(0, &rawImageBuffer[clockCounter]);
    1cb6:	4b07      	ldr	r3, [pc, #28]	; (1cd4 <AD_Converter_OnEnd+0x2c>)
    1cb8:	681a      	ldr	r2, [r3, #0]
    1cba:	4b07      	ldr	r3, [pc, #28]	; (1cd8 <AD_Converter_OnEnd+0x30>)
    1cbc:	18d3      	adds	r3, r2, r3
    1cbe:	2000      	movs	r0, #0
    1cc0:	1c19      	adds	r1, r3, #0
    1cc2:	f000 fa6d 	bl	21a0 <AD_Converter_GetChanValue>
    1cc6:	e001      	b.n	1ccc <AD_Converter_OnEnd+0x24>
/home/marcelo/Documentos/GER/SDP/SDP-2016/KDS/SDP-2016/Debug/../Sources/Events.c:182
	}
	else
	{
		updatePowerState();
    1cc8:	f7ff fdbe 	bl	1848 <updatePowerState>
/home/marcelo/Documentos/GER/SDP/SDP-2016/KDS/SDP-2016/Debug/../Sources/Events.c:184
	}
}
    1ccc:	46bd      	mov	sp, r7
    1cce:	bd80      	pop	{r7, pc}
    1cd0:	1ffff1a8 	.word	0x1ffff1a8
    1cd4:	1ffff1b4 	.word	0x1ffff1b4
    1cd8:	1ffff248 	.word	0x1ffff248

00001cdc <SerialCom_OnBlockSent>:
SerialCom_OnBlockSent():
/home/marcelo/Documentos/GER/SDP/SDP-2016/KDS/SDP-2016/Debug/../Sources/Events.c:203
 **                           RTOS specific data. This pointer is passed
 **                           as the parameter of Init method.
 */
/* ===================================================================*/
void SerialCom_OnBlockSent(LDD_TUserData *UserDataPtr)
{
    1cdc:	b580      	push	{r7, lr}
    1cde:	b084      	sub	sp, #16
    1ce0:	af00      	add	r7, sp, #0
    1ce2:	6078      	str	r0, [r7, #4]
/home/marcelo/Documentos/GER/SDP/SDP-2016/KDS/SDP-2016/Debug/../Sources/Events.c:204
	Serial_Device *ptr = (Serial_Device*)UserDataPtr;
    1ce4:	687b      	ldr	r3, [r7, #4]
    1ce6:	60fb      	str	r3, [r7, #12]
/home/marcelo/Documentos/GER/SDP/SDP-2016/KDS/SDP-2016/Debug/../Sources/Events.c:206

	ptr->isSent = TRUE; /* set flag so sender knows we have finished */
    1ce8:	68fb      	ldr	r3, [r7, #12]
    1cea:	2201      	movs	r2, #1
    1cec:	711a      	strb	r2, [r3, #4]
/home/marcelo/Documentos/GER/SDP/SDP-2016/KDS/SDP-2016/Debug/../Sources/Events.c:207
}
    1cee:	46bd      	mov	sp, r7
    1cf0:	b004      	add	sp, #16
    1cf2:	bd80      	pop	{r7, pc}

00001cf4 <init_Serial>:
init_Serial():
/home/marcelo/Documentos/GER/SDP/SDP-2016/KDS/SDP-2016/Debug/../Sources/SerialCommunication.c:13
#include "SerialCommunication.h"

static Serial_Device deviceData;

static void init_Serial()
{
    1cf4:	b580      	push	{r7, lr}
    1cf6:	af00      	add	r7, sp, #0
/home/marcelo/Documentos/GER/SDP/SDP-2016/KDS/SDP-2016/Debug/../Sources/SerialCommunication.c:14
	deviceData.handle = SerialCom_Init(&deviceData); /* Initialization of serial component */
    1cf8:	4b05      	ldr	r3, [pc, #20]	; (1d10 <init_Serial+0x1c>)
    1cfa:	1c18      	adds	r0, r3, #0
    1cfc:	f001 f9dc 	bl	30b8 <SerialCom_Init>
    1d00:	1c02      	adds	r2, r0, #0
    1d02:	4b03      	ldr	r3, [pc, #12]	; (1d10 <init_Serial+0x1c>)
    1d04:	601a      	str	r2, [r3, #0]
/home/marcelo/Documentos/GER/SDP/SDP-2016/KDS/SDP-2016/Debug/../Sources/SerialCommunication.c:15
	deviceData.isSent = FALSE;
    1d06:	4b02      	ldr	r3, [pc, #8]	; (1d10 <init_Serial+0x1c>)
    1d08:	2200      	movs	r2, #0
    1d0a:	711a      	strb	r2, [r3, #4]
/home/marcelo/Documentos/GER/SDP/SDP-2016/KDS/SDP-2016/Debug/../Sources/SerialCommunication.c:16
}
    1d0c:	46bd      	mov	sp, r7
    1d0e:	bd80      	pop	{r7, pc}
    1d10:	1ffff07c 	.word	0x1ffff07c

00001d14 <sendAChar>:
sendAChar():
/home/marcelo/Documentos/GER/SDP/SDP-2016/KDS/SDP-2016/Debug/../Sources/SerialCommunication.c:19

static int sendAChar(unsigned char ch)
{
    1d14:	b580      	push	{r7, lr}
    1d16:	b082      	sub	sp, #8
    1d18:	af00      	add	r7, sp, #0
    1d1a:	1c02      	adds	r2, r0, #0
    1d1c:	1dfb      	adds	r3, r7, #7
    1d1e:	701a      	strb	r2, [r3, #0]
/home/marcelo/Documentos/GER/SDP/SDP-2016/KDS/SDP-2016/Debug/../Sources/SerialCommunication.c:20
	deviceData.isSent = FALSE;
    1d20:	4b0c      	ldr	r3, [pc, #48]	; (1d54 <sendAChar+0x40>)
    1d22:	2200      	movs	r2, #0
    1d24:	711a      	strb	r2, [r3, #4]
/home/marcelo/Documentos/GER/SDP/SDP-2016/KDS/SDP-2016/Debug/../Sources/SerialCommunication.c:21
	while(SerialCom_SendBlock(deviceData.handle, (LDD_TData*)&ch, 1)!= ERR_OK) {} /* Send char */
    1d26:	46c0      	nop			; (mov r8, r8)
/home/marcelo/Documentos/GER/SDP/SDP-2016/KDS/SDP-2016/Debug/../Sources/SerialCommunication.c:21 (discriminator 1)
    1d28:	4b0a      	ldr	r3, [pc, #40]	; (1d54 <sendAChar+0x40>)
    1d2a:	681a      	ldr	r2, [r3, #0]
    1d2c:	1dfb      	adds	r3, r7, #7
    1d2e:	1c10      	adds	r0, r2, #0
    1d30:	1c19      	adds	r1, r3, #0
    1d32:	2201      	movs	r2, #1
    1d34:	f001 fa98 	bl	3268 <SerialCom_SendBlock>
    1d38:	1c03      	adds	r3, r0, #0
    1d3a:	2b00      	cmp	r3, #0
    1d3c:	d1f4      	bne.n	1d28 <sendAChar+0x14>
/home/marcelo/Documentos/GER/SDP/SDP-2016/KDS/SDP-2016/Debug/../Sources/SerialCommunication.c:22
	while(!deviceData.isSent) {} /* wait until we get the green flag from the TX interrupt */
    1d3e:	46c0      	nop			; (mov r8, r8)
/home/marcelo/Documentos/GER/SDP/SDP-2016/KDS/SDP-2016/Debug/../Sources/SerialCommunication.c:22 (discriminator 1)
    1d40:	4b04      	ldr	r3, [pc, #16]	; (1d54 <sendAChar+0x40>)
    1d42:	791b      	ldrb	r3, [r3, #4]
    1d44:	b2db      	uxtb	r3, r3
    1d46:	2b00      	cmp	r3, #0
    1d48:	d0fa      	beq.n	1d40 <sendAChar+0x2c>
/home/marcelo/Documentos/GER/SDP/SDP-2016/KDS/SDP-2016/Debug/../Sources/SerialCommunication.c:23
}
    1d4a:	1c18      	adds	r0, r3, #0
    1d4c:	46bd      	mov	sp, r7
    1d4e:	b002      	add	sp, #8
    1d50:	bd80      	pop	{r7, pc}
    1d52:	46c0      	nop			; (mov r8, r8)
    1d54:	1ffff07c 	.word	0x1ffff07c

00001d58 <itoa_8_bit>:
itoa_8_bit():
/home/marcelo/Documentos/GER/SDP/SDP-2016/KDS/SDP-2016/Debug/../Sources/SerialCommunication.c:43
		sendAChar(string[index++]);
	}
}

void itoa_8_bit(uint8 sample)
{
    1d58:	b580      	push	{r7, lr}
    1d5a:	b088      	sub	sp, #32
    1d5c:	af00      	add	r7, sp, #0
    1d5e:	1c02      	adds	r2, r0, #0
    1d60:	1dfb      	adds	r3, r7, #7
    1d62:	701a      	strb	r2, [r3, #0]
/home/marcelo/Documentos/GER/SDP/SDP-2016/KDS/SDP-2016/Debug/../Sources/SerialCommunication.c:53
	{
		sendAChar('E');
		return;
	}

	R1 = (unsigned char) (sample % 10) + '0';
    1d64:	1dfb      	adds	r3, r7, #7
    1d66:	781b      	ldrb	r3, [r3, #0]
    1d68:	1c18      	adds	r0, r3, #0
    1d6a:	210a      	movs	r1, #10
    1d6c:	f7fe fc00 	bl	570 <__aeabi_uidivmod>
    1d70:	1c0b      	adds	r3, r1, #0
    1d72:	b2da      	uxtb	r2, r3
    1d74:	1c3b      	adds	r3, r7, #0
    1d76:	331f      	adds	r3, #31
    1d78:	3230      	adds	r2, #48	; 0x30
    1d7a:	701a      	strb	r2, [r3, #0]
/home/marcelo/Documentos/GER/SDP/SDP-2016/KDS/SDP-2016/Debug/../Sources/SerialCommunication.c:54
	Q1 = sample / 10;
    1d7c:	1dfb      	adds	r3, r7, #7
    1d7e:	781b      	ldrb	r3, [r3, #0]
    1d80:	1c18      	adds	r0, r3, #0
    1d82:	210a      	movs	r1, #10
    1d84:	f7fe fbb0 	bl	4e8 <__aeabi_uidiv>
    1d88:	1c03      	adds	r3, r0, #0
    1d8a:	b2db      	uxtb	r3, r3
    1d8c:	61bb      	str	r3, [r7, #24]
/home/marcelo/Documentos/GER/SDP/SDP-2016/KDS/SDP-2016/Debug/../Sources/SerialCommunication.c:56

	R2 = (unsigned char) (Q1 % 10) + '0';
    1d8e:	69bb      	ldr	r3, [r7, #24]
    1d90:	1c18      	adds	r0, r3, #0
    1d92:	210a      	movs	r1, #10
    1d94:	f7fe fc4c 	bl	630 <__aeabi_idivmod>
    1d98:	1c0b      	adds	r3, r1, #0
    1d9a:	b2da      	uxtb	r2, r3
    1d9c:	1c3b      	adds	r3, r7, #0
    1d9e:	3317      	adds	r3, #23
    1da0:	3230      	adds	r2, #48	; 0x30
    1da2:	701a      	strb	r2, [r3, #0]
/home/marcelo/Documentos/GER/SDP/SDP-2016/KDS/SDP-2016/Debug/../Sources/SerialCommunication.c:57
	Q2 = Q1 / 10;
    1da4:	69bb      	ldr	r3, [r7, #24]
    1da6:	1c18      	adds	r0, r3, #0
    1da8:	210a      	movs	r1, #10
    1daa:	f7fe fbeb 	bl	584 <__aeabi_idiv>
    1dae:	1c03      	adds	r3, r0, #0
    1db0:	613b      	str	r3, [r7, #16]
/home/marcelo/Documentos/GER/SDP/SDP-2016/KDS/SDP-2016/Debug/../Sources/SerialCommunication.c:59

	R3 = (unsigned char) (Q2 % 10) + '0';
    1db2:	693b      	ldr	r3, [r7, #16]
    1db4:	1c18      	adds	r0, r3, #0
    1db6:	210a      	movs	r1, #10
    1db8:	f7fe fc3a 	bl	630 <__aeabi_idivmod>
    1dbc:	1c0b      	adds	r3, r1, #0
    1dbe:	b2da      	uxtb	r2, r3
    1dc0:	1c3b      	adds	r3, r7, #0
    1dc2:	330f      	adds	r3, #15
    1dc4:	3230      	adds	r2, #48	; 0x30
    1dc6:	701a      	strb	r2, [r3, #0]
/home/marcelo/Documentos/GER/SDP/SDP-2016/KDS/SDP-2016/Debug/../Sources/SerialCommunication.c:61

	sendAChar(R3);
    1dc8:	1c3b      	adds	r3, r7, #0
    1dca:	330f      	adds	r3, #15
    1dcc:	781b      	ldrb	r3, [r3, #0]
    1dce:	1c18      	adds	r0, r3, #0
    1dd0:	f7ff ffa0 	bl	1d14 <sendAChar>
/home/marcelo/Documentos/GER/SDP/SDP-2016/KDS/SDP-2016/Debug/../Sources/SerialCommunication.c:62
	sendAChar(R2);
    1dd4:	1c3b      	adds	r3, r7, #0
    1dd6:	3317      	adds	r3, #23
    1dd8:	781b      	ldrb	r3, [r3, #0]
    1dda:	1c18      	adds	r0, r3, #0
    1ddc:	f7ff ff9a 	bl	1d14 <sendAChar>
/home/marcelo/Documentos/GER/SDP/SDP-2016/KDS/SDP-2016/Debug/../Sources/SerialCommunication.c:63
	sendAChar(R1);
    1de0:	1c3b      	adds	r3, r7, #0
    1de2:	331f      	adds	r3, #31
    1de4:	781b      	ldrb	r3, [r3, #0]
    1de6:	1c18      	adds	r0, r3, #0
    1de8:	f7ff ff94 	bl	1d14 <sendAChar>
/home/marcelo/Documentos/GER/SDP/SDP-2016/KDS/SDP-2016/Debug/../Sources/SerialCommunication.c:64
}
    1dec:	46bd      	mov	sp, r7
    1dee:	b008      	add	sp, #32
    1df0:	bd80      	pop	{r7, pc}
    1df2:	46c0      	nop			; (mov r8, r8)

00001df4 <sendArrayOfPixels>:
sendArrayOfPixels():
/home/marcelo/Documentos/GER/SDP/SDP-2016/KDS/SDP-2016/Debug/../Sources/SerialCommunication.c:67

void sendArrayOfPixels(uint8 array[])
{
    1df4:	b580      	push	{r7, lr}
    1df6:	b084      	sub	sp, #16
    1df8:	af00      	add	r7, sp, #0
    1dfa:	6078      	str	r0, [r7, #4]
/home/marcelo/Documentos/GER/SDP/SDP-2016/KDS/SDP-2016/Debug/../Sources/SerialCommunication.c:68
	init_Serial();
    1dfc:	f7ff ff7a 	bl	1cf4 <init_Serial>
/home/marcelo/Documentos/GER/SDP/SDP-2016/KDS/SDP-2016/Debug/../Sources/SerialCommunication.c:70

	for (int pixel = 0; pixel < 128; pixel++)
    1e00:	2300      	movs	r3, #0
    1e02:	60fb      	str	r3, [r7, #12]
    1e04:	e00c      	b.n	1e20 <sendArrayOfPixels+0x2c>
/home/marcelo/Documentos/GER/SDP/SDP-2016/KDS/SDP-2016/Debug/../Sources/SerialCommunication.c:72 (discriminator 2)
	{
		itoa_8_bit(array[pixel]);
    1e06:	68fb      	ldr	r3, [r7, #12]
    1e08:	687a      	ldr	r2, [r7, #4]
    1e0a:	18d3      	adds	r3, r2, r3
    1e0c:	781b      	ldrb	r3, [r3, #0]
    1e0e:	1c18      	adds	r0, r3, #0
    1e10:	f7ff ffa2 	bl	1d58 <itoa_8_bit>
/home/marcelo/Documentos/GER/SDP/SDP-2016/KDS/SDP-2016/Debug/../Sources/SerialCommunication.c:73 (discriminator 2)
		sendAChar(' ');
    1e14:	2020      	movs	r0, #32
    1e16:	f7ff ff7d 	bl	1d14 <sendAChar>
/home/marcelo/Documentos/GER/SDP/SDP-2016/KDS/SDP-2016/Debug/../Sources/SerialCommunication.c:70 (discriminator 2)

void sendArrayOfPixels(uint8 array[])
{
	init_Serial();

	for (int pixel = 0; pixel < 128; pixel++)
    1e1a:	68fb      	ldr	r3, [r7, #12]
    1e1c:	3301      	adds	r3, #1
    1e1e:	60fb      	str	r3, [r7, #12]
/home/marcelo/Documentos/GER/SDP/SDP-2016/KDS/SDP-2016/Debug/../Sources/SerialCommunication.c:70 (discriminator 1)
    1e20:	68fb      	ldr	r3, [r7, #12]
    1e22:	2b7f      	cmp	r3, #127	; 0x7f
    1e24:	ddef      	ble.n	1e06 <sendArrayOfPixels+0x12>
/home/marcelo/Documentos/GER/SDP/SDP-2016/KDS/SDP-2016/Debug/../Sources/SerialCommunication.c:76
	{
		itoa_8_bit(array[pixel]);
		sendAChar(' ');
	}

	sendAChar('\n');
    1e26:	200a      	movs	r0, #10
    1e28:	f7ff ff74 	bl	1d14 <sendAChar>
/home/marcelo/Documentos/GER/SDP/SDP-2016/KDS/SDP-2016/Debug/../Sources/SerialCommunication.c:77
	sendAChar('\r');
    1e2c:	200d      	movs	r0, #13
    1e2e:	f7ff ff71 	bl	1d14 <sendAChar>
/home/marcelo/Documentos/GER/SDP/SDP-2016/KDS/SDP-2016/Debug/../Sources/SerialCommunication.c:79

	serialFinished = TRUE;
    1e32:	4b03      	ldr	r3, [pc, #12]	; (1e40 <sendArrayOfPixels+0x4c>)
    1e34:	2201      	movs	r2, #1
    1e36:	701a      	strb	r2, [r3, #0]
/home/marcelo/Documentos/GER/SDP/SDP-2016/KDS/SDP-2016/Debug/../Sources/SerialCommunication.c:80
}
    1e38:	46bd      	mov	sp, r7
    1e3a:	b004      	add	sp, #16
    1e3c:	bd80      	pop	{r7, pc}
    1e3e:	46c0      	nop			; (mov r8, r8)
    1e40:	1ffff1b0 	.word	0x1ffff1b0

00001e44 <main>:
main():
/home/marcelo/Documentos/GER/SDP/SDP-2016/KDS/SDP-2016/Debug/../Sources/main.c:94
volatile bool ApplicationEnd;

/*lint -save  -e970 Disable MISRA rule (6.3) checking. */
int main(void)
/*lint -restore Enable_Motors MISRA rule (6.3) checking. */
{
    1e44:	b580      	push	{r7, lr}
    1e46:	b0a2      	sub	sp, #136	; 0x88
    1e48:	af00      	add	r7, sp, #0
/home/marcelo/Documentos/GER/SDP/SDP-2016/KDS/SDP-2016/Debug/../Sources/main.c:96
	/*** Processor Expert internal initialization. DON'T REMOVE THIS CODE!!! ***/
	PE_low_level_init();
    1e4a:	f000 ffa7 	bl	2d9c <PE_low_level_init>
/home/marcelo/Documentos/GER/SDP/SDP-2016/KDS/SDP-2016/Debug/../Sources/main.c:100
	/*** End of Processor Expert internal initialization.                    ***/

	// Enables motors
	Enable_Motors_SetVal();
    1e4e:	4b20      	ldr	r3, [pc, #128]	; (1ed0 <main+0x8c>)
    1e50:	699b      	ldr	r3, [r3, #24]
    1e52:	1c18      	adds	r0, r3, #0
    1e54:	f000 fd5a 	bl	290c <BitIoLdd4_SetVal>
/home/marcelo/Documentos/GER/SDP/SDP-2016/KDS/SDP-2016/Debug/../Sources/main.c:102

	Servomotor_Enable();
    1e58:	4b1d      	ldr	r3, [pc, #116]	; (1ed0 <main+0x8c>)
    1e5a:	6b5b      	ldr	r3, [r3, #52]	; 0x34
    1e5c:	1c18      	adds	r0, r3, #0
    1e5e:	f001 f913 	bl	3088 <PwmLdd5_Enable>
/home/marcelo/Documentos/GER/SDP/SDP-2016/KDS/SDP-2016/Debug/../Sources/main.c:108

	// Update the battery indicator LED
//	updateBatteryLevel();

	// Wait for the SW2 button to be pressed
	while (!SW2_Start_Button_GetVal());
    1e62:	46c0      	nop			; (mov r8, r8)
/home/marcelo/Documentos/GER/SDP/SDP-2016/KDS/SDP-2016/Debug/../Sources/main.c:108 (discriminator 1)
    1e64:	4b1a      	ldr	r3, [pc, #104]	; (1ed0 <main+0x8c>)
    1e66:	6b9b      	ldr	r3, [r3, #56]	; 0x38
    1e68:	1c18      	adds	r0, r3, #0
    1e6a:	f000 fd07 	bl	287c <BitIoLdd3_GetVal>
    1e6e:	1c03      	adds	r3, r0, #0
    1e70:	2b00      	cmp	r3, #0
    1e72:	d0f7      	beq.n	1e64 <main+0x20>
/home/marcelo/Documentos/GER/SDP/SDP-2016/KDS/SDP-2016/Debug/../Sources/main.c:110

	ApplicationEnd = FALSE;
    1e74:	4b17      	ldr	r3, [pc, #92]	; (1ed4 <main+0x90>)
    1e76:	2200      	movs	r2, #0
    1e78:	701a      	strb	r2, [r3, #0]
/home/marcelo/Documentos/GER/SDP/SDP-2016/KDS/SDP-2016/Debug/../Sources/main.c:112
	uint8 vetor[128];
	for (int i = 0; i < 128;i++)
    1e7a:	2300      	movs	r3, #0
    1e7c:	2084      	movs	r0, #132	; 0x84
    1e7e:	19c0      	adds	r0, r0, r7
    1e80:	6003      	str	r3, [r0, #0]
    1e82:	e010      	b.n	1ea6 <main+0x62>
/home/marcelo/Documentos/GER/SDP/SDP-2016/KDS/SDP-2016/Debug/../Sources/main.c:113 (discriminator 2)
		vetor[i] = i;
    1e84:	2284      	movs	r2, #132	; 0x84
    1e86:	19d2      	adds	r2, r2, r7
    1e88:	6813      	ldr	r3, [r2, #0]
    1e8a:	b2da      	uxtb	r2, r3
    1e8c:	1d39      	adds	r1, r7, #4
    1e8e:	2084      	movs	r0, #132	; 0x84
    1e90:	19c0      	adds	r0, r0, r7
    1e92:	6803      	ldr	r3, [r0, #0]
    1e94:	18cb      	adds	r3, r1, r3
    1e96:	701a      	strb	r2, [r3, #0]
/home/marcelo/Documentos/GER/SDP/SDP-2016/KDS/SDP-2016/Debug/../Sources/main.c:112 (discriminator 2)
	// Wait for the SW2 button to be pressed
	while (!SW2_Start_Button_GetVal());

	ApplicationEnd = FALSE;
	uint8 vetor[128];
	for (int i = 0; i < 128;i++)
    1e98:	2284      	movs	r2, #132	; 0x84
    1e9a:	19d2      	adds	r2, r2, r7
    1e9c:	6813      	ldr	r3, [r2, #0]
    1e9e:	3301      	adds	r3, #1
    1ea0:	2084      	movs	r0, #132	; 0x84
    1ea2:	19c0      	adds	r0, r0, r7
    1ea4:	6003      	str	r3, [r0, #0]
/home/marcelo/Documentos/GER/SDP/SDP-2016/KDS/SDP-2016/Debug/../Sources/main.c:112 (discriminator 1)
    1ea6:	2284      	movs	r2, #132	; 0x84
    1ea8:	19d2      	adds	r2, r2, r7
    1eaa:	6813      	ldr	r3, [r2, #0]
    1eac:	2b7f      	cmp	r3, #127	; 0x7f
    1eae:	dde9      	ble.n	1e84 <main+0x40>
/home/marcelo/Documentos/GER/SDP/SDP-2016/KDS/SDP-2016/Debug/../Sources/main.c:116
		vetor[i] = i;

	// Program Loop
	while (!ApplicationEnd)
    1eb0:	e008      	b.n	1ec4 <main+0x80>
/home/marcelo/Documentos/GER/SDP/SDP-2016/KDS/SDP-2016/Debug/../Sources/main.c:119
	{

		getRawImageMean(1);
    1eb2:	2001      	movs	r0, #1
    1eb4:	f7ff fdf4 	bl	1aa0 <getRawImageMean>
/home/marcelo/Documentos/GER/SDP/SDP-2016/KDS/SDP-2016/Debug/../Sources/main.c:121
//		sendArrayOfPixels(rawImage);
		sendArrayOfPixels(vetor);
    1eb8:	1d3b      	adds	r3, r7, #4
    1eba:	1c18      	adds	r0, r3, #0
    1ebc:	f7ff ff9a 	bl	1df4 <sendArrayOfPixels>
/home/marcelo/Documentos/GER/SDP/SDP-2016/KDS/SDP-2016/Debug/../Sources/main.c:128

		//setMotorsSpeed(100, 100);
		//setServoDirection(175);

		// Update the battery indicator LED
		updateBatteryLevel();
    1ec0:	f7ff fcac 	bl	181c <updateBatteryLevel>
/home/marcelo/Documentos/GER/SDP/SDP-2016/KDS/SDP-2016/Debug/../Sources/main.c:116 (discriminator 1)
	uint8 vetor[128];
	for (int i = 0; i < 128;i++)
		vetor[i] = i;

	// Program Loop
	while (!ApplicationEnd)
    1ec4:	4b03      	ldr	r3, [pc, #12]	; (1ed4 <main+0x90>)
    1ec6:	781b      	ldrb	r3, [r3, #0]
    1ec8:	b2db      	uxtb	r3, r3
    1eca:	2b00      	cmp	r3, #0
    1ecc:	d0f1      	beq.n	1eb2 <main+0x6e>
/home/marcelo/Documentos/GER/SDP/SDP-2016/KDS/SDP-2016/Debug/../Sources/main.c:140 (discriminator 1)
  #ifdef PEX_RTOS_START
    PEX_RTOS_START();                  /* Startup of the selected RTOS. Macro is defined by the RTOS component. */
  #endif
  /*** End of RTOS startup code.  ***/
  /*** Processor Expert end of main routine. DON'T MODIFY THIS CODE!!! ***/
  for(;;){}
    1ece:	e7fe      	b.n	1ece <main+0x8a>
    1ed0:	1ffff0cc 	.word	0x1ffff0cc
    1ed4:	1ffff2c8 	.word	0x1ffff2c8

00001ed8 <__copy_rom_section>:
__copy_rom_section():
/home/marcelo/Documentos/GER/SDP/SDP-2016/KDS/SDP-2016/Debug/../Project_Settings/Startup_Code/startup.c:44

/*
 *	Routine to copy a single section from ROM to RAM ...
 */
void __copy_rom_section(unsigned long dst, unsigned long src, unsigned long size)
{
    1ed8:	b580      	push	{r7, lr}
    1eda:	b08a      	sub	sp, #40	; 0x28
    1edc:	af00      	add	r7, sp, #0
    1ede:	60f8      	str	r0, [r7, #12]
    1ee0:	60b9      	str	r1, [r7, #8]
    1ee2:	607a      	str	r2, [r7, #4]
/home/marcelo/Documentos/GER/SDP/SDP-2016/KDS/SDP-2016/Debug/../Project_Settings/Startup_Code/startup.c:45
	unsigned long len = size;
    1ee4:	687b      	ldr	r3, [r7, #4]
    1ee6:	627b      	str	r3, [r7, #36]	; 0x24
/home/marcelo/Documentos/GER/SDP/SDP-2016/KDS/SDP-2016/Debug/../Project_Settings/Startup_Code/startup.c:47

	const unsigned int size_int = sizeof(int);
    1ee8:	2304      	movs	r3, #4
    1eea:	623b      	str	r3, [r7, #32]
/home/marcelo/Documentos/GER/SDP/SDP-2016/KDS/SDP-2016/Debug/../Project_Settings/Startup_Code/startup.c:48
	const unsigned int mask_int = sizeof(int)-1;
    1eec:	2303      	movs	r3, #3
    1eee:	61fb      	str	r3, [r7, #28]
/home/marcelo/Documentos/GER/SDP/SDP-2016/KDS/SDP-2016/Debug/../Project_Settings/Startup_Code/startup.c:50

	const unsigned int size_short = sizeof(short);
    1ef0:	2302      	movs	r3, #2
    1ef2:	61bb      	str	r3, [r7, #24]
/home/marcelo/Documentos/GER/SDP/SDP-2016/KDS/SDP-2016/Debug/../Project_Settings/Startup_Code/startup.c:51
	const unsigned int mask_short = sizeof(short)-1;
    1ef4:	2301      	movs	r3, #1
    1ef6:	617b      	str	r3, [r7, #20]
/home/marcelo/Documentos/GER/SDP/SDP-2016/KDS/SDP-2016/Debug/../Project_Settings/Startup_Code/startup.c:53

	const unsigned int size_char = sizeof(char);
    1ef8:	2301      	movs	r3, #1
    1efa:	613b      	str	r3, [r7, #16]
/home/marcelo/Documentos/GER/SDP/SDP-2016/KDS/SDP-2016/Debug/../Project_Settings/Startup_Code/startup.c:55

	if( dst == src || size == 0)
    1efc:	68fa      	ldr	r2, [r7, #12]
    1efe:	68bb      	ldr	r3, [r7, #8]
    1f00:	429a      	cmp	r2, r3
    1f02:	d002      	beq.n	1f0a <__copy_rom_section+0x32>
/home/marcelo/Documentos/GER/SDP/SDP-2016/KDS/SDP-2016/Debug/../Project_Settings/Startup_Code/startup.c:55 (discriminator 1)
    1f04:	687b      	ldr	r3, [r7, #4]
    1f06:	2b00      	cmp	r3, #0
    1f08:	d100      	bne.n	1f0c <__copy_rom_section+0x34>
/home/marcelo/Documentos/GER/SDP/SDP-2016/KDS/SDP-2016/Debug/../Project_Settings/Startup_Code/startup.c:57
	{
		return;
    1f0a:	e04d      	b.n	1fa8 <__copy_rom_section+0xd0>
/home/marcelo/Documentos/GER/SDP/SDP-2016/KDS/SDP-2016/Debug/../Project_Settings/Startup_Code/startup.c:61
	}


	while( len > 0)
    1f0c:	e049      	b.n	1fa2 <__copy_rom_section+0xca>
/home/marcelo/Documentos/GER/SDP/SDP-2016/KDS/SDP-2016/Debug/../Project_Settings/Startup_Code/startup.c:64
	{

		if( !(src & mask_int) && !(dst & mask_int) && len >= size_int)
    1f0e:	68bb      	ldr	r3, [r7, #8]
    1f10:	69fa      	ldr	r2, [r7, #28]
    1f12:	4013      	ands	r3, r2
    1f14:	d118      	bne.n	1f48 <__copy_rom_section+0x70>
/home/marcelo/Documentos/GER/SDP/SDP-2016/KDS/SDP-2016/Debug/../Project_Settings/Startup_Code/startup.c:64 (discriminator 1)
    1f16:	68fb      	ldr	r3, [r7, #12]
    1f18:	69fa      	ldr	r2, [r7, #28]
    1f1a:	4013      	ands	r3, r2
    1f1c:	d114      	bne.n	1f48 <__copy_rom_section+0x70>
    1f1e:	6a7a      	ldr	r2, [r7, #36]	; 0x24
    1f20:	6a3b      	ldr	r3, [r7, #32]
    1f22:	429a      	cmp	r2, r3
    1f24:	d310      	bcc.n	1f48 <__copy_rom_section+0x70>
/home/marcelo/Documentos/GER/SDP/SDP-2016/KDS/SDP-2016/Debug/../Project_Settings/Startup_Code/startup.c:66
		{
			*((int *)dst)  = *((int*)src);
    1f26:	68fb      	ldr	r3, [r7, #12]
    1f28:	68ba      	ldr	r2, [r7, #8]
    1f2a:	6812      	ldr	r2, [r2, #0]
    1f2c:	601a      	str	r2, [r3, #0]
/home/marcelo/Documentos/GER/SDP/SDP-2016/KDS/SDP-2016/Debug/../Project_Settings/Startup_Code/startup.c:67
			dst += size_int;
    1f2e:	68fa      	ldr	r2, [r7, #12]
    1f30:	6a3b      	ldr	r3, [r7, #32]
    1f32:	18d3      	adds	r3, r2, r3
    1f34:	60fb      	str	r3, [r7, #12]
/home/marcelo/Documentos/GER/SDP/SDP-2016/KDS/SDP-2016/Debug/../Project_Settings/Startup_Code/startup.c:68
			src += size_int;
    1f36:	68ba      	ldr	r2, [r7, #8]
    1f38:	6a3b      	ldr	r3, [r7, #32]
    1f3a:	18d3      	adds	r3, r2, r3
    1f3c:	60bb      	str	r3, [r7, #8]
/home/marcelo/Documentos/GER/SDP/SDP-2016/KDS/SDP-2016/Debug/../Project_Settings/Startup_Code/startup.c:69
			len -= size_int;
    1f3e:	6a7a      	ldr	r2, [r7, #36]	; 0x24
    1f40:	6a3b      	ldr	r3, [r7, #32]
    1f42:	1ad3      	subs	r3, r2, r3
    1f44:	627b      	str	r3, [r7, #36]	; 0x24
    1f46:	e02c      	b.n	1fa2 <__copy_rom_section+0xca>
/home/marcelo/Documentos/GER/SDP/SDP-2016/KDS/SDP-2016/Debug/../Project_Settings/Startup_Code/startup.c:71
		}
		else if( !(src & mask_short) && !(dst & mask_short) && len >= size_short)
    1f48:	68bb      	ldr	r3, [r7, #8]
    1f4a:	697a      	ldr	r2, [r7, #20]
    1f4c:	4013      	ands	r3, r2
    1f4e:	d118      	bne.n	1f82 <__copy_rom_section+0xaa>
/home/marcelo/Documentos/GER/SDP/SDP-2016/KDS/SDP-2016/Debug/../Project_Settings/Startup_Code/startup.c:71 (discriminator 1)
    1f50:	68fb      	ldr	r3, [r7, #12]
    1f52:	697a      	ldr	r2, [r7, #20]
    1f54:	4013      	ands	r3, r2
    1f56:	d114      	bne.n	1f82 <__copy_rom_section+0xaa>
    1f58:	6a7a      	ldr	r2, [r7, #36]	; 0x24
    1f5a:	69bb      	ldr	r3, [r7, #24]
    1f5c:	429a      	cmp	r2, r3
    1f5e:	d310      	bcc.n	1f82 <__copy_rom_section+0xaa>
/home/marcelo/Documentos/GER/SDP/SDP-2016/KDS/SDP-2016/Debug/../Project_Settings/Startup_Code/startup.c:73
		{
			*((short *)dst)  = *((short*)src);
    1f60:	68fb      	ldr	r3, [r7, #12]
    1f62:	68ba      	ldr	r2, [r7, #8]
    1f64:	8812      	ldrh	r2, [r2, #0]
    1f66:	801a      	strh	r2, [r3, #0]
/home/marcelo/Documentos/GER/SDP/SDP-2016/KDS/SDP-2016/Debug/../Project_Settings/Startup_Code/startup.c:74
			dst += size_short;
    1f68:	68fa      	ldr	r2, [r7, #12]
    1f6a:	69bb      	ldr	r3, [r7, #24]
    1f6c:	18d3      	adds	r3, r2, r3
    1f6e:	60fb      	str	r3, [r7, #12]
/home/marcelo/Documentos/GER/SDP/SDP-2016/KDS/SDP-2016/Debug/../Project_Settings/Startup_Code/startup.c:75
			src += size_short;
    1f70:	68ba      	ldr	r2, [r7, #8]
    1f72:	69bb      	ldr	r3, [r7, #24]
    1f74:	18d3      	adds	r3, r2, r3
    1f76:	60bb      	str	r3, [r7, #8]
/home/marcelo/Documentos/GER/SDP/SDP-2016/KDS/SDP-2016/Debug/../Project_Settings/Startup_Code/startup.c:76
			len -= size_short;
    1f78:	6a7a      	ldr	r2, [r7, #36]	; 0x24
    1f7a:	69bb      	ldr	r3, [r7, #24]
    1f7c:	1ad3      	subs	r3, r2, r3
    1f7e:	627b      	str	r3, [r7, #36]	; 0x24
    1f80:	e00f      	b.n	1fa2 <__copy_rom_section+0xca>
/home/marcelo/Documentos/GER/SDP/SDP-2016/KDS/SDP-2016/Debug/../Project_Settings/Startup_Code/startup.c:80
		}
		else
		{
			*((char *)dst)  = *((char*)src);
    1f82:	68fb      	ldr	r3, [r7, #12]
    1f84:	68ba      	ldr	r2, [r7, #8]
    1f86:	7812      	ldrb	r2, [r2, #0]
    1f88:	701a      	strb	r2, [r3, #0]
/home/marcelo/Documentos/GER/SDP/SDP-2016/KDS/SDP-2016/Debug/../Project_Settings/Startup_Code/startup.c:81
			dst += size_char;
    1f8a:	68fa      	ldr	r2, [r7, #12]
    1f8c:	693b      	ldr	r3, [r7, #16]
    1f8e:	18d3      	adds	r3, r2, r3
    1f90:	60fb      	str	r3, [r7, #12]
/home/marcelo/Documentos/GER/SDP/SDP-2016/KDS/SDP-2016/Debug/../Project_Settings/Startup_Code/startup.c:82
			src += size_char;
    1f92:	68ba      	ldr	r2, [r7, #8]
    1f94:	693b      	ldr	r3, [r7, #16]
    1f96:	18d3      	adds	r3, r2, r3
    1f98:	60bb      	str	r3, [r7, #8]
/home/marcelo/Documentos/GER/SDP/SDP-2016/KDS/SDP-2016/Debug/../Project_Settings/Startup_Code/startup.c:83
			len -= size_char;
    1f9a:	6a7a      	ldr	r2, [r7, #36]	; 0x24
    1f9c:	693b      	ldr	r3, [r7, #16]
    1f9e:	1ad3      	subs	r3, r2, r3
    1fa0:	627b      	str	r3, [r7, #36]	; 0x24
/home/marcelo/Documentos/GER/SDP/SDP-2016/KDS/SDP-2016/Debug/../Project_Settings/Startup_Code/startup.c:61 (discriminator 1)
	{
		return;
	}


	while( len > 0)
    1fa2:	6a7b      	ldr	r3, [r7, #36]	; 0x24
    1fa4:	2b00      	cmp	r3, #0
    1fa6:	d1b2      	bne.n	1f0e <__copy_rom_section+0x36>
/home/marcelo/Documentos/GER/SDP/SDP-2016/KDS/SDP-2016/Debug/../Project_Settings/Startup_Code/startup.c:86
			dst += size_char;
			src += size_char;
			len -= size_char;
		}
	}
}
    1fa8:	46bd      	mov	sp, r7
    1faa:	b00a      	add	sp, #40	; 0x28
    1fac:	bd80      	pop	{r7, pc}
    1fae:	46c0      	nop			; (mov r8, r8)

00001fb0 <__copy_rom_sections_to_ram>:
__copy_rom_sections_to_ram():
/home/marcelo/Documentos/GER/SDP/SDP-2016/KDS/SDP-2016/Debug/../Project_Settings/Startup_Code/startup.c:98
 *  It is a table of RomInfo
 *	structures.  The final entry in the table has all-zero
 *	fields.
 */
void __copy_rom_sections_to_ram(void)
{
    1fb0:	b590      	push	{r4, r7, lr}
    1fb2:	b083      	sub	sp, #12
    1fb4:	af00      	add	r7, sp, #0
/home/marcelo/Documentos/GER/SDP/SDP-2016/KDS/SDP-2016/Debug/../Project_Settings/Startup_Code/startup.c:102

	int				index;

	if (__S_romp == 0L) return;
    1fb6:	4b23      	ldr	r3, [pc, #140]	; (2044 <__copy_rom_sections_to_ram+0x94>)
    1fb8:	2b00      	cmp	r3, #0
    1fba:	d100      	bne.n	1fbe <__copy_rom_sections_to_ram+0xe>
/home/marcelo/Documentos/GER/SDP/SDP-2016/KDS/SDP-2016/Debug/../Project_Settings/Startup_Code/startup.c:102 (discriminator 1)
    1fbc:	e03e      	b.n	203c <__copy_rom_sections_to_ram+0x8c>
/home/marcelo/Documentos/GER/SDP/SDP-2016/KDS/SDP-2016/Debug/../Project_Settings/Startup_Code/startup.c:107

	/*
	 *	Go through the entire table, copying sections from ROM to RAM.
	 */
	for (index = 0;
    1fbe:	2300      	movs	r3, #0
    1fc0:	607b      	str	r3, [r7, #4]
    1fc2:	e01d      	b.n	2000 <__copy_rom_sections_to_ram+0x50>
/home/marcelo/Documentos/GER/SDP/SDP-2016/KDS/SDP-2016/Debug/../Project_Settings/Startup_Code/startup.c:113
		 __S_romp[index].Source != 0 ||
		 __S_romp[index].Target != 0 ||
		 __S_romp[index].Size != 0;
		 ++index)
	{
		__copy_rom_section( __S_romp[index].Target,
    1fc4:	491f      	ldr	r1, [pc, #124]	; (2044 <__copy_rom_sections_to_ram+0x94>)
    1fc6:	687a      	ldr	r2, [r7, #4]
    1fc8:	1c13      	adds	r3, r2, #0
    1fca:	005b      	lsls	r3, r3, #1
    1fcc:	189b      	adds	r3, r3, r2
    1fce:	009b      	lsls	r3, r3, #2
    1fd0:	18cb      	adds	r3, r1, r3
    1fd2:	6858      	ldr	r0, [r3, #4]
    1fd4:	491b      	ldr	r1, [pc, #108]	; (2044 <__copy_rom_sections_to_ram+0x94>)
    1fd6:	687a      	ldr	r2, [r7, #4]
    1fd8:	1c13      	adds	r3, r2, #0
    1fda:	005b      	lsls	r3, r3, #1
    1fdc:	189b      	adds	r3, r3, r2
    1fde:	009b      	lsls	r3, r3, #2
    1fe0:	5859      	ldr	r1, [r3, r1]
    1fe2:	4c18      	ldr	r4, [pc, #96]	; (2044 <__copy_rom_sections_to_ram+0x94>)
    1fe4:	687a      	ldr	r2, [r7, #4]
    1fe6:	1c13      	adds	r3, r2, #0
    1fe8:	005b      	lsls	r3, r3, #1
    1fea:	189b      	adds	r3, r3, r2
    1fec:	009b      	lsls	r3, r3, #2
    1fee:	18e3      	adds	r3, r4, r3
    1ff0:	3308      	adds	r3, #8
    1ff2:	681b      	ldr	r3, [r3, #0]
    1ff4:	1c1a      	adds	r2, r3, #0
    1ff6:	f7ff ff6f 	bl	1ed8 <__copy_rom_section>
/home/marcelo/Documentos/GER/SDP/SDP-2016/KDS/SDP-2016/Debug/../Project_Settings/Startup_Code/startup.c:111
	 */
	for (index = 0;
		 __S_romp[index].Source != 0 ||
		 __S_romp[index].Target != 0 ||
		 __S_romp[index].Size != 0;
		 ++index)
    1ffa:	687b      	ldr	r3, [r7, #4]
    1ffc:	3301      	adds	r3, #1
    1ffe:	607b      	str	r3, [r7, #4]
/home/marcelo/Documentos/GER/SDP/SDP-2016/KDS/SDP-2016/Debug/../Project_Settings/Startup_Code/startup.c:108 (discriminator 1)

	/*
	 *	Go through the entire table, copying sections from ROM to RAM.
	 */
	for (index = 0;
		 __S_romp[index].Source != 0 ||
    2000:	4910      	ldr	r1, [pc, #64]	; (2044 <__copy_rom_sections_to_ram+0x94>)
    2002:	687a      	ldr	r2, [r7, #4]
    2004:	1c13      	adds	r3, r2, #0
    2006:	005b      	lsls	r3, r3, #1
    2008:	189b      	adds	r3, r3, r2
    200a:	009b      	lsls	r3, r3, #2
    200c:	585b      	ldr	r3, [r3, r1]
/home/marcelo/Documentos/GER/SDP/SDP-2016/KDS/SDP-2016/Debug/../Project_Settings/Startup_Code/startup.c:107 (discriminator 1)
	if (__S_romp == 0L) return;

	/*
	 *	Go through the entire table, copying sections from ROM to RAM.
	 */
	for (index = 0;
    200e:	2b00      	cmp	r3, #0
    2010:	d1d8      	bne.n	1fc4 <__copy_rom_sections_to_ram+0x14>
/home/marcelo/Documentos/GER/SDP/SDP-2016/KDS/SDP-2016/Debug/../Project_Settings/Startup_Code/startup.c:109
		 __S_romp[index].Source != 0 ||
		 __S_romp[index].Target != 0 ||
    2012:	490c      	ldr	r1, [pc, #48]	; (2044 <__copy_rom_sections_to_ram+0x94>)
    2014:	687a      	ldr	r2, [r7, #4]
    2016:	1c13      	adds	r3, r2, #0
    2018:	005b      	lsls	r3, r3, #1
    201a:	189b      	adds	r3, r3, r2
    201c:	009b      	lsls	r3, r3, #2
    201e:	18cb      	adds	r3, r1, r3
    2020:	685b      	ldr	r3, [r3, #4]
/home/marcelo/Documentos/GER/SDP/SDP-2016/KDS/SDP-2016/Debug/../Project_Settings/Startup_Code/startup.c:108

	/*
	 *	Go through the entire table, copying sections from ROM to RAM.
	 */
	for (index = 0;
		 __S_romp[index].Source != 0 ||
    2022:	2b00      	cmp	r3, #0
    2024:	d1ce      	bne.n	1fc4 <__copy_rom_sections_to_ram+0x14>
/home/marcelo/Documentos/GER/SDP/SDP-2016/KDS/SDP-2016/Debug/../Project_Settings/Startup_Code/startup.c:110
		 __S_romp[index].Target != 0 ||
		 __S_romp[index].Size != 0;
    2026:	4907      	ldr	r1, [pc, #28]	; (2044 <__copy_rom_sections_to_ram+0x94>)
    2028:	687a      	ldr	r2, [r7, #4]
    202a:	1c13      	adds	r3, r2, #0
    202c:	005b      	lsls	r3, r3, #1
    202e:	189b      	adds	r3, r3, r2
    2030:	009b      	lsls	r3, r3, #2
    2032:	18cb      	adds	r3, r1, r3
    2034:	3308      	adds	r3, #8
    2036:	681b      	ldr	r3, [r3, #0]
/home/marcelo/Documentos/GER/SDP/SDP-2016/KDS/SDP-2016/Debug/../Project_Settings/Startup_Code/startup.c:109
	/*
	 *	Go through the entire table, copying sections from ROM to RAM.
	 */
	for (index = 0;
		 __S_romp[index].Source != 0 ||
		 __S_romp[index].Target != 0 ||
    2038:	2b00      	cmp	r3, #0
    203a:	d1c3      	bne.n	1fc4 <__copy_rom_sections_to_ram+0x14>
/home/marcelo/Documentos/GER/SDP/SDP-2016/KDS/SDP-2016/Debug/../Project_Settings/Startup_Code/startup.c:118
		__copy_rom_section( __S_romp[index].Target,
							__S_romp[index].Source,
							__S_romp[index].Size );

	}
}
    203c:	46bd      	mov	sp, r7
    203e:	b003      	add	sp, #12
    2040:	bd90      	pop	{r4, r7, pc}
    2042:	46c0      	nop			; (mov r8, r8)
    2044:	00003a84 	.word	0x00003a84

00002048 <__init_registers>:
__init_registers():
/home/marcelo/Documentos/GER/SDP/SDP-2016/KDS/SDP-2016/Debug/../Project_Settings/Startup_Code/startup.c:168
  }
}
#endif

void __attribute__ ((weak)) __init_registers(void)
{
    2048:	b580      	push	{r7, lr}
    204a:	af00      	add	r7, sp, #0
/home/marcelo/Documentos/GER/SDP/SDP-2016/KDS/SDP-2016/Debug/../Project_Settings/Startup_Code/startup.c:174
  #if defined(SCB_CPACR)
  /* Initialize FPU */
  SCB_CPACR |= SCB_CPACR_CP10(3U) | SCB_CPACR_CP11(3U); 
  #endif

}
    204c:	46bd      	mov	sp, r7
    204e:	bd80      	pop	{r7, pc}

00002050 <__init_user>:
__init_user():
/home/marcelo/Documentos/GER/SDP/SDP-2016/KDS/SDP-2016/Debug/../Project_Settings/Startup_Code/startup.c:182
{

}

void __attribute__ ((weak)) __init_user(void)
{
    2050:	b580      	push	{r7, lr}
    2052:	af00      	add	r7, sp, #0
/home/marcelo/Documentos/GER/SDP/SDP-2016/KDS/SDP-2016/Debug/../Project_Settings/Startup_Code/startup.c:184

}
    2054:	46bd      	mov	sp, r7
    2056:	bd80      	pop	{r7, pc}

00002058 <__thumb_startup>:
__thumb_startup():
/home/marcelo/Documentos/GER/SDP/SDP-2016/KDS/SDP-2016/Debug/../Project_Settings/Startup_Code/startup.c:197
	__thumb_startup();
}

__attribute__((naked)) void __thumb_startup(void)
{
int addr = (int)__SP_INIT;
    2058:	4c0a      	ldr	r4, [pc, #40]	; (2084 <skip_sp+0x18>)
/home/marcelo/Documentos/GER/SDP/SDP-2016/KDS/SDP-2016/Debug/../Project_Settings/Startup_Code/startup.c:202

    /* setup the stack before we attempt anything else
       skip stack setup if __SP_INIT is 0
       assume sp is already setup. */
    __asm (
    205a:	1c20      	adds	r0, r4, #0
    205c:	2800      	cmp	r0, #0
    205e:	d005      	beq.n	206c <skip_sp>
    2060:	4685      	mov	sp, r0
    2062:	b081      	sub	sp, #4
    2064:	2000      	movs	r0, #0
    2066:	43c0      	mvns	r0, r0
    2068:	9000      	str	r0, [sp, #0]
    206a:	b001      	add	sp, #4

0000206c <skip_sp>:
/home/marcelo/Documentos/GER/SDP/SDP-2016/KDS/SDP-2016/Debug/../Project_Settings/Startup_Code/startup.c:216
    "add  sp,#4\n\t"
    "skip_sp:\n\t"
    ::"r"(addr));

    /* Setup registers */
    __init_registers();
    206c:	f7ff ffec 	bl	2048 <__init_registers>
/home/marcelo/Documentos/GER/SDP/SDP-2016/KDS/SDP-2016/Debug/../Project_Settings/Startup_Code/startup.c:219
    
    /* setup hardware */
    __init_hardware();
    2070:	f000 fe0c 	bl	2c8c <__init_hardware>
/home/marcelo/Documentos/GER/SDP/SDP-2016/KDS/SDP-2016/Debug/../Project_Settings/Startup_Code/startup.c:222
    
    /* SUPPORT_ROM_TO_RAM */
    __copy_rom_sections_to_ram();
    2074:	f7ff ff9c 	bl	1fb0 <__copy_rom_sections_to_ram>
/home/marcelo/Documentos/GER/SDP/SDP-2016/KDS/SDP-2016/Debug/../Project_Settings/Startup_Code/startup.c:225
    
    /* initializations before main, user specific */
    __init_user();
    2078:	f7ff ffea 	bl	2050 <__init_user>
/home/marcelo/Documentos/GER/SDP/SDP-2016/KDS/SDP-2016/Debug/../Project_Settings/Startup_Code/startup.c:228

#ifndef __ATOLLIC__
    _start();
    207c:	f7fe f9f8 	bl	470 <_mainCRTStartup>
/home/marcelo/Documentos/GER/SDP/SDP-2016/KDS/SDP-2016/Debug/../Project_Settings/Startup_Code/startup.c:238 (discriminator 1)
    __libc_init_array();
    main();
#endif

    /*	should never get here */
    while (1);
    2080:	e7fe      	b.n	2080 <skip_sp+0x14>
    2082:	46c0      	nop			; (mov r8, r8)
    2084:	20003000 	.word	0x20003000

00002088 <ClrSumV>:
ClrSumV():
/home/marcelo/Documentos/GER/SDP/SDP-2016/KDS/SDP-2016/Debug/../Generated_Code/AD_Converter.c:133
**         number of last conversions.
**         This method is internal. It is used by Processor Expert only.
** ===================================================================
*/
static void ClrSumV(void)
{
    2088:	b580      	push	{r7, lr}
    208a:	af00      	add	r7, sp, #0
/home/marcelo/Documentos/GER/SDP/SDP-2016/KDS/SDP-2016/Debug/../Generated_Code/AD_Converter.c:134
  AD_Converter_OutV[0] = 0U;           /* Set variable for storing measured values to 0 */
    208c:	4b03      	ldr	r3, [pc, #12]	; (209c <ClrSumV+0x14>)
    208e:	2200      	movs	r2, #0
    2090:	701a      	strb	r2, [r3, #0]
/home/marcelo/Documentos/GER/SDP/SDP-2016/KDS/SDP-2016/Debug/../Generated_Code/AD_Converter.c:135
  AD_Converter_OutV[1] = 0U;           /* Set variable for storing measured values to 0 */
    2092:	4b02      	ldr	r3, [pc, #8]	; (209c <ClrSumV+0x14>)
    2094:	2200      	movs	r2, #0
    2096:	705a      	strb	r2, [r3, #1]
/home/marcelo/Documentos/GER/SDP/SDP-2016/KDS/SDP-2016/Debug/../Generated_Code/AD_Converter.c:136
}
    2098:	46bd      	mov	sp, r7
    209a:	bd80      	pop	{r7, pc}
    209c:	1ffff2d0 	.word	0x1ffff2d0

000020a0 <AD_Converter_HWEnDi>:
AD_Converter_HWEnDi():
/home/marcelo/Documentos/GER/SDP/SDP-2016/KDS/SDP-2016/Debug/../Generated_Code/AD_Converter.c:150
**         Enable and Disable methods and several internal methods.
**         This method is internal. It is used by Processor Expert only.
** ===================================================================
*/
void AD_Converter_HWEnDi(void)
{
    20a0:	b580      	push	{r7, lr}
    20a2:	af00      	add	r7, sp, #0
/home/marcelo/Documentos/GER/SDP/SDP-2016/KDS/SDP-2016/Debug/../Generated_Code/AD_Converter.c:151
  if (ModeFlg) {                       /* Start or stop measurement? */
    20a4:	4b1e      	ldr	r3, [pc, #120]	; (2120 <AD_Converter_HWEnDi+0x80>)
    20a6:	781b      	ldrb	r3, [r3, #0]
    20a8:	b2db      	uxtb	r3, r3
    20aa:	2b00      	cmp	r3, #0
    20ac:	d036      	beq.n	211c <AD_Converter_HWEnDi+0x7c>
/home/marcelo/Documentos/GER/SDP/SDP-2016/KDS/SDP-2016/Debug/../Generated_Code/AD_Converter.c:152
    if (ModeFlg != SINGLE) {
    20ae:	4b1c      	ldr	r3, [pc, #112]	; (2120 <AD_Converter_HWEnDi+0x80>)
    20b0:	781b      	ldrb	r3, [r3, #0]
    20b2:	b2db      	uxtb	r3, r3
    20b4:	2b03      	cmp	r3, #3
    20b6:	d00b      	beq.n	20d0 <AD_Converter_HWEnDi+0x30>
/home/marcelo/Documentos/GER/SDP/SDP-2016/KDS/SDP-2016/Debug/../Generated_Code/AD_Converter.c:153
      OutFlg = 0U;                     /* Output values aren't available */
    20b8:	4b1a      	ldr	r3, [pc, #104]	; (2124 <AD_Converter_HWEnDi+0x84>)
    20ba:	2200      	movs	r2, #0
    20bc:	701a      	strb	r2, [r3, #0]
/home/marcelo/Documentos/GER/SDP/SDP-2016/KDS/SDP-2016/Debug/../Generated_Code/AD_Converter.c:154
      SumChan = 0U;                    /* Set the counter of measured channels to 0 */
    20be:	4b1a      	ldr	r3, [pc, #104]	; (2128 <AD_Converter_HWEnDi+0x88>)
    20c0:	2200      	movs	r2, #0
    20c2:	701a      	strb	r2, [r3, #0]
/home/marcelo/Documentos/GER/SDP/SDP-2016/KDS/SDP-2016/Debug/../Generated_Code/AD_Converter.c:155
      ClrSumV();                       /* Clear measured values */
    20c4:	f7ff ffe0 	bl	2088 <ClrSumV>
/home/marcelo/Documentos/GER/SDP/SDP-2016/KDS/SDP-2016/Debug/../Generated_Code/AD_Converter.c:156
      SampleGroup[0].ChannelIdx = 0U;
    20c8:	4b18      	ldr	r3, [pc, #96]	; (212c <AD_Converter_HWEnDi+0x8c>)
    20ca:	2200      	movs	r2, #0
    20cc:	701a      	strb	r2, [r3, #0]
    20ce:	e018      	b.n	2102 <AD_Converter_HWEnDi+0x62>
/home/marcelo/Documentos/GER/SDP/SDP-2016/KDS/SDP-2016/Debug/../Generated_Code/AD_Converter.c:159
    }
    else {
      OutFlg &= (byte)(~(byte)Table[SumChan]); /* Output value isn't available */
    20d0:	4b15      	ldr	r3, [pc, #84]	; (2128 <AD_Converter_HWEnDi+0x88>)
    20d2:	781b      	ldrb	r3, [r3, #0]
    20d4:	b2db      	uxtb	r3, r3
    20d6:	4a16      	ldr	r2, [pc, #88]	; (2130 <AD_Converter_HWEnDi+0x90>)
    20d8:	5cd3      	ldrb	r3, [r2, r3]
    20da:	43db      	mvns	r3, r3
    20dc:	b2db      	uxtb	r3, r3
    20de:	4a11      	ldr	r2, [pc, #68]	; (2124 <AD_Converter_HWEnDi+0x84>)
    20e0:	7812      	ldrb	r2, [r2, #0]
    20e2:	b2d2      	uxtb	r2, r2
    20e4:	4013      	ands	r3, r2
    20e6:	b2da      	uxtb	r2, r3
    20e8:	4b0e      	ldr	r3, [pc, #56]	; (2124 <AD_Converter_HWEnDi+0x84>)
    20ea:	701a      	strb	r2, [r3, #0]
/home/marcelo/Documentos/GER/SDP/SDP-2016/KDS/SDP-2016/Debug/../Generated_Code/AD_Converter.c:160
      AD_Converter_OutV[SumChan] = 0U; /* Set variable for storing measured values to 0 */
    20ec:	4b0e      	ldr	r3, [pc, #56]	; (2128 <AD_Converter_HWEnDi+0x88>)
    20ee:	781b      	ldrb	r3, [r3, #0]
    20f0:	b2db      	uxtb	r3, r3
    20f2:	4a10      	ldr	r2, [pc, #64]	; (2134 <AD_Converter_HWEnDi+0x94>)
    20f4:	2100      	movs	r1, #0
    20f6:	54d1      	strb	r1, [r2, r3]
/home/marcelo/Documentos/GER/SDP/SDP-2016/KDS/SDP-2016/Debug/../Generated_Code/AD_Converter.c:161
      SampleGroup[0].ChannelIdx = SumChan;
    20f8:	4b0b      	ldr	r3, [pc, #44]	; (2128 <AD_Converter_HWEnDi+0x88>)
    20fa:	781b      	ldrb	r3, [r3, #0]
    20fc:	b2da      	uxtb	r2, r3
    20fe:	4b0b      	ldr	r3, [pc, #44]	; (212c <AD_Converter_HWEnDi+0x8c>)
    2100:	701a      	strb	r2, [r3, #0]
/home/marcelo/Documentos/GER/SDP/SDP-2016/KDS/SDP-2016/Debug/../Generated_Code/AD_Converter.c:163
    }
    (void)AdcLdd1_CreateSampleGroup(AdcLdd1_DeviceDataPtr, (LDD_ADC_TSample *)SampleGroup, 1U); /* Configure sample group */
    2102:	4b0d      	ldr	r3, [pc, #52]	; (2138 <AD_Converter_HWEnDi+0x98>)
    2104:	681a      	ldr	r2, [r3, #0]
    2106:	4b09      	ldr	r3, [pc, #36]	; (212c <AD_Converter_HWEnDi+0x8c>)
    2108:	1c10      	adds	r0, r2, #0
    210a:	1c19      	adds	r1, r3, #0
    210c:	2201      	movs	r2, #1
    210e:	f000 f997 	bl	2440 <AdcLdd1_CreateSampleGroup>
/home/marcelo/Documentos/GER/SDP/SDP-2016/KDS/SDP-2016/Debug/../Generated_Code/AD_Converter.c:164
    (void)AdcLdd1_StartSingleMeasurement(AdcLdd1_DeviceDataPtr);
    2112:	4b09      	ldr	r3, [pc, #36]	; (2138 <AD_Converter_HWEnDi+0x98>)
    2114:	681b      	ldr	r3, [r3, #0]
    2116:	1c18      	adds	r0, r3, #0
    2118:	f000 f970 	bl	23fc <AdcLdd1_StartSingleMeasurement>
/home/marcelo/Documentos/GER/SDP/SDP-2016/KDS/SDP-2016/Debug/../Generated_Code/AD_Converter.c:166
  }
}
    211c:	46bd      	mov	sp, r7
    211e:	bd80      	pop	{r7, pc}
    2120:	1ffff085 	.word	0x1ffff085
    2124:	1ffff08c 	.word	0x1ffff08c
    2128:	1ffff084 	.word	0x1ffff084
    212c:	1ffff088 	.word	0x1ffff088
    2130:	000039ec 	.word	0x000039ec
    2134:	1ffff2d0 	.word	0x1ffff2d0
    2138:	1ffff2cc 	.word	0x1ffff2cc

0000213c <AD_Converter_MeasureChan>:
AD_Converter_MeasureChan():
/home/marcelo/Documentos/GER/SDP/SDP-2016/KDS/SDP-2016/Debug/../Generated_Code/AD_Converter.c:252
byte AD_Converter_MeasureChan(bool WaitForResult, byte Channel)
was optimised based on the current component setting. An appropriate macro has been defined 
in the AD1.h to maintain API compatibility.
*/
byte AD_Converter_MeasureChan(bool WaitForResult,byte Channel)
{
    213c:	b580      	push	{r7, lr}
    213e:	b082      	sub	sp, #8
    2140:	af00      	add	r7, sp, #0
    2142:	1c0a      	adds	r2, r1, #0
    2144:	1dfb      	adds	r3, r7, #7
    2146:	1c01      	adds	r1, r0, #0
    2148:	7019      	strb	r1, [r3, #0]
    214a:	1dbb      	adds	r3, r7, #6
    214c:	701a      	strb	r2, [r3, #0]
/home/marcelo/Documentos/GER/SDP/SDP-2016/KDS/SDP-2016/Debug/../Generated_Code/AD_Converter.c:253
  if (Channel >= 2U) {                 /* Is channel number greater than or equal to 2 */
    214e:	1dbb      	adds	r3, r7, #6
    2150:	781b      	ldrb	r3, [r3, #0]
    2152:	2b01      	cmp	r3, #1
    2154:	d901      	bls.n	215a <AD_Converter_MeasureChan+0x1e>
/home/marcelo/Documentos/GER/SDP/SDP-2016/KDS/SDP-2016/Debug/../Generated_Code/AD_Converter.c:254
    return ERR_RANGE;                  /* If yes then error */
    2156:	2302      	movs	r3, #2
    2158:	e01a      	b.n	2190 <AD_Converter_MeasureChan+0x54>
/home/marcelo/Documentos/GER/SDP/SDP-2016/KDS/SDP-2016/Debug/../Generated_Code/AD_Converter.c:256
  }
  if (ModeFlg != STOP) {               /* Is the device in different mode than "stop"? */
    215a:	4b0f      	ldr	r3, [pc, #60]	; (2198 <AD_Converter_MeasureChan+0x5c>)
    215c:	781b      	ldrb	r3, [r3, #0]
    215e:	b2db      	uxtb	r3, r3
    2160:	2b00      	cmp	r3, #0
    2162:	d001      	beq.n	2168 <AD_Converter_MeasureChan+0x2c>
/home/marcelo/Documentos/GER/SDP/SDP-2016/KDS/SDP-2016/Debug/../Generated_Code/AD_Converter.c:257
    return ERR_BUSY;                   /* If yes then error */
    2164:	2308      	movs	r3, #8
    2166:	e013      	b.n	2190 <AD_Converter_MeasureChan+0x54>
/home/marcelo/Documentos/GER/SDP/SDP-2016/KDS/SDP-2016/Debug/../Generated_Code/AD_Converter.c:259
  }
  ModeFlg = SINGLE;                    /* Set state of device to the measure mode */
    2168:	4b0b      	ldr	r3, [pc, #44]	; (2198 <AD_Converter_MeasureChan+0x5c>)
    216a:	2203      	movs	r2, #3
    216c:	701a      	strb	r2, [r3, #0]
/home/marcelo/Documentos/GER/SDP/SDP-2016/KDS/SDP-2016/Debug/../Generated_Code/AD_Converter.c:260
  SumChan = Channel;                   /* Set required channel */
    216e:	4b0b      	ldr	r3, [pc, #44]	; (219c <AD_Converter_MeasureChan+0x60>)
    2170:	1dba      	adds	r2, r7, #6
    2172:	7812      	ldrb	r2, [r2, #0]
    2174:	701a      	strb	r2, [r3, #0]
/home/marcelo/Documentos/GER/SDP/SDP-2016/KDS/SDP-2016/Debug/../Generated_Code/AD_Converter.c:261
  AD_Converter_HWEnDi();               /* Enable the device */
    2176:	f7ff ff93 	bl	20a0 <AD_Converter_HWEnDi>
/home/marcelo/Documentos/GER/SDP/SDP-2016/KDS/SDP-2016/Debug/../Generated_Code/AD_Converter.c:262
  if (WaitForResult) {                 /* Is WaitForResult TRUE? */
    217a:	1dfb      	adds	r3, r7, #7
    217c:	781b      	ldrb	r3, [r3, #0]
    217e:	2b00      	cmp	r3, #0
    2180:	d005      	beq.n	218e <AD_Converter_MeasureChan+0x52>
/home/marcelo/Documentos/GER/SDP/SDP-2016/KDS/SDP-2016/Debug/../Generated_Code/AD_Converter.c:263
    while (ModeFlg == SINGLE) {}       /* If yes then wait for end of measurement */
    2182:	46c0      	nop			; (mov r8, r8)
/home/marcelo/Documentos/GER/SDP/SDP-2016/KDS/SDP-2016/Debug/../Generated_Code/AD_Converter.c:263 (discriminator 1)
    2184:	4b04      	ldr	r3, [pc, #16]	; (2198 <AD_Converter_MeasureChan+0x5c>)
    2186:	781b      	ldrb	r3, [r3, #0]
    2188:	b2db      	uxtb	r3, r3
    218a:	2b03      	cmp	r3, #3
    218c:	d0fa      	beq.n	2184 <AD_Converter_MeasureChan+0x48>
/home/marcelo/Documentos/GER/SDP/SDP-2016/KDS/SDP-2016/Debug/../Generated_Code/AD_Converter.c:265
  }
  return ERR_OK;                       /* OK */
    218e:	2300      	movs	r3, #0
/home/marcelo/Documentos/GER/SDP/SDP-2016/KDS/SDP-2016/Debug/../Generated_Code/AD_Converter.c:266
}
    2190:	1c18      	adds	r0, r3, #0
    2192:	46bd      	mov	sp, r7
    2194:	b002      	add	sp, #8
    2196:	bd80      	pop	{r7, pc}
    2198:	1ffff085 	.word	0x1ffff085
    219c:	1ffff084 	.word	0x1ffff084

000021a0 <AD_Converter_GetChanValue>:
AD_Converter_GetChanValue():
/home/marcelo/Documentos/GER/SDP/SDP-2016/KDS/SDP-2016/Debug/../Generated_Code/AD_Converter.c:352
byte AD_Converter_GetChanValue(byte Channel, void* Value)
was optimised based on the current component setting. An appropriate macro has been defined 
in the AD1.h to maintain API compatibility.
*/
byte AD_Converter_GetChanValue(byte Channel, void* Value)
{
    21a0:	b580      	push	{r7, lr}
    21a2:	b082      	sub	sp, #8
    21a4:	af00      	add	r7, sp, #0
    21a6:	1c02      	adds	r2, r0, #0
    21a8:	6039      	str	r1, [r7, #0]
    21aa:	1dfb      	adds	r3, r7, #7
    21ac:	701a      	strb	r2, [r3, #0]
/home/marcelo/Documentos/GER/SDP/SDP-2016/KDS/SDP-2016/Debug/../Generated_Code/AD_Converter.c:353
  if (Channel >= 2U) {                 /* Is channel number greater than or equal to 2 */
    21ae:	1dfb      	adds	r3, r7, #7
    21b0:	781b      	ldrb	r3, [r3, #0]
    21b2:	2b01      	cmp	r3, #1
    21b4:	d901      	bls.n	21ba <AD_Converter_GetChanValue+0x1a>
/home/marcelo/Documentos/GER/SDP/SDP-2016/KDS/SDP-2016/Debug/../Generated_Code/AD_Converter.c:354
    return ERR_RANGE;                  /* If yes then error */
    21b6:	2302      	movs	r3, #2
    21b8:	e014      	b.n	21e4 <AD_Converter_GetChanValue+0x44>
/home/marcelo/Documentos/GER/SDP/SDP-2016/KDS/SDP-2016/Debug/../Generated_Code/AD_Converter.c:356
  }
  if ((OutFlg & Table[Channel]) == 0U) { /* Is output flag set? */
    21ba:	1dfb      	adds	r3, r7, #7
    21bc:	781b      	ldrb	r3, [r3, #0]
    21be:	4a0b      	ldr	r2, [pc, #44]	; (21ec <AD_Converter_GetChanValue+0x4c>)
    21c0:	5cd3      	ldrb	r3, [r2, r3]
    21c2:	4a0b      	ldr	r2, [pc, #44]	; (21f0 <AD_Converter_GetChanValue+0x50>)
    21c4:	7812      	ldrb	r2, [r2, #0]
    21c6:	b2d2      	uxtb	r2, r2
    21c8:	4013      	ands	r3, r2
    21ca:	b2db      	uxtb	r3, r3
    21cc:	2b00      	cmp	r3, #0
    21ce:	d101      	bne.n	21d4 <AD_Converter_GetChanValue+0x34>
/home/marcelo/Documentos/GER/SDP/SDP-2016/KDS/SDP-2016/Debug/../Generated_Code/AD_Converter.c:357
    return ERR_NOTAVAIL;               /* If no then error */
    21d0:	2309      	movs	r3, #9
    21d2:	e007      	b.n	21e4 <AD_Converter_GetChanValue+0x44>
/home/marcelo/Documentos/GER/SDP/SDP-2016/KDS/SDP-2016/Debug/../Generated_Code/AD_Converter.c:360
  }
  /* Copy value from temporary buffer */
  *(AdcLdd1_TResultData *)Value = AD_Converter_OutV[Channel];
    21d4:	1dfb      	adds	r3, r7, #7
    21d6:	781b      	ldrb	r3, [r3, #0]
    21d8:	4a06      	ldr	r2, [pc, #24]	; (21f4 <AD_Converter_GetChanValue+0x54>)
    21da:	5cd3      	ldrb	r3, [r2, r3]
    21dc:	b2da      	uxtb	r2, r3
    21de:	683b      	ldr	r3, [r7, #0]
    21e0:	701a      	strb	r2, [r3, #0]
/home/marcelo/Documentos/GER/SDP/SDP-2016/KDS/SDP-2016/Debug/../Generated_Code/AD_Converter.c:361
  return ERR_OK;
    21e2:	2300      	movs	r3, #0
/home/marcelo/Documentos/GER/SDP/SDP-2016/KDS/SDP-2016/Debug/../Generated_Code/AD_Converter.c:362
}
    21e4:	1c18      	adds	r0, r3, #0
    21e6:	46bd      	mov	sp, r7
    21e8:	b002      	add	sp, #8
    21ea:	bd80      	pop	{r7, pc}
    21ec:	000039ec 	.word	0x000039ec
    21f0:	1ffff08c 	.word	0x1ffff08c
    21f4:	1ffff2d0 	.word	0x1ffff2d0

000021f8 <AdcLdd1_OnMeasurementComplete>:
AdcLdd1_OnMeasurementComplete():
/home/marcelo/Documentos/GER/SDP/SDP-2016/KDS/SDP-2016/Debug/../Generated_Code/AD_Converter.c:420
**         event(s).
**         This method is internal. It is used by Processor Expert only.
** ===================================================================
*/
void AdcLdd1_OnMeasurementComplete(LDD_TUserData *UserDataPtr)
{
    21f8:	b580      	push	{r7, lr}
    21fa:	b082      	sub	sp, #8
    21fc:	af00      	add	r7, sp, #0
    21fe:	6078      	str	r0, [r7, #4]
/home/marcelo/Documentos/GER/SDP/SDP-2016/KDS/SDP-2016/Debug/../Generated_Code/AD_Converter.c:422
  (void)UserDataPtr;                   /* Parameter is not used, suppress unused argument warning */
  if (ModeFlg == CALIBRATING) {        /* If the driver is in CALIBRATING mode */
    2200:	4b34      	ldr	r3, [pc, #208]	; (22d4 <AdcLdd1_OnMeasurementComplete+0xdc>)
    2202:	781b      	ldrb	r3, [r3, #0]
    2204:	b2db      	uxtb	r3, r3
    2206:	2b04      	cmp	r3, #4
    2208:	d108      	bne.n	221c <AdcLdd1_OnMeasurementComplete+0x24>
/home/marcelo/Documentos/GER/SDP/SDP-2016/KDS/SDP-2016/Debug/../Generated_Code/AD_Converter.c:423
    (void)AdcLdd1_GetCalibrationResultStatus(AdcLdd1_DeviceDataPtr);
    220a:	4b33      	ldr	r3, [pc, #204]	; (22d8 <AdcLdd1_OnMeasurementComplete+0xe0>)
    220c:	681b      	ldr	r3, [r3, #0]
    220e:	1c18      	adds	r0, r3, #0
    2210:	f000 f97c 	bl	250c <AdcLdd1_GetCalibrationResultStatus>
/home/marcelo/Documentos/GER/SDP/SDP-2016/KDS/SDP-2016/Debug/../Generated_Code/AD_Converter.c:424
    ModeFlg = STOP;                    /* Set the device to the stop mode */
    2214:	4b2f      	ldr	r3, [pc, #188]	; (22d4 <AdcLdd1_OnMeasurementComplete+0xdc>)
    2216:	2200      	movs	r2, #0
    2218:	701a      	strb	r2, [r3, #0]
/home/marcelo/Documentos/GER/SDP/SDP-2016/KDS/SDP-2016/Debug/../Generated_Code/AD_Converter.c:425
    return;                            /* Return from interrupt */
    221a:	e058      	b.n	22ce <AdcLdd1_OnMeasurementComplete+0xd6>
/home/marcelo/Documentos/GER/SDP/SDP-2016/KDS/SDP-2016/Debug/../Generated_Code/AD_Converter.c:427
  }
  if (ModeFlg != SINGLE) {
    221c:	4b2d      	ldr	r3, [pc, #180]	; (22d4 <AdcLdd1_OnMeasurementComplete+0xdc>)
    221e:	781b      	ldrb	r3, [r3, #0]
    2220:	b2db      	uxtb	r3, r3
    2222:	2b03      	cmp	r3, #3
    2224:	d036      	beq.n	2294 <AdcLdd1_OnMeasurementComplete+0x9c>
/home/marcelo/Documentos/GER/SDP/SDP-2016/KDS/SDP-2016/Debug/../Generated_Code/AD_Converter.c:428
    AdcLdd1_GetMeasuredValues(AdcLdd1_DeviceDataPtr, (LDD_TData *)&AD_Converter_OutV[SumChan]);
    2226:	4b2c      	ldr	r3, [pc, #176]	; (22d8 <AdcLdd1_OnMeasurementComplete+0xe0>)
    2228:	681a      	ldr	r2, [r3, #0]
    222a:	4b2c      	ldr	r3, [pc, #176]	; (22dc <AdcLdd1_OnMeasurementComplete+0xe4>)
    222c:	781b      	ldrb	r3, [r3, #0]
    222e:	b2db      	uxtb	r3, r3
    2230:	1c19      	adds	r1, r3, #0
    2232:	4b2b      	ldr	r3, [pc, #172]	; (22e0 <AdcLdd1_OnMeasurementComplete+0xe8>)
    2234:	18cb      	adds	r3, r1, r3
    2236:	1c10      	adds	r0, r2, #0
    2238:	1c19      	adds	r1, r3, #0
    223a:	f000 f937 	bl	24ac <AdcLdd1_GetMeasuredValues>
/home/marcelo/Documentos/GER/SDP/SDP-2016/KDS/SDP-2016/Debug/../Generated_Code/AD_Converter.c:429
    SumChan++;                         /* Increase counter of measured channels*/
    223e:	4b27      	ldr	r3, [pc, #156]	; (22dc <AdcLdd1_OnMeasurementComplete+0xe4>)
    2240:	781b      	ldrb	r3, [r3, #0]
    2242:	b2db      	uxtb	r3, r3
    2244:	3301      	adds	r3, #1
    2246:	b2da      	uxtb	r2, r3
    2248:	4b24      	ldr	r3, [pc, #144]	; (22dc <AdcLdd1_OnMeasurementComplete+0xe4>)
    224a:	701a      	strb	r2, [r3, #0]
/home/marcelo/Documentos/GER/SDP/SDP-2016/KDS/SDP-2016/Debug/../Generated_Code/AD_Converter.c:430
    if (SumChan == 2U) {               /* Is number of measured channels equal to the number of channels used in the component? */
    224c:	4b23      	ldr	r3, [pc, #140]	; (22dc <AdcLdd1_OnMeasurementComplete+0xe4>)
    224e:	781b      	ldrb	r3, [r3, #0]
    2250:	b2db      	uxtb	r3, r3
    2252:	2b02      	cmp	r3, #2
    2254:	d10b      	bne.n	226e <AdcLdd1_OnMeasurementComplete+0x76>
/home/marcelo/Documentos/GER/SDP/SDP-2016/KDS/SDP-2016/Debug/../Generated_Code/AD_Converter.c:431
      SumChan = 0U;                    /* If yes then set the counter of measured channels to 0 */
    2256:	4b21      	ldr	r3, [pc, #132]	; (22dc <AdcLdd1_OnMeasurementComplete+0xe4>)
    2258:	2200      	movs	r2, #0
    225a:	701a      	strb	r2, [r3, #0]
/home/marcelo/Documentos/GER/SDP/SDP-2016/KDS/SDP-2016/Debug/../Generated_Code/AD_Converter.c:432
      OutFlg = 0x03U;                  /* Measured values are available */
    225c:	4b21      	ldr	r3, [pc, #132]	; (22e4 <AdcLdd1_OnMeasurementComplete+0xec>)
    225e:	2203      	movs	r2, #3
    2260:	701a      	strb	r2, [r3, #0]
/home/marcelo/Documentos/GER/SDP/SDP-2016/KDS/SDP-2016/Debug/../Generated_Code/AD_Converter.c:433
      AD_Converter_OnEnd();            /* If yes then invoke user event */
    2262:	f7ff fd21 	bl	1ca8 <AD_Converter_OnEnd>
/home/marcelo/Documentos/GER/SDP/SDP-2016/KDS/SDP-2016/Debug/../Generated_Code/AD_Converter.c:434
      ModeFlg = STOP;                  /* Set the device to the stop mode */
    2266:	4b1b      	ldr	r3, [pc, #108]	; (22d4 <AdcLdd1_OnMeasurementComplete+0xdc>)
    2268:	2200      	movs	r2, #0
    226a:	701a      	strb	r2, [r3, #0]
/home/marcelo/Documentos/GER/SDP/SDP-2016/KDS/SDP-2016/Debug/../Generated_Code/AD_Converter.c:435
      return;                          /* Return from interrupt */
    226c:	e02f      	b.n	22ce <AdcLdd1_OnMeasurementComplete+0xd6>
/home/marcelo/Documentos/GER/SDP/SDP-2016/KDS/SDP-2016/Debug/../Generated_Code/AD_Converter.c:437
    }
    SampleGroup[0].ChannelIdx = SumChan; /* Start measurement of next channel */
    226e:	4b1b      	ldr	r3, [pc, #108]	; (22dc <AdcLdd1_OnMeasurementComplete+0xe4>)
    2270:	781b      	ldrb	r3, [r3, #0]
    2272:	b2da      	uxtb	r2, r3
    2274:	4b1c      	ldr	r3, [pc, #112]	; (22e8 <AdcLdd1_OnMeasurementComplete+0xf0>)
    2276:	701a      	strb	r2, [r3, #0]
/home/marcelo/Documentos/GER/SDP/SDP-2016/KDS/SDP-2016/Debug/../Generated_Code/AD_Converter.c:438
    (void)AdcLdd1_CreateSampleGroup(AdcLdd1_DeviceDataPtr, (LDD_ADC_TSample *)SampleGroup, 1U); /* Configure sample group */
    2278:	4b17      	ldr	r3, [pc, #92]	; (22d8 <AdcLdd1_OnMeasurementComplete+0xe0>)
    227a:	681a      	ldr	r2, [r3, #0]
    227c:	4b1a      	ldr	r3, [pc, #104]	; (22e8 <AdcLdd1_OnMeasurementComplete+0xf0>)
    227e:	1c10      	adds	r0, r2, #0
    2280:	1c19      	adds	r1, r3, #0
    2282:	2201      	movs	r2, #1
    2284:	f000 f8dc 	bl	2440 <AdcLdd1_CreateSampleGroup>
/home/marcelo/Documentos/GER/SDP/SDP-2016/KDS/SDP-2016/Debug/../Generated_Code/AD_Converter.c:439
    (void)AdcLdd1_StartSingleMeasurement(AdcLdd1_DeviceDataPtr);
    2288:	4b13      	ldr	r3, [pc, #76]	; (22d8 <AdcLdd1_OnMeasurementComplete+0xe0>)
    228a:	681b      	ldr	r3, [r3, #0]
    228c:	1c18      	adds	r0, r3, #0
    228e:	f000 f8b5 	bl	23fc <AdcLdd1_StartSingleMeasurement>
    2292:	e01c      	b.n	22ce <AdcLdd1_OnMeasurementComplete+0xd6>
/home/marcelo/Documentos/GER/SDP/SDP-2016/KDS/SDP-2016/Debug/../Generated_Code/AD_Converter.c:442
  }
  else {
    AdcLdd1_GetMeasuredValues(AdcLdd1_DeviceDataPtr, (LDD_TData *)&AD_Converter_OutV[SumChan]);
    2294:	4b10      	ldr	r3, [pc, #64]	; (22d8 <AdcLdd1_OnMeasurementComplete+0xe0>)
    2296:	681a      	ldr	r2, [r3, #0]
    2298:	4b10      	ldr	r3, [pc, #64]	; (22dc <AdcLdd1_OnMeasurementComplete+0xe4>)
    229a:	781b      	ldrb	r3, [r3, #0]
    229c:	b2db      	uxtb	r3, r3
    229e:	1c19      	adds	r1, r3, #0
    22a0:	4b0f      	ldr	r3, [pc, #60]	; (22e0 <AdcLdd1_OnMeasurementComplete+0xe8>)
    22a2:	18cb      	adds	r3, r1, r3
    22a4:	1c10      	adds	r0, r2, #0
    22a6:	1c19      	adds	r1, r3, #0
    22a8:	f000 f900 	bl	24ac <AdcLdd1_GetMeasuredValues>
/home/marcelo/Documentos/GER/SDP/SDP-2016/KDS/SDP-2016/Debug/../Generated_Code/AD_Converter.c:443
    OutFlg |= Table[SumChan];          /* Value of measured channel is available */
    22ac:	4b0b      	ldr	r3, [pc, #44]	; (22dc <AdcLdd1_OnMeasurementComplete+0xe4>)
    22ae:	781b      	ldrb	r3, [r3, #0]
    22b0:	b2db      	uxtb	r3, r3
    22b2:	4a0e      	ldr	r2, [pc, #56]	; (22ec <AdcLdd1_OnMeasurementComplete+0xf4>)
    22b4:	5cd2      	ldrb	r2, [r2, r3]
    22b6:	4b0b      	ldr	r3, [pc, #44]	; (22e4 <AdcLdd1_OnMeasurementComplete+0xec>)
    22b8:	781b      	ldrb	r3, [r3, #0]
    22ba:	b2db      	uxtb	r3, r3
    22bc:	4313      	orrs	r3, r2
    22be:	b2da      	uxtb	r2, r3
    22c0:	4b08      	ldr	r3, [pc, #32]	; (22e4 <AdcLdd1_OnMeasurementComplete+0xec>)
    22c2:	701a      	strb	r2, [r3, #0]
/home/marcelo/Documentos/GER/SDP/SDP-2016/KDS/SDP-2016/Debug/../Generated_Code/AD_Converter.c:444
    AD_Converter_OnEnd();              /* If yes then invoke user event */
    22c4:	f7ff fcf0 	bl	1ca8 <AD_Converter_OnEnd>
/home/marcelo/Documentos/GER/SDP/SDP-2016/KDS/SDP-2016/Debug/../Generated_Code/AD_Converter.c:445
    ModeFlg = STOP;                    /* Set the device to the stop mode */
    22c8:	4b02      	ldr	r3, [pc, #8]	; (22d4 <AdcLdd1_OnMeasurementComplete+0xdc>)
    22ca:	2200      	movs	r2, #0
    22cc:	701a      	strb	r2, [r3, #0]
/home/marcelo/Documentos/GER/SDP/SDP-2016/KDS/SDP-2016/Debug/../Generated_Code/AD_Converter.c:447
  }
}
    22ce:	46bd      	mov	sp, r7
    22d0:	b002      	add	sp, #8
    22d2:	bd80      	pop	{r7, pc}
    22d4:	1ffff085 	.word	0x1ffff085
    22d8:	1ffff2cc 	.word	0x1ffff2cc
    22dc:	1ffff084 	.word	0x1ffff084
    22e0:	1ffff2d0 	.word	0x1ffff2d0
    22e4:	1ffff08c 	.word	0x1ffff08c
    22e8:	1ffff088 	.word	0x1ffff088
    22ec:	000039ec 	.word	0x000039ec

000022f0 <AD_Converter_Init>:
AD_Converter_Init():
/home/marcelo/Documentos/GER/SDP/SDP-2016/KDS/SDP-2016/Debug/../Generated_Code/AD_Converter.c:461
**         part of the application initialization code.
**         This method is internal. It is used by Processor Expert only.
** ===================================================================
*/
void AD_Converter_Init(void)
{
    22f0:	b580      	push	{r7, lr}
    22f2:	af00      	add	r7, sp, #0
/home/marcelo/Documentos/GER/SDP/SDP-2016/KDS/SDP-2016/Debug/../Generated_Code/AD_Converter.c:462
  OutFlg = 0U;                         /* No measured value */
    22f4:	4b06      	ldr	r3, [pc, #24]	; (2310 <AD_Converter_Init+0x20>)
    22f6:	2200      	movs	r2, #0
    22f8:	701a      	strb	r2, [r3, #0]
/home/marcelo/Documentos/GER/SDP/SDP-2016/KDS/SDP-2016/Debug/../Generated_Code/AD_Converter.c:463
  ModeFlg = STOP;                      /* Device isn't running */
    22fa:	4b06      	ldr	r3, [pc, #24]	; (2314 <AD_Converter_Init+0x24>)
    22fc:	2200      	movs	r2, #0
    22fe:	701a      	strb	r2, [r3, #0]
/home/marcelo/Documentos/GER/SDP/SDP-2016/KDS/SDP-2016/Debug/../Generated_Code/AD_Converter.c:464
  AdcLdd1_DeviceDataPtr = AdcLdd1_Init(NULL); /* Calling init method of the inherited component */
    2300:	2000      	movs	r0, #0
    2302:	f000 f80b 	bl	231c <AdcLdd1_Init>
    2306:	1c02      	adds	r2, r0, #0
    2308:	4b03      	ldr	r3, [pc, #12]	; (2318 <AD_Converter_Init+0x28>)
    230a:	601a      	str	r2, [r3, #0]
/home/marcelo/Documentos/GER/SDP/SDP-2016/KDS/SDP-2016/Debug/../Generated_Code/AD_Converter.c:465
}
    230c:	46bd      	mov	sp, r7
    230e:	bd80      	pop	{r7, pc}
    2310:	1ffff08c 	.word	0x1ffff08c
    2314:	1ffff085 	.word	0x1ffff085
    2318:	1ffff2cc 	.word	0x1ffff2cc

0000231c <AdcLdd1_Init>:
AdcLdd1_Init():
/home/marcelo/Documentos/GER/SDP/SDP-2016/KDS/SDP-2016/Debug/../Generated_Code/AdcLdd1.c:183
**     @return
**                         - Device data structure pointer.
*/
/* ===================================================================*/
LDD_TDeviceData* AdcLdd1_Init(LDD_TUserData *UserDataPtr)
{
    231c:	b580      	push	{r7, lr}
    231e:	b084      	sub	sp, #16
    2320:	af00      	add	r7, sp, #0
    2322:	6078      	str	r0, [r7, #4]
/home/marcelo/Documentos/GER/SDP/SDP-2016/KDS/SDP-2016/Debug/../Generated_Code/AdcLdd1.c:188
  /* Allocate LDD device structure */
  AdcLdd1_TDeviceDataPtr DeviceDataPrv;

  /* {Default RTOS Adapter} Driver memory allocation: Dynamic allocation is simulated by a pointer to the static object */
  DeviceDataPrv = &DeviceDataPrv__DEFAULT_RTOS_ALLOC;
    2324:	4b2b      	ldr	r3, [pc, #172]	; (23d4 <AdcLdd1_Init+0xb8>)
    2326:	60fb      	str	r3, [r7, #12]
/home/marcelo/Documentos/GER/SDP/SDP-2016/KDS/SDP-2016/Debug/../Generated_Code/AdcLdd1.c:189
  DeviceDataPrv->UserData = UserDataPtr; /* Store the RTOS device structure */
    2328:	68fb      	ldr	r3, [r7, #12]
    232a:	687a      	ldr	r2, [r7, #4]
    232c:	605a      	str	r2, [r3, #4]
/home/marcelo/Documentos/GER/SDP/SDP-2016/KDS/SDP-2016/Debug/../Generated_Code/AdcLdd1.c:192
  /* Interrupt vector(s) allocation */
  /* {Default RTOS Adapter} Set interrupt vector: IVT is static, ISR parameter is passed by the global variable */
  INT_ADC0__DEFAULT_RTOS_ISRPARAM = DeviceDataPrv;
    232e:	4b2a      	ldr	r3, [pc, #168]	; (23d8 <AdcLdd1_Init+0xbc>)
    2330:	68fa      	ldr	r2, [r7, #12]
    2332:	601a      	str	r2, [r3, #0]
/home/marcelo/Documentos/GER/SDP/SDP-2016/KDS/SDP-2016/Debug/../Generated_Code/AdcLdd1.c:193
  DeviceDataPrv->SampleCount = 0U;     /* Initializing SampleCount for right access of some methods to SC1n registers before first conversion is done */
    2334:	68fb      	ldr	r3, [r7, #12]
    2336:	2200      	movs	r2, #0
    2338:	701a      	strb	r2, [r3, #0]
/home/marcelo/Documentos/GER/SDP/SDP-2016/KDS/SDP-2016/Debug/../Generated_Code/AdcLdd1.c:194
  DeviceDataPrv->CompleteStatus = FALSE; /* Clear measurement complete status flag */
    233a:	68fb      	ldr	r3, [r7, #12]
    233c:	2200      	movs	r2, #0
    233e:	709a      	strb	r2, [r3, #2]
/home/marcelo/Documentos/GER/SDP/SDP-2016/KDS/SDP-2016/Debug/../Generated_Code/AdcLdd1.c:196
  /* SIM_SCGC6: ADC0=1 */
  SIM_SCGC6 |= SIM_SCGC6_ADC0_MASK;
    2340:	4a26      	ldr	r2, [pc, #152]	; (23dc <AdcLdd1_Init+0xc0>)
    2342:	4926      	ldr	r1, [pc, #152]	; (23dc <AdcLdd1_Init+0xc0>)
    2344:	4b26      	ldr	r3, [pc, #152]	; (23e0 <AdcLdd1_Init+0xc4>)
    2346:	58cb      	ldr	r3, [r1, r3]
    2348:	2180      	movs	r1, #128	; 0x80
    234a:	0509      	lsls	r1, r1, #20
    234c:	4319      	orrs	r1, r3
    234e:	4b24      	ldr	r3, [pc, #144]	; (23e0 <AdcLdd1_Init+0xc4>)
    2350:	50d1      	str	r1, [r2, r3]
/home/marcelo/Documentos/GER/SDP/SDP-2016/KDS/SDP-2016/Debug/../Generated_Code/AdcLdd1.c:199
  /* Interrupt vector(s) priority setting */
  /* NVIC_IPR3: PRI_15=0x80 */
  NVIC_IPR3 = (uint32_t)((NVIC_IPR3 & (uint32_t)~(uint32_t)(
    2352:	4a24      	ldr	r2, [pc, #144]	; (23e4 <AdcLdd1_Init+0xc8>)
    2354:	4923      	ldr	r1, [pc, #140]	; (23e4 <AdcLdd1_Init+0xc8>)
    2356:	23c3      	movs	r3, #195	; 0xc3
    2358:	009b      	lsls	r3, r3, #2
    235a:	58cb      	ldr	r3, [r1, r3]
    235c:	009b      	lsls	r3, r3, #2
    235e:	0899      	lsrs	r1, r3, #2
    2360:	23c3      	movs	r3, #195	; 0xc3
    2362:	009b      	lsls	r3, r3, #2
    2364:	50d1      	str	r1, [r2, r3]
/home/marcelo/Documentos/GER/SDP/SDP-2016/KDS/SDP-2016/Debug/../Generated_Code/AdcLdd1.c:205
               NVIC_IP_PRI_15(0x7F)
              )) | (uint32_t)(
               NVIC_IP_PRI_15(0x80)
              ));
  /* NVIC_ISER: SETENA|=0x8000 */
  NVIC_ISER |= NVIC_ISER_SETENA(0x8000);
    2366:	4b1f      	ldr	r3, [pc, #124]	; (23e4 <AdcLdd1_Init+0xc8>)
    2368:	4a1e      	ldr	r2, [pc, #120]	; (23e4 <AdcLdd1_Init+0xc8>)
    236a:	6812      	ldr	r2, [r2, #0]
    236c:	2180      	movs	r1, #128	; 0x80
    236e:	0209      	lsls	r1, r1, #8
    2370:	430a      	orrs	r2, r1
    2372:	601a      	str	r2, [r3, #0]
/home/marcelo/Documentos/GER/SDP/SDP-2016/KDS/SDP-2016/Debug/../Generated_Code/AdcLdd1.c:207
  /* PORTD_PCR5: ISF=0,MUX=0 */
  PORTD_PCR5 &= (uint32_t)~(uint32_t)((PORT_PCR_ISF_MASK | PORT_PCR_MUX(0x07)));
    2374:	4b1c      	ldr	r3, [pc, #112]	; (23e8 <AdcLdd1_Init+0xcc>)
    2376:	4a1c      	ldr	r2, [pc, #112]	; (23e8 <AdcLdd1_Init+0xcc>)
    2378:	6951      	ldr	r1, [r2, #20]
    237a:	4a1c      	ldr	r2, [pc, #112]	; (23ec <AdcLdd1_Init+0xd0>)
    237c:	400a      	ands	r2, r1
    237e:	615a      	str	r2, [r3, #20]
/home/marcelo/Documentos/GER/SDP/SDP-2016/KDS/SDP-2016/Debug/../Generated_Code/AdcLdd1.c:209
  /* ADC0_CFG2: MUXSEL=1 */
  ADC0_CFG2 |= ADC_CFG2_MUXSEL_MASK;
    2380:	4b1b      	ldr	r3, [pc, #108]	; (23f0 <AdcLdd1_Init+0xd4>)
    2382:	4a1b      	ldr	r2, [pc, #108]	; (23f0 <AdcLdd1_Init+0xd4>)
    2384:	68d2      	ldr	r2, [r2, #12]
    2386:	2110      	movs	r1, #16
    2388:	430a      	orrs	r2, r1
    238a:	60da      	str	r2, [r3, #12]
/home/marcelo/Documentos/GER/SDP/SDP-2016/KDS/SDP-2016/Debug/../Generated_Code/AdcLdd1.c:211
  /* PORTE_PCR29: ISF=0,MUX=0 */
  PORTE_PCR29 &= (uint32_t)~(uint32_t)((PORT_PCR_ISF_MASK | PORT_PCR_MUX(0x07)));
    238c:	4b19      	ldr	r3, [pc, #100]	; (23f4 <AdcLdd1_Init+0xd8>)
    238e:	4a19      	ldr	r2, [pc, #100]	; (23f4 <AdcLdd1_Init+0xd8>)
    2390:	6f51      	ldr	r1, [r2, #116]	; 0x74
    2392:	4a16      	ldr	r2, [pc, #88]	; (23ec <AdcLdd1_Init+0xd0>)
    2394:	400a      	ands	r2, r1
    2396:	675a      	str	r2, [r3, #116]	; 0x74
/home/marcelo/Documentos/GER/SDP/SDP-2016/KDS/SDP-2016/Debug/../Generated_Code/AdcLdd1.c:213
  /* ADC0_CFG2: MUXSEL=1 */
  ADC0_CFG2 |= ADC_CFG2_MUXSEL_MASK;
    2398:	4b15      	ldr	r3, [pc, #84]	; (23f0 <AdcLdd1_Init+0xd4>)
    239a:	4a15      	ldr	r2, [pc, #84]	; (23f0 <AdcLdd1_Init+0xd4>)
    239c:	68d2      	ldr	r2, [r2, #12]
    239e:	2110      	movs	r1, #16
    23a0:	430a      	orrs	r2, r1
    23a2:	60da      	str	r2, [r3, #12]
/home/marcelo/Documentos/GER/SDP/SDP-2016/KDS/SDP-2016/Debug/../Generated_Code/AdcLdd1.c:215
  /* ADC0_CFG1: ??=0,??=0,??=0,??=0,??=0,??=0,??=0,??=0,??=0,??=0,??=0,??=0,??=0,??=0,??=0,??=0,??=0,??=0,??=0,??=0,??=0,??=0,??=0,??=0,ADLPC=0,ADIV=3,ADLSMP=0,MODE=0,ADICLK=1 */
  ADC0_CFG1 = ADC_CFG1_ADIV(0x03) |
    23a4:	4b12      	ldr	r3, [pc, #72]	; (23f0 <AdcLdd1_Init+0xd4>)
    23a6:	2261      	movs	r2, #97	; 0x61
    23a8:	609a      	str	r2, [r3, #8]
/home/marcelo/Documentos/GER/SDP/SDP-2016/KDS/SDP-2016/Debug/../Generated_Code/AdcLdd1.c:220
              ADC_CFG1_MODE(0x00) |
              ADC_CFG1_ADICLK(0x01);

  /* ADC0_CFG2: ADACKEN=0,ADHSC=0,ADLSTS=0 */
  ADC0_CFG2 &= (uint32_t)~(uint32_t)(
    23aa:	4b11      	ldr	r3, [pc, #68]	; (23f0 <AdcLdd1_Init+0xd4>)
    23ac:	4a10      	ldr	r2, [pc, #64]	; (23f0 <AdcLdd1_Init+0xd4>)
    23ae:	68d2      	ldr	r2, [r2, #12]
    23b0:	210f      	movs	r1, #15
    23b2:	438a      	bics	r2, r1
    23b4:	60da      	str	r2, [r3, #12]
/home/marcelo/Documentos/GER/SDP/SDP-2016/KDS/SDP-2016/Debug/../Generated_Code/AdcLdd1.c:226
                ADC_CFG2_ADACKEN_MASK |
                ADC_CFG2_ADHSC_MASK |
                ADC_CFG2_ADLSTS(0x03)
               );
  /* ADC0_SC2: ??=0,??=0,??=0,??=0,??=0,??=0,??=0,??=0,??=0,??=0,??=0,??=0,??=0,??=0,??=0,??=0,??=0,??=0,??=0,??=0,??=0,??=0,??=0,??=0,ADACT=0,ADTRG=0,ACFE=0,ACFGT=0,ACREN=0,DMAEN=0,REFSEL=0 */
  ADC0_SC2 = ADC_SC2_REFSEL(0x00);
    23b6:	4b0e      	ldr	r3, [pc, #56]	; (23f0 <AdcLdd1_Init+0xd4>)
    23b8:	2200      	movs	r2, #0
    23ba:	621a      	str	r2, [r3, #32]
/home/marcelo/Documentos/GER/SDP/SDP-2016/KDS/SDP-2016/Debug/../Generated_Code/AdcLdd1.c:228
  /* ADC0_SC3: ??=0,??=0,??=0,??=0,??=0,??=0,??=0,??=0,??=0,??=0,??=0,??=0,??=0,??=0,??=0,??=0,??=0,??=0,??=0,??=0,??=0,??=0,??=0,??=0,CAL=0,CALF=1,??=0,??=0,ADCO=0,AVGE=0,AVGS=0 */
  ADC0_SC3 = (ADC_SC3_CALF_MASK | ADC_SC3_AVGS(0x00));
    23bc:	4b0c      	ldr	r3, [pc, #48]	; (23f0 <AdcLdd1_Init+0xd4>)
    23be:	2240      	movs	r2, #64	; 0x40
    23c0:	625a      	str	r2, [r3, #36]	; 0x24
/home/marcelo/Documentos/GER/SDP/SDP-2016/KDS/SDP-2016/Debug/../Generated_Code/AdcLdd1.c:230
  /* Registration of the device structure */
  PE_LDD_RegisterDeviceStructure(PE_LDD_COMPONENT_AdcLdd1_ID,DeviceDataPrv);
    23c2:	4b0d      	ldr	r3, [pc, #52]	; (23f8 <AdcLdd1_Init+0xdc>)
    23c4:	68fa      	ldr	r2, [r7, #12]
    23c6:	611a      	str	r2, [r3, #16]
/home/marcelo/Documentos/GER/SDP/SDP-2016/KDS/SDP-2016/Debug/../Generated_Code/AdcLdd1.c:231
  return ((LDD_TDeviceData *)DeviceDataPrv); /* Return pointer to the data data structure */
    23c8:	68fb      	ldr	r3, [r7, #12]
/home/marcelo/Documentos/GER/SDP/SDP-2016/KDS/SDP-2016/Debug/../Generated_Code/AdcLdd1.c:232
}
    23ca:	1c18      	adds	r0, r3, #0
    23cc:	46bd      	mov	sp, r7
    23ce:	b004      	add	sp, #16
    23d0:	bd80      	pop	{r7, pc}
    23d2:	46c0      	nop			; (mov r8, r8)
    23d4:	1ffff090 	.word	0x1ffff090
    23d8:	1ffff098 	.word	0x1ffff098
    23dc:	40047000 	.word	0x40047000
    23e0:	0000103c 	.word	0x0000103c
    23e4:	e000e100 	.word	0xe000e100
    23e8:	4004c000 	.word	0x4004c000
    23ec:	fefff8ff 	.word	0xfefff8ff
    23f0:	4003b000 	.word	0x4003b000
    23f4:	4004d000 	.word	0x4004d000
    23f8:	1ffff0cc 	.word	0x1ffff0cc

000023fc <AdcLdd1_StartSingleMeasurement>:
AdcLdd1_StartSingleMeasurement():
/home/marcelo/Documentos/GER/SDP/SDP-2016/KDS/SDP-2016/Debug/../Generated_Code/AdcLdd1.c:273
**                           ERR_DISABLED - Component is disabled
**                           ERR_BUSY - A measurement is in progress 
*/
/* ===================================================================*/
LDD_TError AdcLdd1_StartSingleMeasurement(LDD_TDeviceData *DeviceDataPtr)
{
    23fc:	b580      	push	{r7, lr}
    23fe:	b082      	sub	sp, #8
    2400:	af00      	add	r7, sp, #0
    2402:	6078      	str	r0, [r7, #4]
/home/marcelo/Documentos/GER/SDP/SDP-2016/KDS/SDP-2016/Debug/../Generated_Code/AdcLdd1.c:275
  (void)DeviceDataPtr;                 /* Parameter is not used, suppress unused argument warning */
  if (ADC_PDD_GetConversionActiveFlag(ADC0_BASE_PTR) != 0U) { /* Last measurement still pending? */
    2404:	4b0d      	ldr	r3, [pc, #52]	; (243c <AdcLdd1_StartSingleMeasurement+0x40>)
    2406:	6a1a      	ldr	r2, [r3, #32]
    2408:	2380      	movs	r3, #128	; 0x80
    240a:	4013      	ands	r3, r2
    240c:	d001      	beq.n	2412 <AdcLdd1_StartSingleMeasurement+0x16>
/home/marcelo/Documentos/GER/SDP/SDP-2016/KDS/SDP-2016/Debug/../Generated_Code/AdcLdd1.c:276
    return ERR_BUSY;                   /* Yes, return ERR_BUSY */
    240e:	2308      	movs	r3, #8
    2410:	e010      	b.n	2434 <AdcLdd1_StartSingleMeasurement+0x38>
/home/marcelo/Documentos/GER/SDP/SDP-2016/KDS/SDP-2016/Debug/../Generated_Code/AdcLdd1.c:278
  }
  ADC_PDD_SetContinuousMode(ADC0_BASE_PTR, ADC_PDD_ONE_CONVERSION); /* Set one conversion mode */
    2412:	4b0a      	ldr	r3, [pc, #40]	; (243c <AdcLdd1_StartSingleMeasurement+0x40>)
    2414:	4a09      	ldr	r2, [pc, #36]	; (243c <AdcLdd1_StartSingleMeasurement+0x40>)
    2416:	6a52      	ldr	r2, [r2, #36]	; 0x24
    2418:	2148      	movs	r1, #72	; 0x48
    241a:	438a      	bics	r2, r1
    241c:	625a      	str	r2, [r3, #36]	; 0x24
/home/marcelo/Documentos/GER/SDP/SDP-2016/KDS/SDP-2016/Debug/../Generated_Code/AdcLdd1.c:279
  ADC_PDD_SetConversionTriggerType(ADC0_BASE_PTR, ADC_PDD_SW_TRIGGER); /* Select SW triggering */
    241e:	4b07      	ldr	r3, [pc, #28]	; (243c <AdcLdd1_StartSingleMeasurement+0x40>)
    2420:	4a06      	ldr	r2, [pc, #24]	; (243c <AdcLdd1_StartSingleMeasurement+0x40>)
    2422:	6a12      	ldr	r2, [r2, #32]
    2424:	2140      	movs	r1, #64	; 0x40
    2426:	438a      	bics	r2, r1
    2428:	621a      	str	r2, [r3, #32]
/home/marcelo/Documentos/GER/SDP/SDP-2016/KDS/SDP-2016/Debug/../Generated_Code/AdcLdd1.c:280
  ADC_PDD_WriteStatusControl1Reg(ADC0_BASE_PTR, 0U, ((AdcLdd1_TDeviceDataPtr)DeviceDataPtr)->FirstSample); /* Set sample 0 and start conversion */
    242a:	4b04      	ldr	r3, [pc, #16]	; (243c <AdcLdd1_StartSingleMeasurement+0x40>)
    242c:	687a      	ldr	r2, [r7, #4]
    242e:	7852      	ldrb	r2, [r2, #1]
    2430:	601a      	str	r2, [r3, #0]
/home/marcelo/Documentos/GER/SDP/SDP-2016/KDS/SDP-2016/Debug/../Generated_Code/AdcLdd1.c:281
  return ERR_OK;                       /* OK */
    2432:	2300      	movs	r3, #0
/home/marcelo/Documentos/GER/SDP/SDP-2016/KDS/SDP-2016/Debug/../Generated_Code/AdcLdd1.c:282
}
    2434:	1c18      	adds	r0, r3, #0
    2436:	46bd      	mov	sp, r7
    2438:	b002      	add	sp, #8
    243a:	bd80      	pop	{r7, pc}
    243c:	4003b000 	.word	0x4003b000

00002440 <AdcLdd1_CreateSampleGroup>:
AdcLdd1_CreateSampleGroup():
/home/marcelo/Documentos/GER/SDP/SDP-2016/KDS/SDP-2016/Debug/../Generated_Code/AdcLdd1.c:356
**                           variable value is out of range
**                           ERR_BUSY - Measurement is in progress 
*/
/* ===================================================================*/
LDD_TError AdcLdd1_CreateSampleGroup(LDD_TDeviceData *DeviceDataPtr, LDD_ADC_TSample *SampleGroupPtr, uint8_t SampleCount)
{
    2440:	b580      	push	{r7, lr}
    2442:	b086      	sub	sp, #24
    2444:	af00      	add	r7, sp, #0
    2446:	60f8      	str	r0, [r7, #12]
    2448:	60b9      	str	r1, [r7, #8]
    244a:	1dfb      	adds	r3, r7, #7
    244c:	701a      	strb	r2, [r3, #0]
/home/marcelo/Documentos/GER/SDP/SDP-2016/KDS/SDP-2016/Debug/../Generated_Code/AdcLdd1.c:357
  AdcLdd1_TDeviceDataPtr DeviceDataPrv = (AdcLdd1_TDeviceDataPtr)DeviceDataPtr;
    244e:	68fb      	ldr	r3, [r7, #12]
    2450:	617b      	str	r3, [r7, #20]
/home/marcelo/Documentos/GER/SDP/SDP-2016/KDS/SDP-2016/Debug/../Generated_Code/AdcLdd1.c:361

  /* Sample count test - this test can be disabled by setting the "Ignore range checking"
     property to the "yes" value in the "Configuration inspector" */
  if ((SampleCount > AdcLdd1_MAX_HW_SAMPLE_COUNT) || (SampleCount == 0U)) { /* Is number of sample greater then supported by the HW? */
    2452:	1dfb      	adds	r3, r7, #7
    2454:	781b      	ldrb	r3, [r3, #0]
    2456:	2b01      	cmp	r3, #1
    2458:	d803      	bhi.n	2462 <AdcLdd1_CreateSampleGroup+0x22>
/home/marcelo/Documentos/GER/SDP/SDP-2016/KDS/SDP-2016/Debug/../Generated_Code/AdcLdd1.c:361 (discriminator 1)
    245a:	1dfb      	adds	r3, r7, #7
    245c:	781b      	ldrb	r3, [r3, #0]
    245e:	2b00      	cmp	r3, #0
    2460:	d101      	bne.n	2466 <AdcLdd1_CreateSampleGroup+0x26>
/home/marcelo/Documentos/GER/SDP/SDP-2016/KDS/SDP-2016/Debug/../Generated_Code/AdcLdd1.c:362
    return ERR_PARAM_SAMPLE_COUNT;     /* Yes, return ERR_PARAM_SAMPLE_COUNT */
    2462:	2396      	movs	r3, #150	; 0x96
    2464:	e01a      	b.n	249c <AdcLdd1_CreateSampleGroup+0x5c>
/home/marcelo/Documentos/GER/SDP/SDP-2016/KDS/SDP-2016/Debug/../Generated_Code/AdcLdd1.c:364
  }
  if (ADC_PDD_GetConversionActiveFlag(ADC0_BASE_PTR) != 0U) { /* Last measurement still pending? */
    2466:	4b0f      	ldr	r3, [pc, #60]	; (24a4 <AdcLdd1_CreateSampleGroup+0x64>)
    2468:	6a1a      	ldr	r2, [r3, #32]
    246a:	2380      	movs	r3, #128	; 0x80
    246c:	4013      	ands	r3, r2
    246e:	d001      	beq.n	2474 <AdcLdd1_CreateSampleGroup+0x34>
/home/marcelo/Documentos/GER/SDP/SDP-2016/KDS/SDP-2016/Debug/../Generated_Code/AdcLdd1.c:365
    return ERR_BUSY;                   /* Yes, return ERR_BUSY */
    2470:	2308      	movs	r3, #8
    2472:	e013      	b.n	249c <AdcLdd1_CreateSampleGroup+0x5c>
/home/marcelo/Documentos/GER/SDP/SDP-2016/KDS/SDP-2016/Debug/../Generated_Code/AdcLdd1.c:367
  }
  DeviceDataPrv->SampleCount = SampleCount; /* Remember sample count */
    2474:	697b      	ldr	r3, [r7, #20]
    2476:	1dfa      	adds	r2, r7, #7
    2478:	7812      	ldrb	r2, [r2, #0]
    247a:	701a      	strb	r2, [r3, #0]
/home/marcelo/Documentos/GER/SDP/SDP-2016/KDS/SDP-2016/Debug/../Generated_Code/AdcLdd1.c:370
  /* Channel index test - this test can be disabled by setting the "Ignore range checking"
     property to the "yes" value in the "Configuration inspector" */
  if (SampleGroupPtr[0].ChannelIdx >= AdcLdd1_CHANNEL_COUNT) { /* Is channel index out of range? */
    247c:	68bb      	ldr	r3, [r7, #8]
    247e:	781b      	ldrb	r3, [r3, #0]
    2480:	2b01      	cmp	r3, #1
    2482:	d901      	bls.n	2488 <AdcLdd1_CreateSampleGroup+0x48>
/home/marcelo/Documentos/GER/SDP/SDP-2016/KDS/SDP-2016/Debug/../Generated_Code/AdcLdd1.c:371
    return ERR_PARAM_INDEX;            /* Yes, return ERR_PARAM_INDEX */
    2484:	2382      	movs	r3, #130	; 0x82
    2486:	e009      	b.n	249c <AdcLdd1_CreateSampleGroup+0x5c>
/home/marcelo/Documentos/GER/SDP/SDP-2016/KDS/SDP-2016/Debug/../Generated_Code/AdcLdd1.c:373
  }
  DeviceDataPrv->FirstSample = (ChannelToPin[SampleGroupPtr[0].ChannelIdx]) | (uint8_t)(LDD_ADC_ON_MEASUREMENT_COMPLETE); /* Remember first sample */
    2488:	68bb      	ldr	r3, [r7, #8]
    248a:	781b      	ldrb	r3, [r3, #0]
    248c:	4a06      	ldr	r2, [pc, #24]	; (24a8 <AdcLdd1_CreateSampleGroup+0x68>)
    248e:	5cd3      	ldrb	r3, [r2, r3]
    2490:	2240      	movs	r2, #64	; 0x40
    2492:	4313      	orrs	r3, r2
    2494:	b2da      	uxtb	r2, r3
    2496:	697b      	ldr	r3, [r7, #20]
    2498:	705a      	strb	r2, [r3, #1]
/home/marcelo/Documentos/GER/SDP/SDP-2016/KDS/SDP-2016/Debug/../Generated_Code/AdcLdd1.c:374
  return ERR_OK;                       /* OK */
    249a:	2300      	movs	r3, #0
/home/marcelo/Documentos/GER/SDP/SDP-2016/KDS/SDP-2016/Debug/../Generated_Code/AdcLdd1.c:375
}
    249c:	1c18      	adds	r0, r3, #0
    249e:	46bd      	mov	sp, r7
    24a0:	b006      	add	sp, #24
    24a2:	bd80      	pop	{r7, pc}
    24a4:	4003b000 	.word	0x4003b000
    24a8:	000039f0 	.word	0x000039f0

000024ac <AdcLdd1_GetMeasuredValues>:
AdcLdd1_GetMeasuredValues():
/home/marcelo/Documentos/GER/SDP/SDP-2016/KDS/SDP-2016/Debug/../Generated_Code/AdcLdd1.c:410
**                           active clock configuration
**                           ERR_DISABLED - Component is disabled
*/
/* ===================================================================*/
LDD_TError AdcLdd1_GetMeasuredValues(LDD_TDeviceData *DeviceDataPtr, LDD_TData *BufferPtr)
{
    24ac:	b580      	push	{r7, lr}
    24ae:	b084      	sub	sp, #16
    24b0:	af00      	add	r7, sp, #0
    24b2:	6078      	str	r0, [r7, #4]
    24b4:	6039      	str	r1, [r7, #0]
/home/marcelo/Documentos/GER/SDP/SDP-2016/KDS/SDP-2016/Debug/../Generated_Code/AdcLdd1.c:412
  uint8_t Sample;
  AdcLdd1_TResultData *pBuffer = (AdcLdd1_TResultData *)BufferPtr;
    24b6:	683b      	ldr	r3, [r7, #0]
    24b8:	60bb      	str	r3, [r7, #8]
/home/marcelo/Documentos/GER/SDP/SDP-2016/KDS/SDP-2016/Debug/../Generated_Code/AdcLdd1.c:416

  /* Copy values from result registers defined in the active sample
     group to the user supplied buffer */
  for (Sample = 0U; Sample < ((AdcLdd1_TDeviceDataPtr)DeviceDataPtr)->SampleCount; Sample++) {
    24ba:	1c3b      	adds	r3, r7, #0
    24bc:	330f      	adds	r3, #15
    24be:	2200      	movs	r2, #0
    24c0:	701a      	strb	r2, [r3, #0]
    24c2:	e014      	b.n	24ee <AdcLdd1_GetMeasuredValues+0x42>
/home/marcelo/Documentos/GER/SDP/SDP-2016/KDS/SDP-2016/Debug/../Generated_Code/AdcLdd1.c:417 (discriminator 2)
    pBuffer[Sample] =(uint8_t)(ADC_PDD_GetResultValueRaw(ADC0_BASE_PTR, Sample));
    24c4:	1c3b      	adds	r3, r7, #0
    24c6:	330f      	adds	r3, #15
    24c8:	781b      	ldrb	r3, [r3, #0]
    24ca:	68ba      	ldr	r2, [r7, #8]
    24cc:	18d3      	adds	r3, r2, r3
    24ce:	4a0e      	ldr	r2, [pc, #56]	; (2508 <AdcLdd1_GetMeasuredValues+0x5c>)
    24d0:	1c39      	adds	r1, r7, #0
    24d2:	310f      	adds	r1, #15
    24d4:	7809      	ldrb	r1, [r1, #0]
    24d6:	3104      	adds	r1, #4
    24d8:	0089      	lsls	r1, r1, #2
    24da:	588a      	ldr	r2, [r1, r2]
    24dc:	b2d2      	uxtb	r2, r2
    24de:	701a      	strb	r2, [r3, #0]
/home/marcelo/Documentos/GER/SDP/SDP-2016/KDS/SDP-2016/Debug/../Generated_Code/AdcLdd1.c:416 (discriminator 2)
  uint8_t Sample;
  AdcLdd1_TResultData *pBuffer = (AdcLdd1_TResultData *)BufferPtr;

  /* Copy values from result registers defined in the active sample
     group to the user supplied buffer */
  for (Sample = 0U; Sample < ((AdcLdd1_TDeviceDataPtr)DeviceDataPtr)->SampleCount; Sample++) {
    24e0:	1c3b      	adds	r3, r7, #0
    24e2:	330f      	adds	r3, #15
    24e4:	781a      	ldrb	r2, [r3, #0]
    24e6:	1c3b      	adds	r3, r7, #0
    24e8:	330f      	adds	r3, #15
    24ea:	3201      	adds	r2, #1
    24ec:	701a      	strb	r2, [r3, #0]
/home/marcelo/Documentos/GER/SDP/SDP-2016/KDS/SDP-2016/Debug/../Generated_Code/AdcLdd1.c:416 (discriminator 1)
    24ee:	687b      	ldr	r3, [r7, #4]
    24f0:	781b      	ldrb	r3, [r3, #0]
    24f2:	1c3a      	adds	r2, r7, #0
    24f4:	320f      	adds	r2, #15
    24f6:	7812      	ldrb	r2, [r2, #0]
    24f8:	429a      	cmp	r2, r3
    24fa:	d3e3      	bcc.n	24c4 <AdcLdd1_GetMeasuredValues+0x18>
/home/marcelo/Documentos/GER/SDP/SDP-2016/KDS/SDP-2016/Debug/../Generated_Code/AdcLdd1.c:419
    pBuffer[Sample] =(uint8_t)(ADC_PDD_GetResultValueRaw(ADC0_BASE_PTR, Sample));
  }
  return ERR_OK;                       /* OK */
    24fc:	2300      	movs	r3, #0
/home/marcelo/Documentos/GER/SDP/SDP-2016/KDS/SDP-2016/Debug/../Generated_Code/AdcLdd1.c:420
}
    24fe:	1c18      	adds	r0, r3, #0
    2500:	46bd      	mov	sp, r7
    2502:	b004      	add	sp, #16
    2504:	bd80      	pop	{r7, pc}
    2506:	46c0      	nop			; (mov r8, r8)
    2508:	4003b000 	.word	0x4003b000

0000250c <AdcLdd1_GetCalibrationResultStatus>:
AdcLdd1_GetCalibrationResultStatus():
/home/marcelo/Documentos/GER/SDP/SDP-2016/KDS/SDP-2016/Debug/../Generated_Code/AdcLdd1.c:508
**                           ERR_FAILED - Last calibration hasn't been
**                           finished correctly
*/
/* ===================================================================*/
LDD_TError AdcLdd1_GetCalibrationResultStatus(LDD_TDeviceData *DeviceDataPtr)
{
    250c:	b580      	push	{r7, lr}
    250e:	b084      	sub	sp, #16
    2510:	af00      	add	r7, sp, #0
    2512:	6078      	str	r0, [r7, #4]
/home/marcelo/Documentos/GER/SDP/SDP-2016/KDS/SDP-2016/Debug/../Generated_Code/AdcLdd1.c:512
  uint32_t GainValue;

  (void)DeviceDataPtr;                 /* Parameter is not used, suppress unused argument warning */
  if (ADC_PDD_GetCalibrationFailedStatusFlag(ADC0_BASE_PTR)) {
    2514:	4b2a      	ldr	r3, [pc, #168]	; (25c0 <AdcLdd1_GetCalibrationResultStatus+0xb4>)
    2516:	6a5a      	ldr	r2, [r3, #36]	; 0x24
    2518:	2340      	movs	r3, #64	; 0x40
    251a:	4013      	ands	r3, r2
    251c:	d001      	beq.n	2522 <AdcLdd1_GetCalibrationResultStatus+0x16>
/home/marcelo/Documentos/GER/SDP/SDP-2016/KDS/SDP-2016/Debug/../Generated_Code/AdcLdd1.c:513
    return ERR_FAILED;
    251e:	231b      	movs	r3, #27
    2520:	e04a      	b.n	25b8 <AdcLdd1_GetCalibrationResultStatus+0xac>
/home/marcelo/Documentos/GER/SDP/SDP-2016/KDS/SDP-2016/Debug/../Generated_Code/AdcLdd1.c:517
  }
  /* If calibration is successfully passed place calibrated value into gain registers */
  /* Cumulated gradually because of undefined behavior: the order of volatile accesses is undefined in this statement */
  GainValue = ADC_PDD_GetPlus0CalibrationValue(ADC0_BASE_PTR); /* Find plus gain value */
    2522:	4b27      	ldr	r3, [pc, #156]	; (25c0 <AdcLdd1_GetCalibrationResultStatus+0xb4>)
    2524:	6cdb      	ldr	r3, [r3, #76]	; 0x4c
    2526:	60fb      	str	r3, [r7, #12]
/home/marcelo/Documentos/GER/SDP/SDP-2016/KDS/SDP-2016/Debug/../Generated_Code/AdcLdd1.c:518
  GainValue += ADC_PDD_GetPlus1CalibrationValue(ADC0_BASE_PTR);
    2528:	4b25      	ldr	r3, [pc, #148]	; (25c0 <AdcLdd1_GetCalibrationResultStatus+0xb4>)
    252a:	6c9b      	ldr	r3, [r3, #72]	; 0x48
    252c:	68fa      	ldr	r2, [r7, #12]
    252e:	18d3      	adds	r3, r2, r3
    2530:	60fb      	str	r3, [r7, #12]
/home/marcelo/Documentos/GER/SDP/SDP-2016/KDS/SDP-2016/Debug/../Generated_Code/AdcLdd1.c:519
  GainValue += ADC_PDD_GetPlus2CalibrationValue(ADC0_BASE_PTR);
    2532:	4b23      	ldr	r3, [pc, #140]	; (25c0 <AdcLdd1_GetCalibrationResultStatus+0xb4>)
    2534:	6c5b      	ldr	r3, [r3, #68]	; 0x44
    2536:	68fa      	ldr	r2, [r7, #12]
    2538:	18d3      	adds	r3, r2, r3
    253a:	60fb      	str	r3, [r7, #12]
/home/marcelo/Documentos/GER/SDP/SDP-2016/KDS/SDP-2016/Debug/../Generated_Code/AdcLdd1.c:520
  GainValue += ADC_PDD_GetPlus3CalibrationValue(ADC0_BASE_PTR);
    253c:	4b20      	ldr	r3, [pc, #128]	; (25c0 <AdcLdd1_GetCalibrationResultStatus+0xb4>)
    253e:	6c1b      	ldr	r3, [r3, #64]	; 0x40
    2540:	68fa      	ldr	r2, [r7, #12]
    2542:	18d3      	adds	r3, r2, r3
    2544:	60fb      	str	r3, [r7, #12]
/home/marcelo/Documentos/GER/SDP/SDP-2016/KDS/SDP-2016/Debug/../Generated_Code/AdcLdd1.c:521
  GainValue += ADC_PDD_GetPlus4CalibrationValue(ADC0_BASE_PTR);
    2546:	4b1e      	ldr	r3, [pc, #120]	; (25c0 <AdcLdd1_GetCalibrationResultStatus+0xb4>)
    2548:	6bdb      	ldr	r3, [r3, #60]	; 0x3c
    254a:	68fa      	ldr	r2, [r7, #12]
    254c:	18d3      	adds	r3, r2, r3
    254e:	60fb      	str	r3, [r7, #12]
/home/marcelo/Documentos/GER/SDP/SDP-2016/KDS/SDP-2016/Debug/../Generated_Code/AdcLdd1.c:522
  GainValue += ADC_PDD_GetPlusSCalibrationValue(ADC0_BASE_PTR);
    2550:	4b1b      	ldr	r3, [pc, #108]	; (25c0 <AdcLdd1_GetCalibrationResultStatus+0xb4>)
    2552:	6b9b      	ldr	r3, [r3, #56]	; 0x38
    2554:	68fa      	ldr	r2, [r7, #12]
    2556:	18d3      	adds	r3, r2, r3
    2558:	60fb      	str	r3, [r7, #12]
/home/marcelo/Documentos/GER/SDP/SDP-2016/KDS/SDP-2016/Debug/../Generated_Code/AdcLdd1.c:523
  GainValue = (GainValue >> 1U) | 0x8000U;
    255a:	68fb      	ldr	r3, [r7, #12]
    255c:	085b      	lsrs	r3, r3, #1
    255e:	2280      	movs	r2, #128	; 0x80
    2560:	0212      	lsls	r2, r2, #8
    2562:	4313      	orrs	r3, r2
    2564:	60fb      	str	r3, [r7, #12]
/home/marcelo/Documentos/GER/SDP/SDP-2016/KDS/SDP-2016/Debug/../Generated_Code/AdcLdd1.c:524
  ADC_PDD_SetPlusGainValue(ADC0_BASE_PTR,GainValue); /* Set plus gain value */
    2566:	4b16      	ldr	r3, [pc, #88]	; (25c0 <AdcLdd1_GetCalibrationResultStatus+0xb4>)
    2568:	68fa      	ldr	r2, [r7, #12]
    256a:	62da      	str	r2, [r3, #44]	; 0x2c
/home/marcelo/Documentos/GER/SDP/SDP-2016/KDS/SDP-2016/Debug/../Generated_Code/AdcLdd1.c:525
  GainValue = ADC_PDD_GetMinus0CalibrationValue(ADC0_BASE_PTR); /* Find minus gain value */
    256c:	4b14      	ldr	r3, [pc, #80]	; (25c0 <AdcLdd1_GetCalibrationResultStatus+0xb4>)
    256e:	6edb      	ldr	r3, [r3, #108]	; 0x6c
    2570:	60fb      	str	r3, [r7, #12]
/home/marcelo/Documentos/GER/SDP/SDP-2016/KDS/SDP-2016/Debug/../Generated_Code/AdcLdd1.c:526
  GainValue += ADC_PDD_GetMinus1CalibrationValue(ADC0_BASE_PTR);
    2572:	4b13      	ldr	r3, [pc, #76]	; (25c0 <AdcLdd1_GetCalibrationResultStatus+0xb4>)
    2574:	6e9b      	ldr	r3, [r3, #104]	; 0x68
    2576:	68fa      	ldr	r2, [r7, #12]
    2578:	18d3      	adds	r3, r2, r3
    257a:	60fb      	str	r3, [r7, #12]
/home/marcelo/Documentos/GER/SDP/SDP-2016/KDS/SDP-2016/Debug/../Generated_Code/AdcLdd1.c:527
  GainValue += ADC_PDD_GetMinus2CalibrationValue(ADC0_BASE_PTR);
    257c:	4b10      	ldr	r3, [pc, #64]	; (25c0 <AdcLdd1_GetCalibrationResultStatus+0xb4>)
    257e:	6e5b      	ldr	r3, [r3, #100]	; 0x64
    2580:	68fa      	ldr	r2, [r7, #12]
    2582:	18d3      	adds	r3, r2, r3
    2584:	60fb      	str	r3, [r7, #12]
/home/marcelo/Documentos/GER/SDP/SDP-2016/KDS/SDP-2016/Debug/../Generated_Code/AdcLdd1.c:528
  GainValue += ADC_PDD_GetMinus3CalibrationValue(ADC0_BASE_PTR);
    2586:	4b0e      	ldr	r3, [pc, #56]	; (25c0 <AdcLdd1_GetCalibrationResultStatus+0xb4>)
    2588:	6e1b      	ldr	r3, [r3, #96]	; 0x60
    258a:	68fa      	ldr	r2, [r7, #12]
    258c:	18d3      	adds	r3, r2, r3
    258e:	60fb      	str	r3, [r7, #12]
/home/marcelo/Documentos/GER/SDP/SDP-2016/KDS/SDP-2016/Debug/../Generated_Code/AdcLdd1.c:529
  GainValue += ADC_PDD_GetMinus4CalibrationValue(ADC0_BASE_PTR);
    2590:	4b0b      	ldr	r3, [pc, #44]	; (25c0 <AdcLdd1_GetCalibrationResultStatus+0xb4>)
    2592:	6ddb      	ldr	r3, [r3, #92]	; 0x5c
    2594:	68fa      	ldr	r2, [r7, #12]
    2596:	18d3      	adds	r3, r2, r3
    2598:	60fb      	str	r3, [r7, #12]
/home/marcelo/Documentos/GER/SDP/SDP-2016/KDS/SDP-2016/Debug/../Generated_Code/AdcLdd1.c:530
  GainValue += ADC_PDD_GetMinusSCalibrationValue(ADC0_BASE_PTR);
    259a:	4b09      	ldr	r3, [pc, #36]	; (25c0 <AdcLdd1_GetCalibrationResultStatus+0xb4>)
    259c:	6d9b      	ldr	r3, [r3, #88]	; 0x58
    259e:	68fa      	ldr	r2, [r7, #12]
    25a0:	18d3      	adds	r3, r2, r3
    25a2:	60fb      	str	r3, [r7, #12]
/home/marcelo/Documentos/GER/SDP/SDP-2016/KDS/SDP-2016/Debug/../Generated_Code/AdcLdd1.c:531
  GainValue =  (GainValue >> 1U) | 0x8000U;
    25a4:	68fb      	ldr	r3, [r7, #12]
    25a6:	085b      	lsrs	r3, r3, #1
    25a8:	2280      	movs	r2, #128	; 0x80
    25aa:	0212      	lsls	r2, r2, #8
    25ac:	4313      	orrs	r3, r2
    25ae:	60fb      	str	r3, [r7, #12]
/home/marcelo/Documentos/GER/SDP/SDP-2016/KDS/SDP-2016/Debug/../Generated_Code/AdcLdd1.c:532
  ADC_PDD_SetMinusGainValue(ADC0_BASE_PTR,GainValue); /* Set minus gain value */
    25b0:	4b03      	ldr	r3, [pc, #12]	; (25c0 <AdcLdd1_GetCalibrationResultStatus+0xb4>)
    25b2:	68fa      	ldr	r2, [r7, #12]
    25b4:	631a      	str	r2, [r3, #48]	; 0x30
/home/marcelo/Documentos/GER/SDP/SDP-2016/KDS/SDP-2016/Debug/../Generated_Code/AdcLdd1.c:533
  return ERR_OK;
    25b6:	2300      	movs	r3, #0
/home/marcelo/Documentos/GER/SDP/SDP-2016/KDS/SDP-2016/Debug/../Generated_Code/AdcLdd1.c:534
}
    25b8:	1c18      	adds	r0, r3, #0
    25ba:	46bd      	mov	sp, r7
    25bc:	b004      	add	sp, #16
    25be:	bd80      	pop	{r7, pc}
    25c0:	4003b000 	.word	0x4003b000

000025c4 <AdcLdd1_MeasurementCompleteInterrupt>:
AdcLdd1_MeasurementCompleteInterrupt():
/home/marcelo/Documentos/GER/SDP/SDP-2016/KDS/SDP-2016/Debug/../Generated_Code/AdcLdd1.c:546
**         Measurement complete interrupt handler
**         This method is internal. It is used by Processor Expert only.
** ===================================================================
*/
PE_ISR(AdcLdd1_MeasurementCompleteInterrupt)
{
    25c4:	b580      	push	{r7, lr}
    25c6:	b082      	sub	sp, #8
    25c8:	af00      	add	r7, sp, #0
/home/marcelo/Documentos/GER/SDP/SDP-2016/KDS/SDP-2016/Debug/../Generated_Code/AdcLdd1.c:548
  /* {Default RTOS Adapter} ISR parameter is passed through the global variable */
  AdcLdd1_TDeviceDataPtr DeviceDataPrv = INT_ADC0__DEFAULT_RTOS_ISRPARAM;
    25ca:	4b08      	ldr	r3, [pc, #32]	; (25ec <AdcLdd1_MeasurementCompleteInterrupt+0x28>)
    25cc:	681b      	ldr	r3, [r3, #0]
    25ce:	607b      	str	r3, [r7, #4]
/home/marcelo/Documentos/GER/SDP/SDP-2016/KDS/SDP-2016/Debug/../Generated_Code/AdcLdd1.c:549
  DeviceDataPrv->CompleteStatus = TRUE; /* Set measurement complete status flag */
    25d0:	687b      	ldr	r3, [r7, #4]
    25d2:	2201      	movs	r2, #1
    25d4:	709a      	strb	r2, [r3, #2]
/home/marcelo/Documentos/GER/SDP/SDP-2016/KDS/SDP-2016/Debug/../Generated_Code/AdcLdd1.c:550
  AdcLdd1_OnMeasurementComplete(DeviceDataPrv->UserData);
    25d6:	687b      	ldr	r3, [r7, #4]
    25d8:	685b      	ldr	r3, [r3, #4]
    25da:	1c18      	adds	r0, r3, #0
    25dc:	f7ff fe0c 	bl	21f8 <AdcLdd1_OnMeasurementComplete>
/home/marcelo/Documentos/GER/SDP/SDP-2016/KDS/SDP-2016/Debug/../Generated_Code/AdcLdd1.c:551
  (void)ADC_PDD_GetResultValueRaw(ADC0_BASE_PTR, 0U); /* Clear conversion complete flag */
    25e0:	4b03      	ldr	r3, [pc, #12]	; (25f0 <AdcLdd1_MeasurementCompleteInterrupt+0x2c>)
    25e2:	691b      	ldr	r3, [r3, #16]
/home/marcelo/Documentos/GER/SDP/SDP-2016/KDS/SDP-2016/Debug/../Generated_Code/AdcLdd1.c:552
}
    25e4:	46bd      	mov	sp, r7
    25e6:	b002      	add	sp, #8
    25e8:	bd80      	pop	{r7, pc}
    25ea:	46c0      	nop			; (mov r8, r8)
    25ec:	1ffff098 	.word	0x1ffff098
    25f0:	4003b000 	.word	0x4003b000

000025f4 <BitIoLdd1_Init>:
BitIoLdd1_Init():
/home/marcelo/Documentos/GER/SDP/SDP-2016/KDS/SDP-2016/Debug/../Generated_Code/BitIoLdd1.c:123
**                         - Pointer to the dynamically allocated private
**                           structure or NULL if there was an error.
*/
/* ===================================================================*/
LDD_TDeviceData* BitIoLdd1_Init(LDD_TUserData *UserDataPtr)
{
    25f4:	b580      	push	{r7, lr}
    25f6:	b084      	sub	sp, #16
    25f8:	af00      	add	r7, sp, #0
    25fa:	6078      	str	r0, [r7, #4]
/home/marcelo/Documentos/GER/SDP/SDP-2016/KDS/SDP-2016/Debug/../Generated_Code/BitIoLdd1.c:128
  /* Allocate device structure */
  BitIoLdd1_TDeviceDataPtr DeviceDataPrv;

  /* {Default RTOS Adapter} Driver memory allocation: Dynamic allocation is simulated by a pointer to the static object */
  DeviceDataPrv = &DeviceDataPrv__DEFAULT_RTOS_ALLOC;
    25fc:	4b10      	ldr	r3, [pc, #64]	; (2640 <BitIoLdd1_Init+0x4c>)
    25fe:	60fb      	str	r3, [r7, #12]
/home/marcelo/Documentos/GER/SDP/SDP-2016/KDS/SDP-2016/Debug/../Generated_Code/BitIoLdd1.c:129
  DeviceDataPrv->UserDataPtr = UserDataPtr; /* Store the RTOS device structure */
    2600:	68fb      	ldr	r3, [r7, #12]
    2602:	687a      	ldr	r2, [r7, #4]
    2604:	601a      	str	r2, [r3, #0]
/home/marcelo/Documentos/GER/SDP/SDP-2016/KDS/SDP-2016/Debug/../Generated_Code/BitIoLdd1.c:132
  /* Configure pin as output */
  /* GPIOD_PDDR: PDD|=0x80 */
  GPIOD_PDDR |= GPIO_PDDR_PDD(0x80);
    2606:	4b0f      	ldr	r3, [pc, #60]	; (2644 <BitIoLdd1_Init+0x50>)
    2608:	4a0e      	ldr	r2, [pc, #56]	; (2644 <BitIoLdd1_Init+0x50>)
    260a:	6952      	ldr	r2, [r2, #20]
    260c:	2180      	movs	r1, #128	; 0x80
    260e:	430a      	orrs	r2, r1
    2610:	615a      	str	r2, [r3, #20]
/home/marcelo/Documentos/GER/SDP/SDP-2016/KDS/SDP-2016/Debug/../Generated_Code/BitIoLdd1.c:135
  /* Set initialization value */
  /* GPIOD_PDOR: PDO&=~0x80 */
  GPIOD_PDOR &= (uint32_t)~(uint32_t)(GPIO_PDOR_PDO(0x80));
    2612:	4b0c      	ldr	r3, [pc, #48]	; (2644 <BitIoLdd1_Init+0x50>)
    2614:	4a0b      	ldr	r2, [pc, #44]	; (2644 <BitIoLdd1_Init+0x50>)
    2616:	6812      	ldr	r2, [r2, #0]
    2618:	2180      	movs	r1, #128	; 0x80
    261a:	438a      	bics	r2, r1
    261c:	601a      	str	r2, [r3, #0]
/home/marcelo/Documentos/GER/SDP/SDP-2016/KDS/SDP-2016/Debug/../Generated_Code/BitIoLdd1.c:138
  /* Initialization of Port Control register */
  /* PORTD_PCR7: ISF=0,MUX=1 */
  PORTD_PCR7 = (uint32_t)((PORTD_PCR7 & (uint32_t)~(uint32_t)(
    261e:	4b0a      	ldr	r3, [pc, #40]	; (2648 <BitIoLdd1_Init+0x54>)
    2620:	4a09      	ldr	r2, [pc, #36]	; (2648 <BitIoLdd1_Init+0x54>)
    2622:	69d1      	ldr	r1, [r2, #28]
    2624:	4a09      	ldr	r2, [pc, #36]	; (264c <BitIoLdd1_Init+0x58>)
    2626:	400a      	ands	r2, r1
    2628:	2180      	movs	r1, #128	; 0x80
    262a:	0049      	lsls	r1, r1, #1
    262c:	430a      	orrs	r2, r1
    262e:	61da      	str	r2, [r3, #28]
/home/marcelo/Documentos/GER/SDP/SDP-2016/KDS/SDP-2016/Debug/../Generated_Code/BitIoLdd1.c:145
                PORT_PCR_MUX(0x06)
               )) | (uint32_t)(
                PORT_PCR_MUX(0x01)
               ));
  /* Registration of the device structure */
  PE_LDD_RegisterDeviceStructure(PE_LDD_COMPONENT_BitIoLdd1_ID,DeviceDataPrv);
    2630:	4b07      	ldr	r3, [pc, #28]	; (2650 <BitIoLdd1_Init+0x5c>)
    2632:	68fa      	ldr	r2, [r7, #12]
    2634:	601a      	str	r2, [r3, #0]
/home/marcelo/Documentos/GER/SDP/SDP-2016/KDS/SDP-2016/Debug/../Generated_Code/BitIoLdd1.c:146
  return ((LDD_TDeviceData *)DeviceDataPrv);
    2636:	68fb      	ldr	r3, [r7, #12]
/home/marcelo/Documentos/GER/SDP/SDP-2016/KDS/SDP-2016/Debug/../Generated_Code/BitIoLdd1.c:147
}
    2638:	1c18      	adds	r0, r3, #0
    263a:	46bd      	mov	sp, r7
    263c:	b004      	add	sp, #16
    263e:	bd80      	pop	{r7, pc}
    2640:	1ffff09c 	.word	0x1ffff09c
    2644:	400ff0c0 	.word	0x400ff0c0
    2648:	4004c000 	.word	0x4004c000
    264c:	fefff8ff 	.word	0xfefff8ff
    2650:	1ffff0cc 	.word	0x1ffff0cc

00002654 <BitIoLdd1_GetVal>:
BitIoLdd1_GetVal():
/home/marcelo/Documentos/GER/SDP/SDP-2016/KDS/SDP-2016/Debug/../Generated_Code/BitIoLdd1.c:169
**                           <false> - logical "0" (Low level)
**                           <true> - logical "1" (High level)
*/
/* ===================================================================*/
bool BitIoLdd1_GetVal(LDD_TDeviceData *DeviceDataPtr)
{
    2654:	b580      	push	{r7, lr}
    2656:	b084      	sub	sp, #16
    2658:	af00      	add	r7, sp, #0
    265a:	6078      	str	r0, [r7, #4]
/home/marcelo/Documentos/GER/SDP/SDP-2016/KDS/SDP-2016/Debug/../Generated_Code/BitIoLdd1.c:173
  uint32_t PortData;                   /* Port data masked according to the bit used */

  (void)DeviceDataPtr;                 /* Parameter is not used, suppress unused argument warning */
  PortData = GPIO_PDD_GetPortDataOutput(BitIoLdd1_MODULE_BASE_ADDRESS) & BitIoLdd1_PORT_MASK;
    265c:	4b06      	ldr	r3, [pc, #24]	; (2678 <BitIoLdd1_GetVal+0x24>)
    265e:	681a      	ldr	r2, [r3, #0]
    2660:	2380      	movs	r3, #128	; 0x80
    2662:	4013      	ands	r3, r2
    2664:	60fb      	str	r3, [r7, #12]
/home/marcelo/Documentos/GER/SDP/SDP-2016/KDS/SDP-2016/Debug/../Generated_Code/BitIoLdd1.c:174
  return (PortData != 0U) ? (bool)TRUE : (bool)FALSE;
    2666:	68fb      	ldr	r3, [r7, #12]
    2668:	1e5a      	subs	r2, r3, #1
    266a:	4193      	sbcs	r3, r2
    266c:	b2db      	uxtb	r3, r3
/home/marcelo/Documentos/GER/SDP/SDP-2016/KDS/SDP-2016/Debug/../Generated_Code/BitIoLdd1.c:175
}
    266e:	1c18      	adds	r0, r3, #0
    2670:	46bd      	mov	sp, r7
    2672:	b004      	add	sp, #16
    2674:	bd80      	pop	{r7, pc}
    2676:	46c0      	nop			; (mov r8, r8)
    2678:	f80ff0c0 	.word	0xf80ff0c0

0000267c <BitIoLdd1_ClrVal>:
BitIoLdd1_ClrVal():
/home/marcelo/Documentos/GER/SDP/SDP-2016/KDS/SDP-2016/Debug/../Generated_Code/BitIoLdd1.c:226
**         DeviceDataPtr   - Pointer to device data
**                           structure returned by <Init> method.
*/
/* ===================================================================*/
void BitIoLdd1_ClrVal(LDD_TDeviceData *DeviceDataPtr)
{
    267c:	b580      	push	{r7, lr}
    267e:	b082      	sub	sp, #8
    2680:	af00      	add	r7, sp, #0
    2682:	6078      	str	r0, [r7, #4]
/home/marcelo/Documentos/GER/SDP/SDP-2016/KDS/SDP-2016/Debug/../Generated_Code/BitIoLdd1.c:228
  (void)DeviceDataPtr;                 /* Parameter is not used, suppress unused argument warning */
  GPIO_PDD_ClearPortDataOutputMask(BitIoLdd1_MODULE_BASE_ADDRESS, BitIoLdd1_PORT_MASK);
    2684:	4b02      	ldr	r3, [pc, #8]	; (2690 <BitIoLdd1_ClrVal+0x14>)
    2686:	2280      	movs	r2, #128	; 0x80
    2688:	609a      	str	r2, [r3, #8]
/home/marcelo/Documentos/GER/SDP/SDP-2016/KDS/SDP-2016/Debug/../Generated_Code/BitIoLdd1.c:229
}
    268a:	46bd      	mov	sp, r7
    268c:	b002      	add	sp, #8
    268e:	bd80      	pop	{r7, pc}
    2690:	f80ff0c0 	.word	0xf80ff0c0

00002694 <BitIoLdd1_SetVal>:
BitIoLdd1_SetVal():
/home/marcelo/Documentos/GER/SDP/SDP-2016/KDS/SDP-2016/Debug/../Generated_Code/BitIoLdd1.c:246
**         DeviceDataPtr   - Pointer to device data
**                           structure returned by <Init> method.
*/
/* ===================================================================*/
void BitIoLdd1_SetVal(LDD_TDeviceData *DeviceDataPtr)
{
    2694:	b580      	push	{r7, lr}
    2696:	b082      	sub	sp, #8
    2698:	af00      	add	r7, sp, #0
    269a:	6078      	str	r0, [r7, #4]
/home/marcelo/Documentos/GER/SDP/SDP-2016/KDS/SDP-2016/Debug/../Generated_Code/BitIoLdd1.c:248
  (void)DeviceDataPtr;                 /* Parameter is not used, suppress unused argument warning */
  GPIO_PDD_SetPortDataOutputMask(BitIoLdd1_MODULE_BASE_ADDRESS, BitIoLdd1_PORT_MASK);
    269c:	4b02      	ldr	r3, [pc, #8]	; (26a8 <BitIoLdd1_SetVal+0x14>)
    269e:	2280      	movs	r2, #128	; 0x80
    26a0:	605a      	str	r2, [r3, #4]
/home/marcelo/Documentos/GER/SDP/SDP-2016/KDS/SDP-2016/Debug/../Generated_Code/BitIoLdd1.c:249
}
    26a2:	46bd      	mov	sp, r7
    26a4:	b002      	add	sp, #8
    26a6:	bd80      	pop	{r7, pc}
    26a8:	f80ff0c0 	.word	0xf80ff0c0

000026ac <BitIoLdd10_Init>:
BitIoLdd10_Init():
/home/marcelo/Documentos/GER/SDP/SDP-2016/KDS/SDP-2016/Debug/../Generated_Code/BitIoLdd10.c:122
**                         - Pointer to the dynamically allocated private
**                           structure or NULL if there was an error.
*/
/* ===================================================================*/
LDD_TDeviceData* BitIoLdd10_Init(LDD_TUserData *UserDataPtr)
{
    26ac:	b580      	push	{r7, lr}
    26ae:	b084      	sub	sp, #16
    26b0:	af00      	add	r7, sp, #0
    26b2:	6078      	str	r0, [r7, #4]
/home/marcelo/Documentos/GER/SDP/SDP-2016/KDS/SDP-2016/Debug/../Generated_Code/BitIoLdd10.c:127
  /* Allocate device structure */
  BitIoLdd10_TDeviceDataPtr DeviceDataPrv;

  /* {Default RTOS Adapter} Driver memory allocation: Dynamic allocation is simulated by a pointer to the static object */
  DeviceDataPrv = &DeviceDataPrv__DEFAULT_RTOS_ALLOC;
    26b4:	4b10      	ldr	r3, [pc, #64]	; (26f8 <BitIoLdd10_Init+0x4c>)
    26b6:	60fb      	str	r3, [r7, #12]
/home/marcelo/Documentos/GER/SDP/SDP-2016/KDS/SDP-2016/Debug/../Generated_Code/BitIoLdd10.c:128
  DeviceDataPrv->UserDataPtr = UserDataPtr; /* Store the RTOS device structure */
    26b8:	68fb      	ldr	r3, [r7, #12]
    26ba:	687a      	ldr	r2, [r7, #4]
    26bc:	601a      	str	r2, [r3, #0]
/home/marcelo/Documentos/GER/SDP/SDP-2016/KDS/SDP-2016/Debug/../Generated_Code/BitIoLdd10.c:131
  /* Configure pin as output */
  /* GPIOE_PDDR: PDD|=1 */
  GPIOE_PDDR |= GPIO_PDDR_PDD(0x01);
    26be:	4b0f      	ldr	r3, [pc, #60]	; (26fc <BitIoLdd10_Init+0x50>)
    26c0:	4a0e      	ldr	r2, [pc, #56]	; (26fc <BitIoLdd10_Init+0x50>)
    26c2:	6952      	ldr	r2, [r2, #20]
    26c4:	2101      	movs	r1, #1
    26c6:	430a      	orrs	r2, r1
    26c8:	615a      	str	r2, [r3, #20]
/home/marcelo/Documentos/GER/SDP/SDP-2016/KDS/SDP-2016/Debug/../Generated_Code/BitIoLdd10.c:134
  /* Set initialization value */
  /* GPIOE_PDOR: PDO|=1 */
  GPIOE_PDOR |= GPIO_PDOR_PDO(0x01);
    26ca:	4b0c      	ldr	r3, [pc, #48]	; (26fc <BitIoLdd10_Init+0x50>)
    26cc:	4a0b      	ldr	r2, [pc, #44]	; (26fc <BitIoLdd10_Init+0x50>)
    26ce:	6812      	ldr	r2, [r2, #0]
    26d0:	2101      	movs	r1, #1
    26d2:	430a      	orrs	r2, r1
    26d4:	601a      	str	r2, [r3, #0]
/home/marcelo/Documentos/GER/SDP/SDP-2016/KDS/SDP-2016/Debug/../Generated_Code/BitIoLdd10.c:137
  /* Initialization of Port Control register */
  /* PORTE_PCR0: ISF=0,MUX=1 */
  PORTE_PCR0 = (uint32_t)((PORTE_PCR0 & (uint32_t)~(uint32_t)(
    26d6:	4b0a      	ldr	r3, [pc, #40]	; (2700 <BitIoLdd10_Init+0x54>)
    26d8:	4a09      	ldr	r2, [pc, #36]	; (2700 <BitIoLdd10_Init+0x54>)
    26da:	6811      	ldr	r1, [r2, #0]
    26dc:	4a09      	ldr	r2, [pc, #36]	; (2704 <BitIoLdd10_Init+0x58>)
    26de:	400a      	ands	r2, r1
    26e0:	2180      	movs	r1, #128	; 0x80
    26e2:	0049      	lsls	r1, r1, #1
    26e4:	430a      	orrs	r2, r1
    26e6:	601a      	str	r2, [r3, #0]
/home/marcelo/Documentos/GER/SDP/SDP-2016/KDS/SDP-2016/Debug/../Generated_Code/BitIoLdd10.c:144
                PORT_PCR_MUX(0x06)
               )) | (uint32_t)(
                PORT_PCR_MUX(0x01)
               ));
  /* Registration of the device structure */
  PE_LDD_RegisterDeviceStructure(PE_LDD_COMPONENT_BitIoLdd10_ID,DeviceDataPrv);
    26e8:	4b07      	ldr	r3, [pc, #28]	; (2708 <BitIoLdd10_Init+0x5c>)
    26ea:	68fa      	ldr	r2, [r7, #12]
    26ec:	651a      	str	r2, [r3, #80]	; 0x50
/home/marcelo/Documentos/GER/SDP/SDP-2016/KDS/SDP-2016/Debug/../Generated_Code/BitIoLdd10.c:145
  return ((LDD_TDeviceData *)DeviceDataPrv);
    26ee:	68fb      	ldr	r3, [r7, #12]
/home/marcelo/Documentos/GER/SDP/SDP-2016/KDS/SDP-2016/Debug/../Generated_Code/BitIoLdd10.c:146
}
    26f0:	1c18      	adds	r0, r3, #0
    26f2:	46bd      	mov	sp, r7
    26f4:	b004      	add	sp, #16
    26f6:	bd80      	pop	{r7, pc}
    26f8:	1ffff0a0 	.word	0x1ffff0a0
    26fc:	400ff100 	.word	0x400ff100
    2700:	4004d000 	.word	0x4004d000
    2704:	fefff8ff 	.word	0xfefff8ff
    2708:	1ffff0cc 	.word	0x1ffff0cc

0000270c <BitIoLdd11_Init>:
BitIoLdd11_Init():
/home/marcelo/Documentos/GER/SDP/SDP-2016/KDS/SDP-2016/Debug/../Generated_Code/BitIoLdd11.c:122
**                         - Pointer to the dynamically allocated private
**                           structure or NULL if there was an error.
*/
/* ===================================================================*/
LDD_TDeviceData* BitIoLdd11_Init(LDD_TUserData *UserDataPtr)
{
    270c:	b580      	push	{r7, lr}
    270e:	b084      	sub	sp, #16
    2710:	af00      	add	r7, sp, #0
    2712:	6078      	str	r0, [r7, #4]
/home/marcelo/Documentos/GER/SDP/SDP-2016/KDS/SDP-2016/Debug/../Generated_Code/BitIoLdd11.c:127
  /* Allocate device structure */
  BitIoLdd11_TDeviceDataPtr DeviceDataPrv;

  /* {Default RTOS Adapter} Driver memory allocation: Dynamic allocation is simulated by a pointer to the static object */
  DeviceDataPrv = &DeviceDataPrv__DEFAULT_RTOS_ALLOC;
    2714:	4b10      	ldr	r3, [pc, #64]	; (2758 <BitIoLdd11_Init+0x4c>)
    2716:	60fb      	str	r3, [r7, #12]
/home/marcelo/Documentos/GER/SDP/SDP-2016/KDS/SDP-2016/Debug/../Generated_Code/BitIoLdd11.c:128
  DeviceDataPrv->UserDataPtr = UserDataPtr; /* Store the RTOS device structure */
    2718:	68fb      	ldr	r3, [r7, #12]
    271a:	687a      	ldr	r2, [r7, #4]
    271c:	601a      	str	r2, [r3, #0]
/home/marcelo/Documentos/GER/SDP/SDP-2016/KDS/SDP-2016/Debug/../Generated_Code/BitIoLdd11.c:131
  /* Configure pin as output */
  /* GPIOD_PDDR: PDD|=2 */
  GPIOD_PDDR |= GPIO_PDDR_PDD(0x02);
    271e:	4b0f      	ldr	r3, [pc, #60]	; (275c <BitIoLdd11_Init+0x50>)
    2720:	4a0e      	ldr	r2, [pc, #56]	; (275c <BitIoLdd11_Init+0x50>)
    2722:	6952      	ldr	r2, [r2, #20]
    2724:	2102      	movs	r1, #2
    2726:	430a      	orrs	r2, r1
    2728:	615a      	str	r2, [r3, #20]
/home/marcelo/Documentos/GER/SDP/SDP-2016/KDS/SDP-2016/Debug/../Generated_Code/BitIoLdd11.c:134
  /* Set initialization value */
  /* GPIOD_PDOR: PDO|=2 */
  GPIOD_PDOR |= GPIO_PDOR_PDO(0x02);
    272a:	4b0c      	ldr	r3, [pc, #48]	; (275c <BitIoLdd11_Init+0x50>)
    272c:	4a0b      	ldr	r2, [pc, #44]	; (275c <BitIoLdd11_Init+0x50>)
    272e:	6812      	ldr	r2, [r2, #0]
    2730:	2102      	movs	r1, #2
    2732:	430a      	orrs	r2, r1
    2734:	601a      	str	r2, [r3, #0]
/home/marcelo/Documentos/GER/SDP/SDP-2016/KDS/SDP-2016/Debug/../Generated_Code/BitIoLdd11.c:137
  /* Initialization of Port Control register */
  /* PORTD_PCR1: ISF=0,MUX=1 */
  PORTD_PCR1 = (uint32_t)((PORTD_PCR1 & (uint32_t)~(uint32_t)(
    2736:	4b0a      	ldr	r3, [pc, #40]	; (2760 <BitIoLdd11_Init+0x54>)
    2738:	4a09      	ldr	r2, [pc, #36]	; (2760 <BitIoLdd11_Init+0x54>)
    273a:	6851      	ldr	r1, [r2, #4]
    273c:	4a09      	ldr	r2, [pc, #36]	; (2764 <BitIoLdd11_Init+0x58>)
    273e:	400a      	ands	r2, r1
    2740:	2180      	movs	r1, #128	; 0x80
    2742:	0049      	lsls	r1, r1, #1
    2744:	430a      	orrs	r2, r1
    2746:	605a      	str	r2, [r3, #4]
/home/marcelo/Documentos/GER/SDP/SDP-2016/KDS/SDP-2016/Debug/../Generated_Code/BitIoLdd11.c:144
                PORT_PCR_MUX(0x06)
               )) | (uint32_t)(
                PORT_PCR_MUX(0x01)
               ));
  /* Registration of the device structure */
  PE_LDD_RegisterDeviceStructure(PE_LDD_COMPONENT_BitIoLdd11_ID,DeviceDataPrv);
    2748:	4b07      	ldr	r3, [pc, #28]	; (2768 <BitIoLdd11_Init+0x5c>)
    274a:	68fa      	ldr	r2, [r7, #12]
    274c:	655a      	str	r2, [r3, #84]	; 0x54
/home/marcelo/Documentos/GER/SDP/SDP-2016/KDS/SDP-2016/Debug/../Generated_Code/BitIoLdd11.c:145
  return ((LDD_TDeviceData *)DeviceDataPrv);
    274e:	68fb      	ldr	r3, [r7, #12]
/home/marcelo/Documentos/GER/SDP/SDP-2016/KDS/SDP-2016/Debug/../Generated_Code/BitIoLdd11.c:146
}
    2750:	1c18      	adds	r0, r3, #0
    2752:	46bd      	mov	sp, r7
    2754:	b004      	add	sp, #16
    2756:	bd80      	pop	{r7, pc}
    2758:	1ffff0a4 	.word	0x1ffff0a4
    275c:	400ff0c0 	.word	0x400ff0c0
    2760:	4004c000 	.word	0x4004c000
    2764:	fefff8ff 	.word	0xfefff8ff
    2768:	1ffff0cc 	.word	0x1ffff0cc

0000276c <BitIoLdd2_Init>:
BitIoLdd2_Init():
/home/marcelo/Documentos/GER/SDP/SDP-2016/KDS/SDP-2016/Debug/../Generated_Code/BitIoLdd2.c:123
**                         - Pointer to the dynamically allocated private
**                           structure or NULL if there was an error.
*/
/* ===================================================================*/
LDD_TDeviceData* BitIoLdd2_Init(LDD_TUserData *UserDataPtr)
{
    276c:	b580      	push	{r7, lr}
    276e:	b084      	sub	sp, #16
    2770:	af00      	add	r7, sp, #0
    2772:	6078      	str	r0, [r7, #4]
/home/marcelo/Documentos/GER/SDP/SDP-2016/KDS/SDP-2016/Debug/../Generated_Code/BitIoLdd2.c:128
  /* Allocate device structure */
  BitIoLdd2_TDeviceDataPtr DeviceDataPrv;

  /* {Default RTOS Adapter} Driver memory allocation: Dynamic allocation is simulated by a pointer to the static object */
  DeviceDataPrv = &DeviceDataPrv__DEFAULT_RTOS_ALLOC;
    2774:	4b10      	ldr	r3, [pc, #64]	; (27b8 <BitIoLdd2_Init+0x4c>)
    2776:	60fb      	str	r3, [r7, #12]
/home/marcelo/Documentos/GER/SDP/SDP-2016/KDS/SDP-2016/Debug/../Generated_Code/BitIoLdd2.c:129
  DeviceDataPrv->UserDataPtr = UserDataPtr; /* Store the RTOS device structure */
    2778:	68fb      	ldr	r3, [r7, #12]
    277a:	687a      	ldr	r2, [r7, #4]
    277c:	601a      	str	r2, [r3, #0]
/home/marcelo/Documentos/GER/SDP/SDP-2016/KDS/SDP-2016/Debug/../Generated_Code/BitIoLdd2.c:132
  /* Configure pin as output */
  /* GPIOE_PDDR: PDD|=2 */
  GPIOE_PDDR |= GPIO_PDDR_PDD(0x02);
    277e:	4b0f      	ldr	r3, [pc, #60]	; (27bc <BitIoLdd2_Init+0x50>)
    2780:	4a0e      	ldr	r2, [pc, #56]	; (27bc <BitIoLdd2_Init+0x50>)
    2782:	6952      	ldr	r2, [r2, #20]
    2784:	2102      	movs	r1, #2
    2786:	430a      	orrs	r2, r1
    2788:	615a      	str	r2, [r3, #20]
/home/marcelo/Documentos/GER/SDP/SDP-2016/KDS/SDP-2016/Debug/../Generated_Code/BitIoLdd2.c:135
  /* Set initialization value */
  /* GPIOE_PDOR: PDO&=~2 */
  GPIOE_PDOR &= (uint32_t)~(uint32_t)(GPIO_PDOR_PDO(0x02));
    278a:	4b0c      	ldr	r3, [pc, #48]	; (27bc <BitIoLdd2_Init+0x50>)
    278c:	4a0b      	ldr	r2, [pc, #44]	; (27bc <BitIoLdd2_Init+0x50>)
    278e:	6812      	ldr	r2, [r2, #0]
    2790:	2102      	movs	r1, #2
    2792:	438a      	bics	r2, r1
    2794:	601a      	str	r2, [r3, #0]
/home/marcelo/Documentos/GER/SDP/SDP-2016/KDS/SDP-2016/Debug/../Generated_Code/BitIoLdd2.c:138
  /* Initialization of Port Control register */
  /* PORTE_PCR1: ISF=0,MUX=1 */
  PORTE_PCR1 = (uint32_t)((PORTE_PCR1 & (uint32_t)~(uint32_t)(
    2796:	4b0a      	ldr	r3, [pc, #40]	; (27c0 <BitIoLdd2_Init+0x54>)
    2798:	4a09      	ldr	r2, [pc, #36]	; (27c0 <BitIoLdd2_Init+0x54>)
    279a:	6851      	ldr	r1, [r2, #4]
    279c:	4a09      	ldr	r2, [pc, #36]	; (27c4 <BitIoLdd2_Init+0x58>)
    279e:	400a      	ands	r2, r1
    27a0:	2180      	movs	r1, #128	; 0x80
    27a2:	0049      	lsls	r1, r1, #1
    27a4:	430a      	orrs	r2, r1
    27a6:	605a      	str	r2, [r3, #4]
/home/marcelo/Documentos/GER/SDP/SDP-2016/KDS/SDP-2016/Debug/../Generated_Code/BitIoLdd2.c:145
                PORT_PCR_MUX(0x06)
               )) | (uint32_t)(
                PORT_PCR_MUX(0x01)
               ));
  /* Registration of the device structure */
  PE_LDD_RegisterDeviceStructure(PE_LDD_COMPONENT_BitIoLdd2_ID,DeviceDataPrv);
    27a8:	4b07      	ldr	r3, [pc, #28]	; (27c8 <BitIoLdd2_Init+0x5c>)
    27aa:	68fa      	ldr	r2, [r7, #12]
    27ac:	605a      	str	r2, [r3, #4]
/home/marcelo/Documentos/GER/SDP/SDP-2016/KDS/SDP-2016/Debug/../Generated_Code/BitIoLdd2.c:146
  return ((LDD_TDeviceData *)DeviceDataPrv);
    27ae:	68fb      	ldr	r3, [r7, #12]
/home/marcelo/Documentos/GER/SDP/SDP-2016/KDS/SDP-2016/Debug/../Generated_Code/BitIoLdd2.c:147
}
    27b0:	1c18      	adds	r0, r3, #0
    27b2:	46bd      	mov	sp, r7
    27b4:	b004      	add	sp, #16
    27b6:	bd80      	pop	{r7, pc}
    27b8:	1ffff0a8 	.word	0x1ffff0a8
    27bc:	400ff100 	.word	0x400ff100
    27c0:	4004d000 	.word	0x4004d000
    27c4:	fefff8ff 	.word	0xfefff8ff
    27c8:	1ffff0cc 	.word	0x1ffff0cc

000027cc <BitIoLdd2_GetVal>:
BitIoLdd2_GetVal():
/home/marcelo/Documentos/GER/SDP/SDP-2016/KDS/SDP-2016/Debug/../Generated_Code/BitIoLdd2.c:169
**                           <false> - logical "0" (Low level)
**                           <true> - logical "1" (High level)
*/
/* ===================================================================*/
bool BitIoLdd2_GetVal(LDD_TDeviceData *DeviceDataPtr)
{
    27cc:	b580      	push	{r7, lr}
    27ce:	b084      	sub	sp, #16
    27d0:	af00      	add	r7, sp, #0
    27d2:	6078      	str	r0, [r7, #4]
/home/marcelo/Documentos/GER/SDP/SDP-2016/KDS/SDP-2016/Debug/../Generated_Code/BitIoLdd2.c:173
  uint32_t PortData;                   /* Port data masked according to the bit used */

  (void)DeviceDataPtr;                 /* Parameter is not used, suppress unused argument warning */
  PortData = GPIO_PDD_GetPortDataOutput(BitIoLdd2_MODULE_BASE_ADDRESS) & BitIoLdd2_PORT_MASK;
    27d4:	4b06      	ldr	r3, [pc, #24]	; (27f0 <BitIoLdd2_GetVal+0x24>)
    27d6:	681a      	ldr	r2, [r3, #0]
    27d8:	2302      	movs	r3, #2
    27da:	4013      	ands	r3, r2
    27dc:	60fb      	str	r3, [r7, #12]
/home/marcelo/Documentos/GER/SDP/SDP-2016/KDS/SDP-2016/Debug/../Generated_Code/BitIoLdd2.c:174
  return (PortData != 0U) ? (bool)TRUE : (bool)FALSE;
    27de:	68fb      	ldr	r3, [r7, #12]
    27e0:	1e5a      	subs	r2, r3, #1
    27e2:	4193      	sbcs	r3, r2
    27e4:	b2db      	uxtb	r3, r3
/home/marcelo/Documentos/GER/SDP/SDP-2016/KDS/SDP-2016/Debug/../Generated_Code/BitIoLdd2.c:175
}
    27e6:	1c18      	adds	r0, r3, #0
    27e8:	46bd      	mov	sp, r7
    27ea:	b004      	add	sp, #16
    27ec:	bd80      	pop	{r7, pc}
    27ee:	46c0      	nop			; (mov r8, r8)
    27f0:	f80ff100 	.word	0xf80ff100

000027f4 <BitIoLdd2_ClrVal>:
BitIoLdd2_ClrVal():
/home/marcelo/Documentos/GER/SDP/SDP-2016/KDS/SDP-2016/Debug/../Generated_Code/BitIoLdd2.c:226
**         DeviceDataPtr   - Pointer to device data
**                           structure returned by <Init> method.
*/
/* ===================================================================*/
void BitIoLdd2_ClrVal(LDD_TDeviceData *DeviceDataPtr)
{
    27f4:	b580      	push	{r7, lr}
    27f6:	b082      	sub	sp, #8
    27f8:	af00      	add	r7, sp, #0
    27fa:	6078      	str	r0, [r7, #4]
/home/marcelo/Documentos/GER/SDP/SDP-2016/KDS/SDP-2016/Debug/../Generated_Code/BitIoLdd2.c:228
  (void)DeviceDataPtr;                 /* Parameter is not used, suppress unused argument warning */
  GPIO_PDD_ClearPortDataOutputMask(BitIoLdd2_MODULE_BASE_ADDRESS, BitIoLdd2_PORT_MASK);
    27fc:	4b02      	ldr	r3, [pc, #8]	; (2808 <BitIoLdd2_ClrVal+0x14>)
    27fe:	2202      	movs	r2, #2
    2800:	609a      	str	r2, [r3, #8]
/home/marcelo/Documentos/GER/SDP/SDP-2016/KDS/SDP-2016/Debug/../Generated_Code/BitIoLdd2.c:229
}
    2802:	46bd      	mov	sp, r7
    2804:	b002      	add	sp, #8
    2806:	bd80      	pop	{r7, pc}
    2808:	f80ff100 	.word	0xf80ff100

0000280c <BitIoLdd2_SetVal>:
BitIoLdd2_SetVal():
/home/marcelo/Documentos/GER/SDP/SDP-2016/KDS/SDP-2016/Debug/../Generated_Code/BitIoLdd2.c:246
**         DeviceDataPtr   - Pointer to device data
**                           structure returned by <Init> method.
*/
/* ===================================================================*/
void BitIoLdd2_SetVal(LDD_TDeviceData *DeviceDataPtr)
{
    280c:	b580      	push	{r7, lr}
    280e:	b082      	sub	sp, #8
    2810:	af00      	add	r7, sp, #0
    2812:	6078      	str	r0, [r7, #4]
/home/marcelo/Documentos/GER/SDP/SDP-2016/KDS/SDP-2016/Debug/../Generated_Code/BitIoLdd2.c:248
  (void)DeviceDataPtr;                 /* Parameter is not used, suppress unused argument warning */
  GPIO_PDD_SetPortDataOutputMask(BitIoLdd2_MODULE_BASE_ADDRESS, BitIoLdd2_PORT_MASK);
    2814:	4b02      	ldr	r3, [pc, #8]	; (2820 <BitIoLdd2_SetVal+0x14>)
    2816:	2202      	movs	r2, #2
    2818:	605a      	str	r2, [r3, #4]
/home/marcelo/Documentos/GER/SDP/SDP-2016/KDS/SDP-2016/Debug/../Generated_Code/BitIoLdd2.c:249
}
    281a:	46bd      	mov	sp, r7
    281c:	b002      	add	sp, #8
    281e:	bd80      	pop	{r7, pc}
    2820:	f80ff100 	.word	0xf80ff100

00002824 <BitIoLdd3_Init>:
BitIoLdd3_Init():
/home/marcelo/Documentos/GER/SDP/SDP-2016/KDS/SDP-2016/Debug/../Generated_Code/BitIoLdd3.c:119
**                         - Pointer to the dynamically allocated private
**                           structure or NULL if there was an error.
*/
/* ===================================================================*/
LDD_TDeviceData* BitIoLdd3_Init(LDD_TUserData *UserDataPtr)
{
    2824:	b580      	push	{r7, lr}
    2826:	b084      	sub	sp, #16
    2828:	af00      	add	r7, sp, #0
    282a:	6078      	str	r0, [r7, #4]
/home/marcelo/Documentos/GER/SDP/SDP-2016/KDS/SDP-2016/Debug/../Generated_Code/BitIoLdd3.c:124
  /* Allocate device structure */
  BitIoLdd3_TDeviceDataPtr DeviceDataPrv;

  /* {Default RTOS Adapter} Driver memory allocation: Dynamic allocation is simulated by a pointer to the static object */
  DeviceDataPrv = &DeviceDataPrv__DEFAULT_RTOS_ALLOC;
    282c:	4b0d      	ldr	r3, [pc, #52]	; (2864 <BitIoLdd3_Init+0x40>)
    282e:	60fb      	str	r3, [r7, #12]
/home/marcelo/Documentos/GER/SDP/SDP-2016/KDS/SDP-2016/Debug/../Generated_Code/BitIoLdd3.c:125
  DeviceDataPrv->UserDataPtr = UserDataPtr; /* Store the RTOS device structure */
    2830:	68fb      	ldr	r3, [r7, #12]
    2832:	687a      	ldr	r2, [r7, #4]
    2834:	601a      	str	r2, [r3, #0]
/home/marcelo/Documentos/GER/SDP/SDP-2016/KDS/SDP-2016/Debug/../Generated_Code/BitIoLdd3.c:128
  /* Configure pin as input */
  /* GPIOC_PDDR: PDD&=~0x00020000 */
  GPIOC_PDDR &= (uint32_t)~(uint32_t)(GPIO_PDDR_PDD(0x00020000));
    2836:	4b0c      	ldr	r3, [pc, #48]	; (2868 <BitIoLdd3_Init+0x44>)
    2838:	4a0b      	ldr	r2, [pc, #44]	; (2868 <BitIoLdd3_Init+0x44>)
    283a:	6951      	ldr	r1, [r2, #20]
    283c:	4a0b      	ldr	r2, [pc, #44]	; (286c <BitIoLdd3_Init+0x48>)
    283e:	400a      	ands	r2, r1
    2840:	615a      	str	r2, [r3, #20]
/home/marcelo/Documentos/GER/SDP/SDP-2016/KDS/SDP-2016/Debug/../Generated_Code/BitIoLdd3.c:131
  /* Initialization of Port Control register */
  /* PORTC_PCR17: ISF=0,MUX=1 */
  PORTC_PCR17 = (uint32_t)((PORTC_PCR17 & (uint32_t)~(uint32_t)(
    2842:	4b0b      	ldr	r3, [pc, #44]	; (2870 <BitIoLdd3_Init+0x4c>)
    2844:	4a0a      	ldr	r2, [pc, #40]	; (2870 <BitIoLdd3_Init+0x4c>)
    2846:	6c51      	ldr	r1, [r2, #68]	; 0x44
    2848:	4a0a      	ldr	r2, [pc, #40]	; (2874 <BitIoLdd3_Init+0x50>)
    284a:	400a      	ands	r2, r1
    284c:	2180      	movs	r1, #128	; 0x80
    284e:	0049      	lsls	r1, r1, #1
    2850:	430a      	orrs	r2, r1
    2852:	645a      	str	r2, [r3, #68]	; 0x44
/home/marcelo/Documentos/GER/SDP/SDP-2016/KDS/SDP-2016/Debug/../Generated_Code/BitIoLdd3.c:138
                 PORT_PCR_MUX(0x06)
                )) | (uint32_t)(
                 PORT_PCR_MUX(0x01)
                ));
  /* Registration of the device structure */
  PE_LDD_RegisterDeviceStructure(PE_LDD_COMPONENT_BitIoLdd3_ID,DeviceDataPrv);
    2854:	4b08      	ldr	r3, [pc, #32]	; (2878 <BitIoLdd3_Init+0x54>)
    2856:	68fa      	ldr	r2, [r7, #12]
    2858:	639a      	str	r2, [r3, #56]	; 0x38
/home/marcelo/Documentos/GER/SDP/SDP-2016/KDS/SDP-2016/Debug/../Generated_Code/BitIoLdd3.c:139
  return ((LDD_TDeviceData *)DeviceDataPrv);
    285a:	68fb      	ldr	r3, [r7, #12]
/home/marcelo/Documentos/GER/SDP/SDP-2016/KDS/SDP-2016/Debug/../Generated_Code/BitIoLdd3.c:140
}
    285c:	1c18      	adds	r0, r3, #0
    285e:	46bd      	mov	sp, r7
    2860:	b004      	add	sp, #16
    2862:	bd80      	pop	{r7, pc}
    2864:	1ffff0ac 	.word	0x1ffff0ac
    2868:	400ff080 	.word	0x400ff080
    286c:	fffdffff 	.word	0xfffdffff
    2870:	4004b000 	.word	0x4004b000
    2874:	fefff8ff 	.word	0xfefff8ff
    2878:	1ffff0cc 	.word	0x1ffff0cc

0000287c <BitIoLdd3_GetVal>:
BitIoLdd3_GetVal():
/home/marcelo/Documentos/GER/SDP/SDP-2016/KDS/SDP-2016/Debug/../Generated_Code/BitIoLdd3.c:162
**                           <false> - logical "0" (Low level)
**                           <true> - logical "1" (High level)
*/
/* ===================================================================*/
bool BitIoLdd3_GetVal(LDD_TDeviceData *DeviceDataPtr)
{
    287c:	b580      	push	{r7, lr}
    287e:	b084      	sub	sp, #16
    2880:	af00      	add	r7, sp, #0
    2882:	6078      	str	r0, [r7, #4]
/home/marcelo/Documentos/GER/SDP/SDP-2016/KDS/SDP-2016/Debug/../Generated_Code/BitIoLdd3.c:166
  uint32_t PortData;                   /* Port data masked according to the bit used */

  (void)DeviceDataPtr;                 /* Parameter is not used, suppress unused argument warning */
  PortData = GPIO_PDD_GetPortDataInput(BitIoLdd3_MODULE_BASE_ADDRESS) & BitIoLdd3_PORT_MASK;
    2884:	4b06      	ldr	r3, [pc, #24]	; (28a0 <BitIoLdd3_GetVal+0x24>)
    2886:	691a      	ldr	r2, [r3, #16]
    2888:	2380      	movs	r3, #128	; 0x80
    288a:	029b      	lsls	r3, r3, #10
    288c:	4013      	ands	r3, r2
    288e:	60fb      	str	r3, [r7, #12]
/home/marcelo/Documentos/GER/SDP/SDP-2016/KDS/SDP-2016/Debug/../Generated_Code/BitIoLdd3.c:167
  return (PortData != 0U) ? (bool)TRUE : (bool)FALSE;
    2890:	68fb      	ldr	r3, [r7, #12]
    2892:	1e5a      	subs	r2, r3, #1
    2894:	4193      	sbcs	r3, r2
    2896:	b2db      	uxtb	r3, r3
/home/marcelo/Documentos/GER/SDP/SDP-2016/KDS/SDP-2016/Debug/../Generated_Code/BitIoLdd3.c:168
}
    2898:	1c18      	adds	r0, r3, #0
    289a:	46bd      	mov	sp, r7
    289c:	b004      	add	sp, #16
    289e:	bd80      	pop	{r7, pc}
    28a0:	f80ff080 	.word	0xf80ff080

000028a4 <BitIoLdd4_Init>:
BitIoLdd4_Init():
/home/marcelo/Documentos/GER/SDP/SDP-2016/KDS/SDP-2016/Debug/../Generated_Code/BitIoLdd4.c:120
**                         - Pointer to the dynamically allocated private
**                           structure or NULL if there was an error.
*/
/* ===================================================================*/
LDD_TDeviceData* BitIoLdd4_Init(LDD_TUserData *UserDataPtr)
{
    28a4:	b580      	push	{r7, lr}
    28a6:	b084      	sub	sp, #16
    28a8:	af00      	add	r7, sp, #0
    28aa:	6078      	str	r0, [r7, #4]
/home/marcelo/Documentos/GER/SDP/SDP-2016/KDS/SDP-2016/Debug/../Generated_Code/BitIoLdd4.c:125
  /* Allocate device structure */
  BitIoLdd4_TDeviceDataPtr DeviceDataPrv;

  /* {Default RTOS Adapter} Driver memory allocation: Dynamic allocation is simulated by a pointer to the static object */
  DeviceDataPrv = &DeviceDataPrv__DEFAULT_RTOS_ALLOC;
    28ac:	4b11      	ldr	r3, [pc, #68]	; (28f4 <BitIoLdd4_Init+0x50>)
    28ae:	60fb      	str	r3, [r7, #12]
/home/marcelo/Documentos/GER/SDP/SDP-2016/KDS/SDP-2016/Debug/../Generated_Code/BitIoLdd4.c:126
  DeviceDataPrv->UserDataPtr = UserDataPtr; /* Store the RTOS device structure */
    28b0:	68fb      	ldr	r3, [r7, #12]
    28b2:	687a      	ldr	r2, [r7, #4]
    28b4:	601a      	str	r2, [r3, #0]
/home/marcelo/Documentos/GER/SDP/SDP-2016/KDS/SDP-2016/Debug/../Generated_Code/BitIoLdd4.c:129
  /* Configure pin as output */
  /* GPIOE_PDDR: PDD|=0x00200000 */
  GPIOE_PDDR |= GPIO_PDDR_PDD(0x00200000);
    28b6:	4b10      	ldr	r3, [pc, #64]	; (28f8 <BitIoLdd4_Init+0x54>)
    28b8:	4a0f      	ldr	r2, [pc, #60]	; (28f8 <BitIoLdd4_Init+0x54>)
    28ba:	6952      	ldr	r2, [r2, #20]
    28bc:	2180      	movs	r1, #128	; 0x80
    28be:	0389      	lsls	r1, r1, #14
    28c0:	430a      	orrs	r2, r1
    28c2:	615a      	str	r2, [r3, #20]
/home/marcelo/Documentos/GER/SDP/SDP-2016/KDS/SDP-2016/Debug/../Generated_Code/BitIoLdd4.c:132
  /* Set initialization value */
  /* GPIOE_PDOR: PDO&=~0x00200000 */
  GPIOE_PDOR &= (uint32_t)~(uint32_t)(GPIO_PDOR_PDO(0x00200000));
    28c4:	4b0c      	ldr	r3, [pc, #48]	; (28f8 <BitIoLdd4_Init+0x54>)
    28c6:	4a0c      	ldr	r2, [pc, #48]	; (28f8 <BitIoLdd4_Init+0x54>)
    28c8:	6811      	ldr	r1, [r2, #0]
    28ca:	4a0c      	ldr	r2, [pc, #48]	; (28fc <BitIoLdd4_Init+0x58>)
    28cc:	400a      	ands	r2, r1
    28ce:	601a      	str	r2, [r3, #0]
/home/marcelo/Documentos/GER/SDP/SDP-2016/KDS/SDP-2016/Debug/../Generated_Code/BitIoLdd4.c:135
  /* Initialization of Port Control register */
  /* PORTE_PCR21: ISF=0,MUX=1 */
  PORTE_PCR21 = (uint32_t)((PORTE_PCR21 & (uint32_t)~(uint32_t)(
    28d0:	4b0b      	ldr	r3, [pc, #44]	; (2900 <BitIoLdd4_Init+0x5c>)
    28d2:	4a0b      	ldr	r2, [pc, #44]	; (2900 <BitIoLdd4_Init+0x5c>)
    28d4:	6d51      	ldr	r1, [r2, #84]	; 0x54
    28d6:	4a0b      	ldr	r2, [pc, #44]	; (2904 <BitIoLdd4_Init+0x60>)
    28d8:	400a      	ands	r2, r1
    28da:	2180      	movs	r1, #128	; 0x80
    28dc:	0049      	lsls	r1, r1, #1
    28de:	430a      	orrs	r2, r1
    28e0:	655a      	str	r2, [r3, #84]	; 0x54
/home/marcelo/Documentos/GER/SDP/SDP-2016/KDS/SDP-2016/Debug/../Generated_Code/BitIoLdd4.c:142
                 PORT_PCR_MUX(0x06)
                )) | (uint32_t)(
                 PORT_PCR_MUX(0x01)
                ));
  /* Registration of the device structure */
  PE_LDD_RegisterDeviceStructure(PE_LDD_COMPONENT_BitIoLdd4_ID,DeviceDataPrv);
    28e2:	4b09      	ldr	r3, [pc, #36]	; (2908 <BitIoLdd4_Init+0x64>)
    28e4:	68fa      	ldr	r2, [r7, #12]
    28e6:	619a      	str	r2, [r3, #24]
/home/marcelo/Documentos/GER/SDP/SDP-2016/KDS/SDP-2016/Debug/../Generated_Code/BitIoLdd4.c:143
  return ((LDD_TDeviceData *)DeviceDataPrv);
    28e8:	68fb      	ldr	r3, [r7, #12]
/home/marcelo/Documentos/GER/SDP/SDP-2016/KDS/SDP-2016/Debug/../Generated_Code/BitIoLdd4.c:144
}
    28ea:	1c18      	adds	r0, r3, #0
    28ec:	46bd      	mov	sp, r7
    28ee:	b004      	add	sp, #16
    28f0:	bd80      	pop	{r7, pc}
    28f2:	46c0      	nop			; (mov r8, r8)
    28f4:	1ffff0b0 	.word	0x1ffff0b0
    28f8:	400ff100 	.word	0x400ff100
    28fc:	ffdfffff 	.word	0xffdfffff
    2900:	4004d000 	.word	0x4004d000
    2904:	fefff8ff 	.word	0xfefff8ff
    2908:	1ffff0cc 	.word	0x1ffff0cc

0000290c <BitIoLdd4_SetVal>:
BitIoLdd4_SetVal():
/home/marcelo/Documentos/GER/SDP/SDP-2016/KDS/SDP-2016/Debug/../Generated_Code/BitIoLdd4.c:180
**         DeviceDataPtr   - Pointer to device data
**                           structure returned by <Init> method.
*/
/* ===================================================================*/
void BitIoLdd4_SetVal(LDD_TDeviceData *DeviceDataPtr)
{
    290c:	b580      	push	{r7, lr}
    290e:	b082      	sub	sp, #8
    2910:	af00      	add	r7, sp, #0
    2912:	6078      	str	r0, [r7, #4]
/home/marcelo/Documentos/GER/SDP/SDP-2016/KDS/SDP-2016/Debug/../Generated_Code/BitIoLdd4.c:182
  (void)DeviceDataPtr;                 /* Parameter is not used, suppress unused argument warning */
  GPIO_PDD_SetPortDataOutputMask(BitIoLdd4_MODULE_BASE_ADDRESS, BitIoLdd4_PORT_MASK);
    2914:	4b03      	ldr	r3, [pc, #12]	; (2924 <BitIoLdd4_SetVal+0x18>)
    2916:	2280      	movs	r2, #128	; 0x80
    2918:	0392      	lsls	r2, r2, #14
    291a:	605a      	str	r2, [r3, #4]
/home/marcelo/Documentos/GER/SDP/SDP-2016/KDS/SDP-2016/Debug/../Generated_Code/BitIoLdd4.c:183
}
    291c:	46bd      	mov	sp, r7
    291e:	b002      	add	sp, #8
    2920:	bd80      	pop	{r7, pc}
    2922:	46c0      	nop			; (mov r8, r8)
    2924:	f80ff100 	.word	0xf80ff100

00002928 <BitIoLdd5_Init>:
BitIoLdd5_Init():
/home/marcelo/Documentos/GER/SDP/SDP-2016/KDS/SDP-2016/Debug/../Generated_Code/BitIoLdd5.c:121
**                         - Pointer to the dynamically allocated private
**                           structure or NULL if there was an error.
*/
/* ===================================================================*/
LDD_TDeviceData* BitIoLdd5_Init(LDD_TUserData *UserDataPtr)
{
    2928:	b580      	push	{r7, lr}
    292a:	b084      	sub	sp, #16
    292c:	af00      	add	r7, sp, #0
    292e:	6078      	str	r0, [r7, #4]
/home/marcelo/Documentos/GER/SDP/SDP-2016/KDS/SDP-2016/Debug/../Generated_Code/BitIoLdd5.c:126
  /* Allocate device structure */
  BitIoLdd5_TDeviceDataPtr DeviceDataPrv;

  /* {Default RTOS Adapter} Driver memory allocation: Dynamic allocation is simulated by a pointer to the static object */
  DeviceDataPrv = &DeviceDataPrv__DEFAULT_RTOS_ALLOC;
    2930:	4b11      	ldr	r3, [pc, #68]	; (2978 <BitIoLdd5_Init+0x50>)
    2932:	60fb      	str	r3, [r7, #12]
/home/marcelo/Documentos/GER/SDP/SDP-2016/KDS/SDP-2016/Debug/../Generated_Code/BitIoLdd5.c:127
  DeviceDataPrv->UserDataPtr = UserDataPtr; /* Store the RTOS device structure */
    2934:	68fb      	ldr	r3, [r7, #12]
    2936:	687a      	ldr	r2, [r7, #4]
    2938:	601a      	str	r2, [r3, #0]
/home/marcelo/Documentos/GER/SDP/SDP-2016/KDS/SDP-2016/Debug/../Generated_Code/BitIoLdd5.c:130
  /* Configure pin as output */
  /* GPIOB_PDDR: PDD|=0x0800 */
  GPIOB_PDDR |= GPIO_PDDR_PDD(0x0800);
    293a:	4b10      	ldr	r3, [pc, #64]	; (297c <BitIoLdd5_Init+0x54>)
    293c:	4a0f      	ldr	r2, [pc, #60]	; (297c <BitIoLdd5_Init+0x54>)
    293e:	6952      	ldr	r2, [r2, #20]
    2940:	2180      	movs	r1, #128	; 0x80
    2942:	0109      	lsls	r1, r1, #4
    2944:	430a      	orrs	r2, r1
    2946:	615a      	str	r2, [r3, #20]
/home/marcelo/Documentos/GER/SDP/SDP-2016/KDS/SDP-2016/Debug/../Generated_Code/BitIoLdd5.c:133
  /* Set initialization value */
  /* GPIOB_PDOR: PDO&=~0x0800 */
  GPIOB_PDOR &= (uint32_t)~(uint32_t)(GPIO_PDOR_PDO(0x0800));
    2948:	4b0c      	ldr	r3, [pc, #48]	; (297c <BitIoLdd5_Init+0x54>)
    294a:	4a0c      	ldr	r2, [pc, #48]	; (297c <BitIoLdd5_Init+0x54>)
    294c:	6811      	ldr	r1, [r2, #0]
    294e:	4a0c      	ldr	r2, [pc, #48]	; (2980 <BitIoLdd5_Init+0x58>)
    2950:	400a      	ands	r2, r1
    2952:	601a      	str	r2, [r3, #0]
/home/marcelo/Documentos/GER/SDP/SDP-2016/KDS/SDP-2016/Debug/../Generated_Code/BitIoLdd5.c:136
  /* Initialization of Port Control register */
  /* PORTB_PCR11: ISF=0,MUX=1 */
  PORTB_PCR11 = (uint32_t)((PORTB_PCR11 & (uint32_t)~(uint32_t)(
    2954:	4b0b      	ldr	r3, [pc, #44]	; (2984 <BitIoLdd5_Init+0x5c>)
    2956:	4a0b      	ldr	r2, [pc, #44]	; (2984 <BitIoLdd5_Init+0x5c>)
    2958:	6ad1      	ldr	r1, [r2, #44]	; 0x2c
    295a:	4a0b      	ldr	r2, [pc, #44]	; (2988 <BitIoLdd5_Init+0x60>)
    295c:	400a      	ands	r2, r1
    295e:	2180      	movs	r1, #128	; 0x80
    2960:	0049      	lsls	r1, r1, #1
    2962:	430a      	orrs	r2, r1
    2964:	62da      	str	r2, [r3, #44]	; 0x2c
/home/marcelo/Documentos/GER/SDP/SDP-2016/KDS/SDP-2016/Debug/../Generated_Code/BitIoLdd5.c:143
                 PORT_PCR_MUX(0x06)
                )) | (uint32_t)(
                 PORT_PCR_MUX(0x01)
                ));
  /* Registration of the device structure */
  PE_LDD_RegisterDeviceStructure(PE_LDD_COMPONENT_BitIoLdd5_ID,DeviceDataPrv);
    2966:	4b09      	ldr	r3, [pc, #36]	; (298c <BitIoLdd5_Init+0x64>)
    2968:	68fa      	ldr	r2, [r7, #12]
    296a:	63da      	str	r2, [r3, #60]	; 0x3c
/home/marcelo/Documentos/GER/SDP/SDP-2016/KDS/SDP-2016/Debug/../Generated_Code/BitIoLdd5.c:144
  return ((LDD_TDeviceData *)DeviceDataPrv);
    296c:	68fb      	ldr	r3, [r7, #12]
/home/marcelo/Documentos/GER/SDP/SDP-2016/KDS/SDP-2016/Debug/../Generated_Code/BitIoLdd5.c:145
}
    296e:	1c18      	adds	r0, r3, #0
    2970:	46bd      	mov	sp, r7
    2972:	b004      	add	sp, #16
    2974:	bd80      	pop	{r7, pc}
    2976:	46c0      	nop			; (mov r8, r8)
    2978:	1ffff0b4 	.word	0x1ffff0b4
    297c:	400ff040 	.word	0x400ff040
    2980:	fffff7ff 	.word	0xfffff7ff
    2984:	4004a000 	.word	0x4004a000
    2988:	fefff8ff 	.word	0xfefff8ff
    298c:	1ffff0cc 	.word	0x1ffff0cc

00002990 <BitIoLdd5_SetVal>:
BitIoLdd5_SetVal():
/home/marcelo/Documentos/GER/SDP/SDP-2016/KDS/SDP-2016/Debug/../Generated_Code/BitIoLdd5.c:181
**         DeviceDataPtr   - Pointer to device data
**                           structure returned by <Init> method.
*/
/* ===================================================================*/
void BitIoLdd5_SetVal(LDD_TDeviceData *DeviceDataPtr)
{
    2990:	b580      	push	{r7, lr}
    2992:	b082      	sub	sp, #8
    2994:	af00      	add	r7, sp, #0
    2996:	6078      	str	r0, [r7, #4]
/home/marcelo/Documentos/GER/SDP/SDP-2016/KDS/SDP-2016/Debug/../Generated_Code/BitIoLdd5.c:183
  (void)DeviceDataPtr;                 /* Parameter is not used, suppress unused argument warning */
  GPIO_PDD_SetPortDataOutputMask(BitIoLdd5_MODULE_BASE_ADDRESS, BitIoLdd5_PORT_MASK);
    2998:	4b03      	ldr	r3, [pc, #12]	; (29a8 <BitIoLdd5_SetVal+0x18>)
    299a:	2280      	movs	r2, #128	; 0x80
    299c:	0112      	lsls	r2, r2, #4
    299e:	605a      	str	r2, [r3, #4]
/home/marcelo/Documentos/GER/SDP/SDP-2016/KDS/SDP-2016/Debug/../Generated_Code/BitIoLdd5.c:184
}
    29a0:	46bd      	mov	sp, r7
    29a2:	b002      	add	sp, #8
    29a4:	bd80      	pop	{r7, pc}
    29a6:	46c0      	nop			; (mov r8, r8)
    29a8:	f80ff040 	.word	0xf80ff040

000029ac <BitIoLdd5_NegVal>:
BitIoLdd5_NegVal():
/home/marcelo/Documentos/GER/SDP/SDP-2016/KDS/SDP-2016/Debug/../Generated_Code/BitIoLdd5.c:201
**         DeviceDataPtr   - Pointer to device data
**                           structure returned by <Init> method.
*/
/* ===================================================================*/
void BitIoLdd5_NegVal(LDD_TDeviceData *DeviceDataPtr)
{
    29ac:	b580      	push	{r7, lr}
    29ae:	b082      	sub	sp, #8
    29b0:	af00      	add	r7, sp, #0
    29b2:	6078      	str	r0, [r7, #4]
/home/marcelo/Documentos/GER/SDP/SDP-2016/KDS/SDP-2016/Debug/../Generated_Code/BitIoLdd5.c:203
  (void)DeviceDataPtr;                 /* Parameter is not used, suppress unused argument warning */
  GPIO_PDD_TogglePortDataOutputMask(BitIoLdd5_MODULE_BASE_ADDRESS, BitIoLdd5_PORT_MASK);
    29b4:	4b03      	ldr	r3, [pc, #12]	; (29c4 <BitIoLdd5_NegVal+0x18>)
    29b6:	2280      	movs	r2, #128	; 0x80
    29b8:	0112      	lsls	r2, r2, #4
    29ba:	60da      	str	r2, [r3, #12]
/home/marcelo/Documentos/GER/SDP/SDP-2016/KDS/SDP-2016/Debug/../Generated_Code/BitIoLdd5.c:204
}
    29bc:	46bd      	mov	sp, r7
    29be:	b002      	add	sp, #8
    29c0:	bd80      	pop	{r7, pc}
    29c2:	46c0      	nop			; (mov r8, r8)
    29c4:	f80ff040 	.word	0xf80ff040

000029c8 <BitIoLdd6_Init>:
BitIoLdd6_Init():
/home/marcelo/Documentos/GER/SDP/SDP-2016/KDS/SDP-2016/Debug/../Generated_Code/BitIoLdd6.c:121
**                         - Pointer to the dynamically allocated private
**                           structure or NULL if there was an error.
*/
/* ===================================================================*/
LDD_TDeviceData* BitIoLdd6_Init(LDD_TUserData *UserDataPtr)
{
    29c8:	b580      	push	{r7, lr}
    29ca:	b084      	sub	sp, #16
    29cc:	af00      	add	r7, sp, #0
    29ce:	6078      	str	r0, [r7, #4]
/home/marcelo/Documentos/GER/SDP/SDP-2016/KDS/SDP-2016/Debug/../Generated_Code/BitIoLdd6.c:126
  /* Allocate device structure */
  BitIoLdd6_TDeviceDataPtr DeviceDataPrv;

  /* {Default RTOS Adapter} Driver memory allocation: Dynamic allocation is simulated by a pointer to the static object */
  DeviceDataPrv = &DeviceDataPrv__DEFAULT_RTOS_ALLOC;
    29d0:	4b11      	ldr	r3, [pc, #68]	; (2a18 <BitIoLdd6_Init+0x50>)
    29d2:	60fb      	str	r3, [r7, #12]
/home/marcelo/Documentos/GER/SDP/SDP-2016/KDS/SDP-2016/Debug/../Generated_Code/BitIoLdd6.c:127
  DeviceDataPrv->UserDataPtr = UserDataPtr; /* Store the RTOS device structure */
    29d4:	68fb      	ldr	r3, [r7, #12]
    29d6:	687a      	ldr	r2, [r7, #4]
    29d8:	601a      	str	r2, [r3, #0]
/home/marcelo/Documentos/GER/SDP/SDP-2016/KDS/SDP-2016/Debug/../Generated_Code/BitIoLdd6.c:130
  /* Configure pin as output */
  /* GPIOB_PDDR: PDD|=0x0400 */
  GPIOB_PDDR |= GPIO_PDDR_PDD(0x0400);
    29da:	4b10      	ldr	r3, [pc, #64]	; (2a1c <BitIoLdd6_Init+0x54>)
    29dc:	4a0f      	ldr	r2, [pc, #60]	; (2a1c <BitIoLdd6_Init+0x54>)
    29de:	6952      	ldr	r2, [r2, #20]
    29e0:	2180      	movs	r1, #128	; 0x80
    29e2:	00c9      	lsls	r1, r1, #3
    29e4:	430a      	orrs	r2, r1
    29e6:	615a      	str	r2, [r3, #20]
/home/marcelo/Documentos/GER/SDP/SDP-2016/KDS/SDP-2016/Debug/../Generated_Code/BitIoLdd6.c:133
  /* Set initialization value */
  /* GPIOB_PDOR: PDO&=~0x0400 */
  GPIOB_PDOR &= (uint32_t)~(uint32_t)(GPIO_PDOR_PDO(0x0400));
    29e8:	4b0c      	ldr	r3, [pc, #48]	; (2a1c <BitIoLdd6_Init+0x54>)
    29ea:	4a0c      	ldr	r2, [pc, #48]	; (2a1c <BitIoLdd6_Init+0x54>)
    29ec:	6811      	ldr	r1, [r2, #0]
    29ee:	4a0c      	ldr	r2, [pc, #48]	; (2a20 <BitIoLdd6_Init+0x58>)
    29f0:	400a      	ands	r2, r1
    29f2:	601a      	str	r2, [r3, #0]
/home/marcelo/Documentos/GER/SDP/SDP-2016/KDS/SDP-2016/Debug/../Generated_Code/BitIoLdd6.c:136
  /* Initialization of Port Control register */
  /* PORTB_PCR10: ISF=0,MUX=1 */
  PORTB_PCR10 = (uint32_t)((PORTB_PCR10 & (uint32_t)~(uint32_t)(
    29f4:	4b0b      	ldr	r3, [pc, #44]	; (2a24 <BitIoLdd6_Init+0x5c>)
    29f6:	4a0b      	ldr	r2, [pc, #44]	; (2a24 <BitIoLdd6_Init+0x5c>)
    29f8:	6a91      	ldr	r1, [r2, #40]	; 0x28
    29fa:	4a0b      	ldr	r2, [pc, #44]	; (2a28 <BitIoLdd6_Init+0x60>)
    29fc:	400a      	ands	r2, r1
    29fe:	2180      	movs	r1, #128	; 0x80
    2a00:	0049      	lsls	r1, r1, #1
    2a02:	430a      	orrs	r2, r1
    2a04:	629a      	str	r2, [r3, #40]	; 0x28
/home/marcelo/Documentos/GER/SDP/SDP-2016/KDS/SDP-2016/Debug/../Generated_Code/BitIoLdd6.c:143
                 PORT_PCR_MUX(0x06)
                )) | (uint32_t)(
                 PORT_PCR_MUX(0x01)
                ));
  /* Registration of the device structure */
  PE_LDD_RegisterDeviceStructure(PE_LDD_COMPONENT_BitIoLdd6_ID,DeviceDataPrv);
    2a06:	4b09      	ldr	r3, [pc, #36]	; (2a2c <BitIoLdd6_Init+0x64>)
    2a08:	68fa      	ldr	r2, [r7, #12]
    2a0a:	641a      	str	r2, [r3, #64]	; 0x40
/home/marcelo/Documentos/GER/SDP/SDP-2016/KDS/SDP-2016/Debug/../Generated_Code/BitIoLdd6.c:144
  return ((LDD_TDeviceData *)DeviceDataPrv);
    2a0c:	68fb      	ldr	r3, [r7, #12]
/home/marcelo/Documentos/GER/SDP/SDP-2016/KDS/SDP-2016/Debug/../Generated_Code/BitIoLdd6.c:145
}
    2a0e:	1c18      	adds	r0, r3, #0
    2a10:	46bd      	mov	sp, r7
    2a12:	b004      	add	sp, #16
    2a14:	bd80      	pop	{r7, pc}
    2a16:	46c0      	nop			; (mov r8, r8)
    2a18:	1ffff0b8 	.word	0x1ffff0b8
    2a1c:	400ff040 	.word	0x400ff040
    2a20:	fffffbff 	.word	0xfffffbff
    2a24:	4004a000 	.word	0x4004a000
    2a28:	fefff8ff 	.word	0xfefff8ff
    2a2c:	1ffff0cc 	.word	0x1ffff0cc

00002a30 <BitIoLdd6_ClrVal>:
BitIoLdd6_ClrVal():
/home/marcelo/Documentos/GER/SDP/SDP-2016/KDS/SDP-2016/Debug/../Generated_Code/BitIoLdd6.c:161
**         DeviceDataPtr   - Pointer to device data
**                           structure returned by <Init> method.
*/
/* ===================================================================*/
void BitIoLdd6_ClrVal(LDD_TDeviceData *DeviceDataPtr)
{
    2a30:	b580      	push	{r7, lr}
    2a32:	b082      	sub	sp, #8
    2a34:	af00      	add	r7, sp, #0
    2a36:	6078      	str	r0, [r7, #4]
/home/marcelo/Documentos/GER/SDP/SDP-2016/KDS/SDP-2016/Debug/../Generated_Code/BitIoLdd6.c:163
  (void)DeviceDataPtr;                 /* Parameter is not used, suppress unused argument warning */
  GPIO_PDD_ClearPortDataOutputMask(BitIoLdd6_MODULE_BASE_ADDRESS, BitIoLdd6_PORT_MASK);
    2a38:	4b03      	ldr	r3, [pc, #12]	; (2a48 <BitIoLdd6_ClrVal+0x18>)
    2a3a:	2280      	movs	r2, #128	; 0x80
    2a3c:	00d2      	lsls	r2, r2, #3
    2a3e:	609a      	str	r2, [r3, #8]
/home/marcelo/Documentos/GER/SDP/SDP-2016/KDS/SDP-2016/Debug/../Generated_Code/BitIoLdd6.c:164
}
    2a40:	46bd      	mov	sp, r7
    2a42:	b002      	add	sp, #8
    2a44:	bd80      	pop	{r7, pc}
    2a46:	46c0      	nop			; (mov r8, r8)
    2a48:	f80ff040 	.word	0xf80ff040

00002a4c <BitIoLdd6_SetVal>:
BitIoLdd6_SetVal():
/home/marcelo/Documentos/GER/SDP/SDP-2016/KDS/SDP-2016/Debug/../Generated_Code/BitIoLdd6.c:181
**         DeviceDataPtr   - Pointer to device data
**                           structure returned by <Init> method.
*/
/* ===================================================================*/
void BitIoLdd6_SetVal(LDD_TDeviceData *DeviceDataPtr)
{
    2a4c:	b580      	push	{r7, lr}
    2a4e:	b082      	sub	sp, #8
    2a50:	af00      	add	r7, sp, #0
    2a52:	6078      	str	r0, [r7, #4]
/home/marcelo/Documentos/GER/SDP/SDP-2016/KDS/SDP-2016/Debug/../Generated_Code/BitIoLdd6.c:183
  (void)DeviceDataPtr;                 /* Parameter is not used, suppress unused argument warning */
  GPIO_PDD_SetPortDataOutputMask(BitIoLdd6_MODULE_BASE_ADDRESS, BitIoLdd6_PORT_MASK);
    2a54:	4b03      	ldr	r3, [pc, #12]	; (2a64 <BitIoLdd6_SetVal+0x18>)
    2a56:	2280      	movs	r2, #128	; 0x80
    2a58:	00d2      	lsls	r2, r2, #3
    2a5a:	605a      	str	r2, [r3, #4]
/home/marcelo/Documentos/GER/SDP/SDP-2016/KDS/SDP-2016/Debug/../Generated_Code/BitIoLdd6.c:184
}
    2a5c:	46bd      	mov	sp, r7
    2a5e:	b002      	add	sp, #8
    2a60:	bd80      	pop	{r7, pc}
    2a62:	46c0      	nop			; (mov r8, r8)
    2a64:	f80ff040 	.word	0xf80ff040

00002a68 <BitIoLdd6_NegVal>:
BitIoLdd6_NegVal():
/home/marcelo/Documentos/GER/SDP/SDP-2016/KDS/SDP-2016/Debug/../Generated_Code/BitIoLdd6.c:201
**         DeviceDataPtr   - Pointer to device data
**                           structure returned by <Init> method.
*/
/* ===================================================================*/
void BitIoLdd6_NegVal(LDD_TDeviceData *DeviceDataPtr)
{
    2a68:	b580      	push	{r7, lr}
    2a6a:	b082      	sub	sp, #8
    2a6c:	af00      	add	r7, sp, #0
    2a6e:	6078      	str	r0, [r7, #4]
/home/marcelo/Documentos/GER/SDP/SDP-2016/KDS/SDP-2016/Debug/../Generated_Code/BitIoLdd6.c:203
  (void)DeviceDataPtr;                 /* Parameter is not used, suppress unused argument warning */
  GPIO_PDD_TogglePortDataOutputMask(BitIoLdd6_MODULE_BASE_ADDRESS, BitIoLdd6_PORT_MASK);
    2a70:	4b03      	ldr	r3, [pc, #12]	; (2a80 <BitIoLdd6_NegVal+0x18>)
    2a72:	2280      	movs	r2, #128	; 0x80
    2a74:	00d2      	lsls	r2, r2, #3
    2a76:	60da      	str	r2, [r3, #12]
/home/marcelo/Documentos/GER/SDP/SDP-2016/KDS/SDP-2016/Debug/../Generated_Code/BitIoLdd6.c:204
}
    2a78:	46bd      	mov	sp, r7
    2a7a:	b002      	add	sp, #8
    2a7c:	bd80      	pop	{r7, pc}
    2a7e:	46c0      	nop			; (mov r8, r8)
    2a80:	f80ff040 	.word	0xf80ff040

00002a84 <BitIoLdd7_Init>:
BitIoLdd7_Init():
/home/marcelo/Documentos/GER/SDP/SDP-2016/KDS/SDP-2016/Debug/../Generated_Code/BitIoLdd7.c:121
**                         - Pointer to the dynamically allocated private
**                           structure or NULL if there was an error.
*/
/* ===================================================================*/
LDD_TDeviceData* BitIoLdd7_Init(LDD_TUserData *UserDataPtr)
{
    2a84:	b580      	push	{r7, lr}
    2a86:	b084      	sub	sp, #16
    2a88:	af00      	add	r7, sp, #0
    2a8a:	6078      	str	r0, [r7, #4]
/home/marcelo/Documentos/GER/SDP/SDP-2016/KDS/SDP-2016/Debug/../Generated_Code/BitIoLdd7.c:126
  /* Allocate device structure */
  BitIoLdd7_TDeviceDataPtr DeviceDataPrv;

  /* {Default RTOS Adapter} Driver memory allocation: Dynamic allocation is simulated by a pointer to the static object */
  DeviceDataPrv = &DeviceDataPrv__DEFAULT_RTOS_ALLOC;
    2a8c:	4b11      	ldr	r3, [pc, #68]	; (2ad4 <BitIoLdd7_Init+0x50>)
    2a8e:	60fb      	str	r3, [r7, #12]
/home/marcelo/Documentos/GER/SDP/SDP-2016/KDS/SDP-2016/Debug/../Generated_Code/BitIoLdd7.c:127
  DeviceDataPrv->UserDataPtr = UserDataPtr; /* Store the RTOS device structure */
    2a90:	68fb      	ldr	r3, [r7, #12]
    2a92:	687a      	ldr	r2, [r7, #4]
    2a94:	601a      	str	r2, [r3, #0]
/home/marcelo/Documentos/GER/SDP/SDP-2016/KDS/SDP-2016/Debug/../Generated_Code/BitIoLdd7.c:130
  /* Configure pin as output */
  /* GPIOB_PDDR: PDD|=0x0200 */
  GPIOB_PDDR |= GPIO_PDDR_PDD(0x0200);
    2a96:	4b10      	ldr	r3, [pc, #64]	; (2ad8 <BitIoLdd7_Init+0x54>)
    2a98:	4a0f      	ldr	r2, [pc, #60]	; (2ad8 <BitIoLdd7_Init+0x54>)
    2a9a:	6952      	ldr	r2, [r2, #20]
    2a9c:	2180      	movs	r1, #128	; 0x80
    2a9e:	0089      	lsls	r1, r1, #2
    2aa0:	430a      	orrs	r2, r1
    2aa2:	615a      	str	r2, [r3, #20]
/home/marcelo/Documentos/GER/SDP/SDP-2016/KDS/SDP-2016/Debug/../Generated_Code/BitIoLdd7.c:133
  /* Set initialization value */
  /* GPIOB_PDOR: PDO&=~0x0200 */
  GPIOB_PDOR &= (uint32_t)~(uint32_t)(GPIO_PDOR_PDO(0x0200));
    2aa4:	4b0c      	ldr	r3, [pc, #48]	; (2ad8 <BitIoLdd7_Init+0x54>)
    2aa6:	4a0c      	ldr	r2, [pc, #48]	; (2ad8 <BitIoLdd7_Init+0x54>)
    2aa8:	6811      	ldr	r1, [r2, #0]
    2aaa:	4a0c      	ldr	r2, [pc, #48]	; (2adc <BitIoLdd7_Init+0x58>)
    2aac:	400a      	ands	r2, r1
    2aae:	601a      	str	r2, [r3, #0]
/home/marcelo/Documentos/GER/SDP/SDP-2016/KDS/SDP-2016/Debug/../Generated_Code/BitIoLdd7.c:136
  /* Initialization of Port Control register */
  /* PORTB_PCR9: ISF=0,MUX=1 */
  PORTB_PCR9 = (uint32_t)((PORTB_PCR9 & (uint32_t)~(uint32_t)(
    2ab0:	4b0b      	ldr	r3, [pc, #44]	; (2ae0 <BitIoLdd7_Init+0x5c>)
    2ab2:	4a0b      	ldr	r2, [pc, #44]	; (2ae0 <BitIoLdd7_Init+0x5c>)
    2ab4:	6a51      	ldr	r1, [r2, #36]	; 0x24
    2ab6:	4a0b      	ldr	r2, [pc, #44]	; (2ae4 <BitIoLdd7_Init+0x60>)
    2ab8:	400a      	ands	r2, r1
    2aba:	2180      	movs	r1, #128	; 0x80
    2abc:	0049      	lsls	r1, r1, #1
    2abe:	430a      	orrs	r2, r1
    2ac0:	625a      	str	r2, [r3, #36]	; 0x24
/home/marcelo/Documentos/GER/SDP/SDP-2016/KDS/SDP-2016/Debug/../Generated_Code/BitIoLdd7.c:143
                PORT_PCR_MUX(0x06)
               )) | (uint32_t)(
                PORT_PCR_MUX(0x01)
               ));
  /* Registration of the device structure */
  PE_LDD_RegisterDeviceStructure(PE_LDD_COMPONENT_BitIoLdd7_ID,DeviceDataPrv);
    2ac2:	4b09      	ldr	r3, [pc, #36]	; (2ae8 <BitIoLdd7_Init+0x64>)
    2ac4:	68fa      	ldr	r2, [r7, #12]
    2ac6:	645a      	str	r2, [r3, #68]	; 0x44
/home/marcelo/Documentos/GER/SDP/SDP-2016/KDS/SDP-2016/Debug/../Generated_Code/BitIoLdd7.c:144
  return ((LDD_TDeviceData *)DeviceDataPrv);
    2ac8:	68fb      	ldr	r3, [r7, #12]
/home/marcelo/Documentos/GER/SDP/SDP-2016/KDS/SDP-2016/Debug/../Generated_Code/BitIoLdd7.c:145
}
    2aca:	1c18      	adds	r0, r3, #0
    2acc:	46bd      	mov	sp, r7
    2ace:	b004      	add	sp, #16
    2ad0:	bd80      	pop	{r7, pc}
    2ad2:	46c0      	nop			; (mov r8, r8)
    2ad4:	1ffff0bc 	.word	0x1ffff0bc
    2ad8:	400ff040 	.word	0x400ff040
    2adc:	fffffdff 	.word	0xfffffdff
    2ae0:	4004a000 	.word	0x4004a000
    2ae4:	fefff8ff 	.word	0xfefff8ff
    2ae8:	1ffff0cc 	.word	0x1ffff0cc

00002aec <BitIoLdd7_ClrVal>:
BitIoLdd7_ClrVal():
/home/marcelo/Documentos/GER/SDP/SDP-2016/KDS/SDP-2016/Debug/../Generated_Code/BitIoLdd7.c:161
**         DeviceDataPtr   - Pointer to device data
**                           structure returned by <Init> method.
*/
/* ===================================================================*/
void BitIoLdd7_ClrVal(LDD_TDeviceData *DeviceDataPtr)
{
    2aec:	b580      	push	{r7, lr}
    2aee:	b082      	sub	sp, #8
    2af0:	af00      	add	r7, sp, #0
    2af2:	6078      	str	r0, [r7, #4]
/home/marcelo/Documentos/GER/SDP/SDP-2016/KDS/SDP-2016/Debug/../Generated_Code/BitIoLdd7.c:163
  (void)DeviceDataPtr;                 /* Parameter is not used, suppress unused argument warning */
  GPIO_PDD_ClearPortDataOutputMask(BitIoLdd7_MODULE_BASE_ADDRESS, BitIoLdd7_PORT_MASK);
    2af4:	4b03      	ldr	r3, [pc, #12]	; (2b04 <BitIoLdd7_ClrVal+0x18>)
    2af6:	2280      	movs	r2, #128	; 0x80
    2af8:	0092      	lsls	r2, r2, #2
    2afa:	609a      	str	r2, [r3, #8]
/home/marcelo/Documentos/GER/SDP/SDP-2016/KDS/SDP-2016/Debug/../Generated_Code/BitIoLdd7.c:164
}
    2afc:	46bd      	mov	sp, r7
    2afe:	b002      	add	sp, #8
    2b00:	bd80      	pop	{r7, pc}
    2b02:	46c0      	nop			; (mov r8, r8)
    2b04:	f80ff040 	.word	0xf80ff040

00002b08 <BitIoLdd7_SetVal>:
BitIoLdd7_SetVal():
/home/marcelo/Documentos/GER/SDP/SDP-2016/KDS/SDP-2016/Debug/../Generated_Code/BitIoLdd7.c:181
**         DeviceDataPtr   - Pointer to device data
**                           structure returned by <Init> method.
*/
/* ===================================================================*/
void BitIoLdd7_SetVal(LDD_TDeviceData *DeviceDataPtr)
{
    2b08:	b580      	push	{r7, lr}
    2b0a:	b082      	sub	sp, #8
    2b0c:	af00      	add	r7, sp, #0
    2b0e:	6078      	str	r0, [r7, #4]
/home/marcelo/Documentos/GER/SDP/SDP-2016/KDS/SDP-2016/Debug/../Generated_Code/BitIoLdd7.c:183
  (void)DeviceDataPtr;                 /* Parameter is not used, suppress unused argument warning */
  GPIO_PDD_SetPortDataOutputMask(BitIoLdd7_MODULE_BASE_ADDRESS, BitIoLdd7_PORT_MASK);
    2b10:	4b03      	ldr	r3, [pc, #12]	; (2b20 <BitIoLdd7_SetVal+0x18>)
    2b12:	2280      	movs	r2, #128	; 0x80
    2b14:	0092      	lsls	r2, r2, #2
    2b16:	605a      	str	r2, [r3, #4]
/home/marcelo/Documentos/GER/SDP/SDP-2016/KDS/SDP-2016/Debug/../Generated_Code/BitIoLdd7.c:184
}
    2b18:	46bd      	mov	sp, r7
    2b1a:	b002      	add	sp, #8
    2b1c:	bd80      	pop	{r7, pc}
    2b1e:	46c0      	nop			; (mov r8, r8)
    2b20:	f80ff040 	.word	0xf80ff040

00002b24 <BitIoLdd7_NegVal>:
BitIoLdd7_NegVal():
/home/marcelo/Documentos/GER/SDP/SDP-2016/KDS/SDP-2016/Debug/../Generated_Code/BitIoLdd7.c:201
**         DeviceDataPtr   - Pointer to device data
**                           structure returned by <Init> method.
*/
/* ===================================================================*/
void BitIoLdd7_NegVal(LDD_TDeviceData *DeviceDataPtr)
{
    2b24:	b580      	push	{r7, lr}
    2b26:	b082      	sub	sp, #8
    2b28:	af00      	add	r7, sp, #0
    2b2a:	6078      	str	r0, [r7, #4]
/home/marcelo/Documentos/GER/SDP/SDP-2016/KDS/SDP-2016/Debug/../Generated_Code/BitIoLdd7.c:203
  (void)DeviceDataPtr;                 /* Parameter is not used, suppress unused argument warning */
  GPIO_PDD_TogglePortDataOutputMask(BitIoLdd7_MODULE_BASE_ADDRESS, BitIoLdd7_PORT_MASK);
    2b2c:	4b03      	ldr	r3, [pc, #12]	; (2b3c <BitIoLdd7_NegVal+0x18>)
    2b2e:	2280      	movs	r2, #128	; 0x80
    2b30:	0092      	lsls	r2, r2, #2
    2b32:	60da      	str	r2, [r3, #12]
/home/marcelo/Documentos/GER/SDP/SDP-2016/KDS/SDP-2016/Debug/../Generated_Code/BitIoLdd7.c:204
}
    2b34:	46bd      	mov	sp, r7
    2b36:	b002      	add	sp, #8
    2b38:	bd80      	pop	{r7, pc}
    2b3a:	46c0      	nop			; (mov r8, r8)
    2b3c:	f80ff040 	.word	0xf80ff040

00002b40 <BitIoLdd8_Init>:
BitIoLdd8_Init():
/home/marcelo/Documentos/GER/SDP/SDP-2016/KDS/SDP-2016/Debug/../Generated_Code/BitIoLdd8.c:121
**                         - Pointer to the dynamically allocated private
**                           structure or NULL if there was an error.
*/
/* ===================================================================*/
LDD_TDeviceData* BitIoLdd8_Init(LDD_TUserData *UserDataPtr)
{
    2b40:	b580      	push	{r7, lr}
    2b42:	b084      	sub	sp, #16
    2b44:	af00      	add	r7, sp, #0
    2b46:	6078      	str	r0, [r7, #4]
/home/marcelo/Documentos/GER/SDP/SDP-2016/KDS/SDP-2016/Debug/../Generated_Code/BitIoLdd8.c:126
  /* Allocate device structure */
  BitIoLdd8_TDeviceDataPtr DeviceDataPrv;

  /* {Default RTOS Adapter} Driver memory allocation: Dynamic allocation is simulated by a pointer to the static object */
  DeviceDataPrv = &DeviceDataPrv__DEFAULT_RTOS_ALLOC;
    2b48:	4b11      	ldr	r3, [pc, #68]	; (2b90 <BitIoLdd8_Init+0x50>)
    2b4a:	60fb      	str	r3, [r7, #12]
/home/marcelo/Documentos/GER/SDP/SDP-2016/KDS/SDP-2016/Debug/../Generated_Code/BitIoLdd8.c:127
  DeviceDataPrv->UserDataPtr = UserDataPtr; /* Store the RTOS device structure */
    2b4c:	68fb      	ldr	r3, [r7, #12]
    2b4e:	687a      	ldr	r2, [r7, #4]
    2b50:	601a      	str	r2, [r3, #0]
/home/marcelo/Documentos/GER/SDP/SDP-2016/KDS/SDP-2016/Debug/../Generated_Code/BitIoLdd8.c:130
  /* Configure pin as output */
  /* GPIOB_PDDR: PDD|=0x0100 */
  GPIOB_PDDR |= GPIO_PDDR_PDD(0x0100);
    2b52:	4b10      	ldr	r3, [pc, #64]	; (2b94 <BitIoLdd8_Init+0x54>)
    2b54:	4a0f      	ldr	r2, [pc, #60]	; (2b94 <BitIoLdd8_Init+0x54>)
    2b56:	6952      	ldr	r2, [r2, #20]
    2b58:	2180      	movs	r1, #128	; 0x80
    2b5a:	0049      	lsls	r1, r1, #1
    2b5c:	430a      	orrs	r2, r1
    2b5e:	615a      	str	r2, [r3, #20]
/home/marcelo/Documentos/GER/SDP/SDP-2016/KDS/SDP-2016/Debug/../Generated_Code/BitIoLdd8.c:133
  /* Set initialization value */
  /* GPIOB_PDOR: PDO&=~0x0100 */
  GPIOB_PDOR &= (uint32_t)~(uint32_t)(GPIO_PDOR_PDO(0x0100));
    2b60:	4b0c      	ldr	r3, [pc, #48]	; (2b94 <BitIoLdd8_Init+0x54>)
    2b62:	4a0c      	ldr	r2, [pc, #48]	; (2b94 <BitIoLdd8_Init+0x54>)
    2b64:	6811      	ldr	r1, [r2, #0]
    2b66:	4a0c      	ldr	r2, [pc, #48]	; (2b98 <BitIoLdd8_Init+0x58>)
    2b68:	400a      	ands	r2, r1
    2b6a:	601a      	str	r2, [r3, #0]
/home/marcelo/Documentos/GER/SDP/SDP-2016/KDS/SDP-2016/Debug/../Generated_Code/BitIoLdd8.c:136
  /* Initialization of Port Control register */
  /* PORTB_PCR8: ISF=0,MUX=1 */
  PORTB_PCR8 = (uint32_t)((PORTB_PCR8 & (uint32_t)~(uint32_t)(
    2b6c:	4b0b      	ldr	r3, [pc, #44]	; (2b9c <BitIoLdd8_Init+0x5c>)
    2b6e:	4a0b      	ldr	r2, [pc, #44]	; (2b9c <BitIoLdd8_Init+0x5c>)
    2b70:	6a11      	ldr	r1, [r2, #32]
    2b72:	4a0b      	ldr	r2, [pc, #44]	; (2ba0 <BitIoLdd8_Init+0x60>)
    2b74:	400a      	ands	r2, r1
    2b76:	2180      	movs	r1, #128	; 0x80
    2b78:	0049      	lsls	r1, r1, #1
    2b7a:	430a      	orrs	r2, r1
    2b7c:	621a      	str	r2, [r3, #32]
/home/marcelo/Documentos/GER/SDP/SDP-2016/KDS/SDP-2016/Debug/../Generated_Code/BitIoLdd8.c:143
                PORT_PCR_MUX(0x06)
               )) | (uint32_t)(
                PORT_PCR_MUX(0x01)
               ));
  /* Registration of the device structure */
  PE_LDD_RegisterDeviceStructure(PE_LDD_COMPONENT_BitIoLdd8_ID,DeviceDataPrv);
    2b7e:	4b09      	ldr	r3, [pc, #36]	; (2ba4 <BitIoLdd8_Init+0x64>)
    2b80:	68fa      	ldr	r2, [r7, #12]
    2b82:	649a      	str	r2, [r3, #72]	; 0x48
/home/marcelo/Documentos/GER/SDP/SDP-2016/KDS/SDP-2016/Debug/../Generated_Code/BitIoLdd8.c:144
  return ((LDD_TDeviceData *)DeviceDataPrv);
    2b84:	68fb      	ldr	r3, [r7, #12]
/home/marcelo/Documentos/GER/SDP/SDP-2016/KDS/SDP-2016/Debug/../Generated_Code/BitIoLdd8.c:145
}
    2b86:	1c18      	adds	r0, r3, #0
    2b88:	46bd      	mov	sp, r7
    2b8a:	b004      	add	sp, #16
    2b8c:	bd80      	pop	{r7, pc}
    2b8e:	46c0      	nop			; (mov r8, r8)
    2b90:	1ffff0c0 	.word	0x1ffff0c0
    2b94:	400ff040 	.word	0x400ff040
    2b98:	fffffeff 	.word	0xfffffeff
    2b9c:	4004a000 	.word	0x4004a000
    2ba0:	fefff8ff 	.word	0xfefff8ff
    2ba4:	1ffff0cc 	.word	0x1ffff0cc

00002ba8 <BitIoLdd8_ClrVal>:
BitIoLdd8_ClrVal():
/home/marcelo/Documentos/GER/SDP/SDP-2016/KDS/SDP-2016/Debug/../Generated_Code/BitIoLdd8.c:161
**         DeviceDataPtr   - Pointer to device data
**                           structure returned by <Init> method.
*/
/* ===================================================================*/
void BitIoLdd8_ClrVal(LDD_TDeviceData *DeviceDataPtr)
{
    2ba8:	b580      	push	{r7, lr}
    2baa:	b082      	sub	sp, #8
    2bac:	af00      	add	r7, sp, #0
    2bae:	6078      	str	r0, [r7, #4]
/home/marcelo/Documentos/GER/SDP/SDP-2016/KDS/SDP-2016/Debug/../Generated_Code/BitIoLdd8.c:163
  (void)DeviceDataPtr;                 /* Parameter is not used, suppress unused argument warning */
  GPIO_PDD_ClearPortDataOutputMask(BitIoLdd8_MODULE_BASE_ADDRESS, BitIoLdd8_PORT_MASK);
    2bb0:	4b03      	ldr	r3, [pc, #12]	; (2bc0 <BitIoLdd8_ClrVal+0x18>)
    2bb2:	2280      	movs	r2, #128	; 0x80
    2bb4:	0052      	lsls	r2, r2, #1
    2bb6:	609a      	str	r2, [r3, #8]
/home/marcelo/Documentos/GER/SDP/SDP-2016/KDS/SDP-2016/Debug/../Generated_Code/BitIoLdd8.c:164
}
    2bb8:	46bd      	mov	sp, r7
    2bba:	b002      	add	sp, #8
    2bbc:	bd80      	pop	{r7, pc}
    2bbe:	46c0      	nop			; (mov r8, r8)
    2bc0:	f80ff040 	.word	0xf80ff040

00002bc4 <BitIoLdd8_SetVal>:
BitIoLdd8_SetVal():
/home/marcelo/Documentos/GER/SDP/SDP-2016/KDS/SDP-2016/Debug/../Generated_Code/BitIoLdd8.c:181
**         DeviceDataPtr   - Pointer to device data
**                           structure returned by <Init> method.
*/
/* ===================================================================*/
void BitIoLdd8_SetVal(LDD_TDeviceData *DeviceDataPtr)
{
    2bc4:	b580      	push	{r7, lr}
    2bc6:	b082      	sub	sp, #8
    2bc8:	af00      	add	r7, sp, #0
    2bca:	6078      	str	r0, [r7, #4]
/home/marcelo/Documentos/GER/SDP/SDP-2016/KDS/SDP-2016/Debug/../Generated_Code/BitIoLdd8.c:183
  (void)DeviceDataPtr;                 /* Parameter is not used, suppress unused argument warning */
  GPIO_PDD_SetPortDataOutputMask(BitIoLdd8_MODULE_BASE_ADDRESS, BitIoLdd8_PORT_MASK);
    2bcc:	4b03      	ldr	r3, [pc, #12]	; (2bdc <BitIoLdd8_SetVal+0x18>)
    2bce:	2280      	movs	r2, #128	; 0x80
    2bd0:	0052      	lsls	r2, r2, #1
    2bd2:	605a      	str	r2, [r3, #4]
/home/marcelo/Documentos/GER/SDP/SDP-2016/KDS/SDP-2016/Debug/../Generated_Code/BitIoLdd8.c:184
}
    2bd4:	46bd      	mov	sp, r7
    2bd6:	b002      	add	sp, #8
    2bd8:	bd80      	pop	{r7, pc}
    2bda:	46c0      	nop			; (mov r8, r8)
    2bdc:	f80ff040 	.word	0xf80ff040

00002be0 <BitIoLdd8_NegVal>:
BitIoLdd8_NegVal():
/home/marcelo/Documentos/GER/SDP/SDP-2016/KDS/SDP-2016/Debug/../Generated_Code/BitIoLdd8.c:201
**         DeviceDataPtr   - Pointer to device data
**                           structure returned by <Init> method.
*/
/* ===================================================================*/
void BitIoLdd8_NegVal(LDD_TDeviceData *DeviceDataPtr)
{
    2be0:	b580      	push	{r7, lr}
    2be2:	b082      	sub	sp, #8
    2be4:	af00      	add	r7, sp, #0
    2be6:	6078      	str	r0, [r7, #4]
/home/marcelo/Documentos/GER/SDP/SDP-2016/KDS/SDP-2016/Debug/../Generated_Code/BitIoLdd8.c:203
  (void)DeviceDataPtr;                 /* Parameter is not used, suppress unused argument warning */
  GPIO_PDD_TogglePortDataOutputMask(BitIoLdd8_MODULE_BASE_ADDRESS, BitIoLdd8_PORT_MASK);
    2be8:	4b03      	ldr	r3, [pc, #12]	; (2bf8 <BitIoLdd8_NegVal+0x18>)
    2bea:	2280      	movs	r2, #128	; 0x80
    2bec:	0052      	lsls	r2, r2, #1
    2bee:	60da      	str	r2, [r3, #12]
/home/marcelo/Documentos/GER/SDP/SDP-2016/KDS/SDP-2016/Debug/../Generated_Code/BitIoLdd8.c:204
}
    2bf0:	46bd      	mov	sp, r7
    2bf2:	b002      	add	sp, #8
    2bf4:	bd80      	pop	{r7, pc}
    2bf6:	46c0      	nop			; (mov r8, r8)
    2bf8:	f80ff040 	.word	0xf80ff040

00002bfc <BitIoLdd9_Init>:
BitIoLdd9_Init():
/home/marcelo/Documentos/GER/SDP/SDP-2016/KDS/SDP-2016/Debug/../Generated_Code/BitIoLdd9.c:122
**                         - Pointer to the dynamically allocated private
**                           structure or NULL if there was an error.
*/
/* ===================================================================*/
LDD_TDeviceData* BitIoLdd9_Init(LDD_TUserData *UserDataPtr)
{
    2bfc:	b580      	push	{r7, lr}
    2bfe:	b084      	sub	sp, #16
    2c00:	af00      	add	r7, sp, #0
    2c02:	6078      	str	r0, [r7, #4]
/home/marcelo/Documentos/GER/SDP/SDP-2016/KDS/SDP-2016/Debug/../Generated_Code/BitIoLdd9.c:127
  /* Allocate device structure */
  BitIoLdd9_TDeviceDataPtr DeviceDataPrv;

  /* {Default RTOS Adapter} Driver memory allocation: Dynamic allocation is simulated by a pointer to the static object */
  DeviceDataPrv = &DeviceDataPrv__DEFAULT_RTOS_ALLOC;
    2c04:	4b11      	ldr	r3, [pc, #68]	; (2c4c <BitIoLdd9_Init+0x50>)
    2c06:	60fb      	str	r3, [r7, #12]
/home/marcelo/Documentos/GER/SDP/SDP-2016/KDS/SDP-2016/Debug/../Generated_Code/BitIoLdd9.c:128
  DeviceDataPrv->UserDataPtr = UserDataPtr; /* Store the RTOS device structure */
    2c08:	68fb      	ldr	r3, [r7, #12]
    2c0a:	687a      	ldr	r2, [r7, #4]
    2c0c:	601a      	str	r2, [r3, #0]
/home/marcelo/Documentos/GER/SDP/SDP-2016/KDS/SDP-2016/Debug/../Generated_Code/BitIoLdd9.c:131
  /* Configure pin as output */
  /* GPIOB_PDDR: PDD|=0x00040000 */
  GPIOB_PDDR |= GPIO_PDDR_PDD(0x00040000);
    2c0e:	4b10      	ldr	r3, [pc, #64]	; (2c50 <BitIoLdd9_Init+0x54>)
    2c10:	4a0f      	ldr	r2, [pc, #60]	; (2c50 <BitIoLdd9_Init+0x54>)
    2c12:	6952      	ldr	r2, [r2, #20]
    2c14:	2180      	movs	r1, #128	; 0x80
    2c16:	02c9      	lsls	r1, r1, #11
    2c18:	430a      	orrs	r2, r1
    2c1a:	615a      	str	r2, [r3, #20]
/home/marcelo/Documentos/GER/SDP/SDP-2016/KDS/SDP-2016/Debug/../Generated_Code/BitIoLdd9.c:134
  /* Set initialization value */
  /* GPIOB_PDOR: PDO|=0x00040000 */
  GPIOB_PDOR |= GPIO_PDOR_PDO(0x00040000);
    2c1c:	4b0c      	ldr	r3, [pc, #48]	; (2c50 <BitIoLdd9_Init+0x54>)
    2c1e:	4a0c      	ldr	r2, [pc, #48]	; (2c50 <BitIoLdd9_Init+0x54>)
    2c20:	6812      	ldr	r2, [r2, #0]
    2c22:	2180      	movs	r1, #128	; 0x80
    2c24:	02c9      	lsls	r1, r1, #11
    2c26:	430a      	orrs	r2, r1
    2c28:	601a      	str	r2, [r3, #0]
/home/marcelo/Documentos/GER/SDP/SDP-2016/KDS/SDP-2016/Debug/../Generated_Code/BitIoLdd9.c:137
  /* Initialization of Port Control register */
  /* PORTB_PCR18: ISF=0,MUX=1 */
  PORTB_PCR18 = (uint32_t)((PORTB_PCR18 & (uint32_t)~(uint32_t)(
    2c2a:	4b0a      	ldr	r3, [pc, #40]	; (2c54 <BitIoLdd9_Init+0x58>)
    2c2c:	4a09      	ldr	r2, [pc, #36]	; (2c54 <BitIoLdd9_Init+0x58>)
    2c2e:	6c91      	ldr	r1, [r2, #72]	; 0x48
    2c30:	4a09      	ldr	r2, [pc, #36]	; (2c58 <BitIoLdd9_Init+0x5c>)
    2c32:	400a      	ands	r2, r1
    2c34:	2180      	movs	r1, #128	; 0x80
    2c36:	0049      	lsls	r1, r1, #1
    2c38:	430a      	orrs	r2, r1
    2c3a:	649a      	str	r2, [r3, #72]	; 0x48
/home/marcelo/Documentos/GER/SDP/SDP-2016/KDS/SDP-2016/Debug/../Generated_Code/BitIoLdd9.c:144
                 PORT_PCR_MUX(0x06)
                )) | (uint32_t)(
                 PORT_PCR_MUX(0x01)
                ));
  /* Registration of the device structure */
  PE_LDD_RegisterDeviceStructure(PE_LDD_COMPONENT_BitIoLdd9_ID,DeviceDataPrv);
    2c3c:	4b07      	ldr	r3, [pc, #28]	; (2c5c <BitIoLdd9_Init+0x60>)
    2c3e:	68fa      	ldr	r2, [r7, #12]
    2c40:	64da      	str	r2, [r3, #76]	; 0x4c
/home/marcelo/Documentos/GER/SDP/SDP-2016/KDS/SDP-2016/Debug/../Generated_Code/BitIoLdd9.c:145
  return ((LDD_TDeviceData *)DeviceDataPrv);
    2c42:	68fb      	ldr	r3, [r7, #12]
/home/marcelo/Documentos/GER/SDP/SDP-2016/KDS/SDP-2016/Debug/../Generated_Code/BitIoLdd9.c:146
}
    2c44:	1c18      	adds	r0, r3, #0
    2c46:	46bd      	mov	sp, r7
    2c48:	b004      	add	sp, #16
    2c4a:	bd80      	pop	{r7, pc}
    2c4c:	1ffff0c4 	.word	0x1ffff0c4
    2c50:	400ff040 	.word	0x400ff040
    2c54:	4004a000 	.word	0x4004a000
    2c58:	fefff8ff 	.word	0xfefff8ff
    2c5c:	1ffff0cc 	.word	0x1ffff0cc

00002c60 <TimerIntLdd1_OnInterrupt>:
TimerIntLdd1_OnInterrupt():
**     Description :
**         This method is internal. It is used by Processor Expert only.
** ===================================================================
*/
void TimerIntLdd1_OnInterrupt(LDD_TUserData *UserDataPtr)
{
    2c60:	b580      	push	{r7, lr}
    2c62:	b082      	sub	sp, #8
    2c64:	af00      	add	r7, sp, #0
    2c66:	6078      	str	r0, [r7, #4]
/home/marcelo/Documentos/GER/SDP/SDP-2016/KDS/SDP-2016/Debug/../Generated_Code/Camera_CLK_Interruption.c:148
  (void)UserDataPtr;                   /* Parameter is not used, suppress unused argument warning */
  Camera_CLK_Interruption_OnInterrupt(); /* Invoke OnInterrupt event */
    2c68:	f7fe ff8e 	bl	1b88 <Camera_CLK_Interruption_OnInterrupt>
/home/marcelo/Documentos/GER/SDP/SDP-2016/KDS/SDP-2016/Debug/../Generated_Code/Camera_CLK_Interruption.c:149
}
    2c6c:	46bd      	mov	sp, r7
    2c6e:	b002      	add	sp, #8
    2c70:	bd80      	pop	{r7, pc}
    2c72:	46c0      	nop			; (mov r8, r8)

00002c74 <Cpu_INT_NMIInterrupt>:
Cpu_INT_NMIInterrupt():
/home/marcelo/Documentos/GER/SDP/SDP-2016/KDS/SDP-2016/Debug/../Generated_Code/Cpu.c:312
**         This ISR services the Non Maskable Interrupt interrupt.
**         This method is internal. It is used by Processor Expert only.
** ===================================================================
*/
PE_ISR(Cpu_INT_NMIInterrupt)
{
    2c74:	b580      	push	{r7, lr}
    2c76:	af00      	add	r7, sp, #0
/home/marcelo/Documentos/GER/SDP/SDP-2016/KDS/SDP-2016/Debug/../Generated_Code/Cpu.c:313
  Cpu_OnNMIINT();
    2c78:	f7fe ff82 	bl	1b80 <Cpu_OnNMIINT>
/home/marcelo/Documentos/GER/SDP/SDP-2016/KDS/SDP-2016/Debug/../Generated_Code/Cpu.c:314
}
    2c7c:	46bd      	mov	sp, r7
    2c7e:	bd80      	pop	{r7, pc}

00002c80 <Cpu_Interrupt>:
Cpu_Interrupt():
/home/marcelo/Documentos/GER/SDP/SDP-2016/KDS/SDP-2016/Debug/../Generated_Code/Cpu.c:326
**         This ISR services an unused interrupt/exception vector.
**         This method is internal. It is used by Processor Expert only.
** ===================================================================
*/
PE_ISR(Cpu_Interrupt)
{
    2c80:	b580      	push	{r7, lr}
    2c82:	af00      	add	r7, sp, #0
/home/marcelo/Documentos/GER/SDP/SDP-2016/KDS/SDP-2016/Debug/../Generated_Code/Cpu.c:328
  /* This code can be changed using the CPU component property "Build Options / Unhandled int code" */
  PE_DEBUGHALT();
    2c84:	beff      	bkpt	0x00ff
/home/marcelo/Documentos/GER/SDP/SDP-2016/KDS/SDP-2016/Debug/../Generated_Code/Cpu.c:329
}
    2c86:	46bd      	mov	sp, r7
    2c88:	bd80      	pop	{r7, pc}
    2c8a:	46c0      	nop			; (mov r8, r8)

00002c8c <__init_hardware>:
__init_hardware():
/home/marcelo/Documentos/GER/SDP/SDP-2016/KDS/SDP-2016/Debug/../Generated_Code/Cpu.c:337
/*** !!! Here you can place your own code using property "User data declarations" on the build options tab. !!! ***/

/*lint -esym(765,__init_hardware) Disable MISRA rule (8.10) checking for symbols (__init_hardware). The function is linked to the EWL library */
/*lint -esym(765,Cpu_Interrupt) Disable MISRA rule (8.10) checking for symbols (Cpu_Interrupt). */
void __init_hardware(void)
{
    2c8c:	b580      	push	{r7, lr}
    2c8e:	af00      	add	r7, sp, #0
/home/marcelo/Documentos/GER/SDP/SDP-2016/KDS/SDP-2016/Debug/../Generated_Code/Cpu.c:343

  /*** !!! Here you can place your own code before PE initialization using property "User code before PE initialization" on the build options tab. !!! ***/

  /*** ### MKL25Z128VLK4 "Cpu" init code ... ***/
  /*** PE initialization code after reset ***/
  SCB_VTOR = (uint32_t)(&__vect_table); /* Set the interrupt vector table position */
    2c90:	4a36      	ldr	r2, [pc, #216]	; (2d6c <__init_hardware+0xe0>)
    2c92:	4937      	ldr	r1, [pc, #220]	; (2d70 <__init_hardware+0xe4>)
    2c94:	4b37      	ldr	r3, [pc, #220]	; (2d74 <__init_hardware+0xe8>)
    2c96:	50d1      	str	r1, [r2, r3]
/home/marcelo/Documentos/GER/SDP/SDP-2016/KDS/SDP-2016/Debug/../Generated_Code/Cpu.c:346
  /* Disable the WDOG module */
  /* SIM_COPC: ??=0,??=0,??=0,??=0,??=0,??=0,??=0,??=0,??=0,??=0,??=0,??=0,??=0,??=0,??=0,??=0,??=0,??=0,??=0,??=0,??=0,??=0,??=0,??=0,??=0,??=0,??=0,??=0,COPT=0,COPCLKS=0,COPW=0 */
  SIM_COPC = SIM_COPC_COPT(0x00);
    2c98:	4a37      	ldr	r2, [pc, #220]	; (2d78 <__init_hardware+0xec>)
    2c9a:	2388      	movs	r3, #136	; 0x88
    2c9c:	015b      	lsls	r3, r3, #5
    2c9e:	2100      	movs	r1, #0
    2ca0:	50d1      	str	r1, [r2, r3]
/home/marcelo/Documentos/GER/SDP/SDP-2016/KDS/SDP-2016/Debug/../Generated_Code/Cpu.c:350

  /* System clock initialization */
  /* SIM_CLKDIV1: OUTDIV1=0,??=0,??=0,??=0,??=0,??=0,??=0,??=0,??=0,??=0,OUTDIV4=3,??=0,??=0,??=0,??=0,??=0,??=0,??=0,??=0,??=0,??=0,??=0,??=0,??=0,??=0,??=0,??=0 */
  SIM_CLKDIV1 = (SIM_CLKDIV1_OUTDIV1(0x00) | SIM_CLKDIV1_OUTDIV4(0x03)); /* Set the system prescalers to safe value */
    2ca2:	4a35      	ldr	r2, [pc, #212]	; (2d78 <__init_hardware+0xec>)
    2ca4:	4b35      	ldr	r3, [pc, #212]	; (2d7c <__init_hardware+0xf0>)
    2ca6:	21c0      	movs	r1, #192	; 0xc0
    2ca8:	0289      	lsls	r1, r1, #10
    2caa:	50d1      	str	r1, [r2, r3]
/home/marcelo/Documentos/GER/SDP/SDP-2016/KDS/SDP-2016/Debug/../Generated_Code/Cpu.c:352
  /* SIM_SCGC5: PORTE=1,PORTD=1,PORTC=1,PORTB=1,PORTA=1 */
  SIM_SCGC5 |= SIM_SCGC5_PORTE_MASK |
    2cac:	4a32      	ldr	r2, [pc, #200]	; (2d78 <__init_hardware+0xec>)
    2cae:	4932      	ldr	r1, [pc, #200]	; (2d78 <__init_hardware+0xec>)
    2cb0:	4b33      	ldr	r3, [pc, #204]	; (2d80 <__init_hardware+0xf4>)
    2cb2:	58cb      	ldr	r3, [r1, r3]
    2cb4:	21f8      	movs	r1, #248	; 0xf8
    2cb6:	0189      	lsls	r1, r1, #6
    2cb8:	4319      	orrs	r1, r3
    2cba:	4b31      	ldr	r3, [pc, #196]	; (2d80 <__init_hardware+0xf4>)
    2cbc:	50d1      	str	r1, [r2, r3]
/home/marcelo/Documentos/GER/SDP/SDP-2016/KDS/SDP-2016/Debug/../Generated_Code/Cpu.c:357
               SIM_SCGC5_PORTD_MASK |
               SIM_SCGC5_PORTC_MASK |
               SIM_SCGC5_PORTB_MASK |
               SIM_SCGC5_PORTA_MASK;   /* Enable clock gate for ports to enable pin routing */
  if ((PMC_REGSC & PMC_REGSC_ACKISO_MASK) != 0x0U) {
    2cbe:	4b31      	ldr	r3, [pc, #196]	; (2d84 <__init_hardware+0xf8>)
    2cc0:	789b      	ldrb	r3, [r3, #2]
    2cc2:	b2db      	uxtb	r3, r3
    2cc4:	1c1a      	adds	r2, r3, #0
    2cc6:	2308      	movs	r3, #8
    2cc8:	4013      	ands	r3, r2
    2cca:	d007      	beq.n	2cdc <__init_hardware+0x50>
/home/marcelo/Documentos/GER/SDP/SDP-2016/KDS/SDP-2016/Debug/../Generated_Code/Cpu.c:359
    /* PMC_REGSC: ACKISO=1 */
    PMC_REGSC |= PMC_REGSC_ACKISO_MASK; /* Release IO pads after wakeup from VLLS mode. */
    2ccc:	4b2d      	ldr	r3, [pc, #180]	; (2d84 <__init_hardware+0xf8>)
    2cce:	4a2d      	ldr	r2, [pc, #180]	; (2d84 <__init_hardware+0xf8>)
    2cd0:	7892      	ldrb	r2, [r2, #2]
    2cd2:	b2d2      	uxtb	r2, r2
    2cd4:	2108      	movs	r1, #8
    2cd6:	430a      	orrs	r2, r1
    2cd8:	b2d2      	uxtb	r2, r2
    2cda:	709a      	strb	r2, [r3, #2]
/home/marcelo/Documentos/GER/SDP/SDP-2016/KDS/SDP-2016/Debug/../Generated_Code/Cpu.c:362
  }
  /* SIM_CLKDIV1: OUTDIV1=0,??=0,??=0,??=0,??=0,??=0,??=0,??=0,??=0,??=0,OUTDIV4=0,??=0,??=0,??=0,??=0,??=0,??=0,??=0,??=0,??=0,??=0,??=0,??=0,??=0,??=0,??=0,??=0 */
  SIM_CLKDIV1 = (SIM_CLKDIV1_OUTDIV1(0x00) | SIM_CLKDIV1_OUTDIV4(0x00)); /* Update system prescalers */
    2cdc:	4a26      	ldr	r2, [pc, #152]	; (2d78 <__init_hardware+0xec>)
    2cde:	4b27      	ldr	r3, [pc, #156]	; (2d7c <__init_hardware+0xf0>)
    2ce0:	2100      	movs	r1, #0
    2ce2:	50d1      	str	r1, [r2, r3]
/home/marcelo/Documentos/GER/SDP/SDP-2016/KDS/SDP-2016/Debug/../Generated_Code/Cpu.c:364
  /* SIM_SOPT2: ??=0,PLLFLLSEL=0 */
  SIM_SOPT2 &= (uint32_t)~(uint32_t)((SIM_SOPT2_PLLFLLSEL_MASK | 0x00020000U)); /* Select FLL as a clock source for various peripherals */
    2ce4:	4a24      	ldr	r2, [pc, #144]	; (2d78 <__init_hardware+0xec>)
    2ce6:	4924      	ldr	r1, [pc, #144]	; (2d78 <__init_hardware+0xec>)
    2ce8:	4b27      	ldr	r3, [pc, #156]	; (2d88 <__init_hardware+0xfc>)
    2cea:	58c9      	ldr	r1, [r1, r3]
    2cec:	4b27      	ldr	r3, [pc, #156]	; (2d8c <__init_hardware+0x100>)
    2cee:	4019      	ands	r1, r3
    2cf0:	4b25      	ldr	r3, [pc, #148]	; (2d88 <__init_hardware+0xfc>)
    2cf2:	50d1      	str	r1, [r2, r3]
/home/marcelo/Documentos/GER/SDP/SDP-2016/KDS/SDP-2016/Debug/../Generated_Code/Cpu.c:366
  /* SIM_SOPT1: OSC32KSEL=3 */
  SIM_SOPT1 |= SIM_SOPT1_OSC32KSEL(0x03); /* LPO 1kHz oscillator drives 32 kHz clock for various peripherals */
    2cf4:	4b20      	ldr	r3, [pc, #128]	; (2d78 <__init_hardware+0xec>)
    2cf6:	4a20      	ldr	r2, [pc, #128]	; (2d78 <__init_hardware+0xec>)
    2cf8:	6812      	ldr	r2, [r2, #0]
    2cfa:	21c0      	movs	r1, #192	; 0xc0
    2cfc:	0309      	lsls	r1, r1, #12
    2cfe:	430a      	orrs	r2, r1
    2d00:	601a      	str	r2, [r3, #0]
/home/marcelo/Documentos/GER/SDP/SDP-2016/KDS/SDP-2016/Debug/../Generated_Code/Cpu.c:368
  /* SIM_SOPT2: TPMSRC=1 */
  SIM_SOPT2 = (uint32_t)((SIM_SOPT2 & (uint32_t)~(uint32_t)(
    2d02:	4a1d      	ldr	r2, [pc, #116]	; (2d78 <__init_hardware+0xec>)
    2d04:	491c      	ldr	r1, [pc, #112]	; (2d78 <__init_hardware+0xec>)
    2d06:	4b20      	ldr	r3, [pc, #128]	; (2d88 <__init_hardware+0xfc>)
    2d08:	58c9      	ldr	r1, [r1, r3]
    2d0a:	4b21      	ldr	r3, [pc, #132]	; (2d90 <__init_hardware+0x104>)
    2d0c:	400b      	ands	r3, r1
    2d0e:	2180      	movs	r1, #128	; 0x80
    2d10:	0449      	lsls	r1, r1, #17
    2d12:	4319      	orrs	r1, r3
    2d14:	4b1c      	ldr	r3, [pc, #112]	; (2d88 <__init_hardware+0xfc>)
    2d16:	50d1      	str	r1, [r2, r3]
/home/marcelo/Documentos/GER/SDP/SDP-2016/KDS/SDP-2016/Debug/../Generated_Code/Cpu.c:375
              )) | (uint32_t)(
               SIM_SOPT2_TPMSRC(0x01)
              ));                      /* Set the TPM clock */
  /* Switch to FEI Mode */
  /* MCG_C1: CLKS=0,FRDIV=0,IREFS=1,IRCLKEN=1,IREFSTEN=0 */
  MCG_C1 = MCG_C1_CLKS(0x00) |
    2d18:	4b1e      	ldr	r3, [pc, #120]	; (2d94 <__init_hardware+0x108>)
    2d1a:	2206      	movs	r2, #6
    2d1c:	701a      	strb	r2, [r3, #0]
/home/marcelo/Documentos/GER/SDP/SDP-2016/KDS/SDP-2016/Debug/../Generated_Code/Cpu.c:380
           MCG_C1_FRDIV(0x00) |
           MCG_C1_IREFS_MASK |
           MCG_C1_IRCLKEN_MASK;
  /* MCG_C2: LOCRE0=0,??=0,RANGE0=0,HGO0=0,EREFS0=0,LP=0,IRCS=0 */
  MCG_C2 = MCG_C2_RANGE0(0x00);
    2d1e:	4b1d      	ldr	r3, [pc, #116]	; (2d94 <__init_hardware+0x108>)
    2d20:	2200      	movs	r2, #0
    2d22:	705a      	strb	r2, [r3, #1]
/home/marcelo/Documentos/GER/SDP/SDP-2016/KDS/SDP-2016/Debug/../Generated_Code/Cpu.c:382
  /* MCG_C4: DMX32=0,DRST_DRS=0 */
  MCG_C4 &= (uint8_t)~(uint8_t)((MCG_C4_DMX32_MASK | MCG_C4_DRST_DRS(0x03)));
    2d24:	4b1b      	ldr	r3, [pc, #108]	; (2d94 <__init_hardware+0x108>)
    2d26:	4a1b      	ldr	r2, [pc, #108]	; (2d94 <__init_hardware+0x108>)
    2d28:	78d2      	ldrb	r2, [r2, #3]
    2d2a:	b2d1      	uxtb	r1, r2
    2d2c:	221f      	movs	r2, #31
    2d2e:	400a      	ands	r2, r1
    2d30:	b2d2      	uxtb	r2, r2
    2d32:	70da      	strb	r2, [r3, #3]
/home/marcelo/Documentos/GER/SDP/SDP-2016/KDS/SDP-2016/Debug/../Generated_Code/Cpu.c:384
  /* OSC0_CR: ERCLKEN=1,??=0,EREFSTEN=0,??=0,SC2P=0,SC4P=0,SC8P=0,SC16P=0 */
  OSC0_CR = OSC_CR_ERCLKEN_MASK;
    2d34:	4b18      	ldr	r3, [pc, #96]	; (2d98 <__init_hardware+0x10c>)
    2d36:	2280      	movs	r2, #128	; 0x80
    2d38:	701a      	strb	r2, [r3, #0]
/home/marcelo/Documentos/GER/SDP/SDP-2016/KDS/SDP-2016/Debug/../Generated_Code/Cpu.c:386
  /* MCG_C5: ??=0,PLLCLKEN0=0,PLLSTEN0=0,PRDIV0=0 */
  MCG_C5 = MCG_C5_PRDIV0(0x00);
    2d3a:	4b16      	ldr	r3, [pc, #88]	; (2d94 <__init_hardware+0x108>)
    2d3c:	2200      	movs	r2, #0
    2d3e:	711a      	strb	r2, [r3, #4]
/home/marcelo/Documentos/GER/SDP/SDP-2016/KDS/SDP-2016/Debug/../Generated_Code/Cpu.c:388
  /* MCG_C6: LOLIE0=0,PLLS=0,CME0=0,VDIV0=0 */
  MCG_C6 = MCG_C6_VDIV0(0x00);
    2d40:	4b14      	ldr	r3, [pc, #80]	; (2d94 <__init_hardware+0x108>)
    2d42:	2200      	movs	r2, #0
    2d44:	715a      	strb	r2, [r3, #5]
/home/marcelo/Documentos/GER/SDP/SDP-2016/KDS/SDP-2016/Debug/../Generated_Code/Cpu.c:389
  while((MCG_S & MCG_S_IREFST_MASK) == 0x00U) { /* Check that the source of the FLL reference clock is the internal reference clock. */
    2d46:	46c0      	nop			; (mov r8, r8)
/home/marcelo/Documentos/GER/SDP/SDP-2016/KDS/SDP-2016/Debug/../Generated_Code/Cpu.c:389 (discriminator 1)
    2d48:	4b12      	ldr	r3, [pc, #72]	; (2d94 <__init_hardware+0x108>)
    2d4a:	799b      	ldrb	r3, [r3, #6]
    2d4c:	b2db      	uxtb	r3, r3
    2d4e:	1c1a      	adds	r2, r3, #0
    2d50:	2310      	movs	r3, #16
    2d52:	4013      	ands	r3, r2
    2d54:	d0f8      	beq.n	2d48 <__init_hardware+0xbc>
/home/marcelo/Documentos/GER/SDP/SDP-2016/KDS/SDP-2016/Debug/../Generated_Code/Cpu.c:391
  }
  while((MCG_S & 0x0CU) != 0x00U) {    /* Wait until output of the FLL is selected */
    2d56:	46c0      	nop			; (mov r8, r8)
/home/marcelo/Documentos/GER/SDP/SDP-2016/KDS/SDP-2016/Debug/../Generated_Code/Cpu.c:391 (discriminator 1)
    2d58:	4b0e      	ldr	r3, [pc, #56]	; (2d94 <__init_hardware+0x108>)
    2d5a:	799b      	ldrb	r3, [r3, #6]
    2d5c:	b2db      	uxtb	r3, r3
    2d5e:	1c1a      	adds	r2, r3, #0
    2d60:	230c      	movs	r3, #12
    2d62:	4013      	ands	r3, r2
    2d64:	d1f8      	bne.n	2d58 <__init_hardware+0xcc>
/home/marcelo/Documentos/GER/SDP/SDP-2016/KDS/SDP-2016/Debug/../Generated_Code/Cpu.c:397
  }
  /*** End of PE initialization code after reset ***/

  /*** !!! Here you can place your own code after PE initialization using property "User code after PE initialization" on the build options tab. !!! ***/

}
    2d66:	46bd      	mov	sp, r7
    2d68:	bd80      	pop	{r7, pc}
    2d6a:	46c0      	nop			; (mov r8, r8)
    2d6c:	e000e000 	.word	0xe000e000
    2d70:	00000000 	.word	0x00000000
    2d74:	00000d08 	.word	0x00000d08
    2d78:	40047000 	.word	0x40047000
    2d7c:	00001044 	.word	0x00001044
    2d80:	00001038 	.word	0x00001038
    2d84:	4007d000 	.word	0x4007d000
    2d88:	00001004 	.word	0x00001004
    2d8c:	fffcffff 	.word	0xfffcffff
    2d90:	fcffffff 	.word	0xfcffffff
    2d94:	40064000 	.word	0x40064000
    2d98:	40065000 	.word	0x40065000

00002d9c <PE_low_level_init>:
PE_low_level_init():
/home/marcelo/Documentos/GER/SDP/SDP-2016/KDS/SDP-2016/Debug/../Generated_Code/Cpu.c:413
**         application initialization code.
**         This method is internal. It is used by Processor Expert only.
** ===================================================================
*/
void PE_low_level_init(void)
{
    2d9c:	b580      	push	{r7, lr}
    2d9e:	af00      	add	r7, sp, #0
/home/marcelo/Documentos/GER/SDP/SDP-2016/KDS/SDP-2016/Debug/../Generated_Code/Cpu.c:419
  #ifdef PEX_RTOS_INIT
    PEX_RTOS_INIT();                   /* Initialization of the selected RTOS. Macro is defined by the RTOS component. */
  #endif
      /* Initialization of the SIM module */
  /* PORTA_PCR4: ISF=0,MUX=7 */
  PORTA_PCR4 = (uint32_t)((PORTA_PCR4 & (uint32_t)~(uint32_t)(
    2da0:	4b44      	ldr	r3, [pc, #272]	; (2eb4 <PE_low_level_init+0x118>)
    2da2:	4a44      	ldr	r2, [pc, #272]	; (2eb4 <PE_low_level_init+0x118>)
    2da4:	6911      	ldr	r1, [r2, #16]
    2da6:	4a44      	ldr	r2, [pc, #272]	; (2eb8 <PE_low_level_init+0x11c>)
    2da8:	400a      	ands	r2, r1
    2daa:	21e0      	movs	r1, #224	; 0xe0
    2dac:	00c9      	lsls	r1, r1, #3
    2dae:	430a      	orrs	r2, r1
    2db0:	611a      	str	r2, [r3, #16]
/home/marcelo/Documentos/GER/SDP/SDP-2016/KDS/SDP-2016/Debug/../Generated_Code/Cpu.c:426
               )) | (uint32_t)(
                PORT_PCR_MUX(0x07)
               ));
        /* Initialization of the RCM module */
  /* RCM_RPFW: RSTFLTSEL=0 */
  RCM_RPFW &= (uint8_t)~(uint8_t)(RCM_RPFW_RSTFLTSEL(0x1F));
    2db2:	4b42      	ldr	r3, [pc, #264]	; (2ebc <PE_low_level_init+0x120>)
    2db4:	4a41      	ldr	r2, [pc, #260]	; (2ebc <PE_low_level_init+0x120>)
    2db6:	7952      	ldrb	r2, [r2, #5]
    2db8:	b2d2      	uxtb	r2, r2
    2dba:	211f      	movs	r1, #31
    2dbc:	438a      	bics	r2, r1
    2dbe:	b2d2      	uxtb	r2, r2
    2dc0:	715a      	strb	r2, [r3, #5]
/home/marcelo/Documentos/GER/SDP/SDP-2016/KDS/SDP-2016/Debug/../Generated_Code/Cpu.c:428
  /* RCM_RPFC: RSTFLTSS=0,RSTFLTSRW=0 */
  RCM_RPFC &= (uint8_t)~(uint8_t)(
    2dc2:	4b3e      	ldr	r3, [pc, #248]	; (2ebc <PE_low_level_init+0x120>)
    2dc4:	4a3d      	ldr	r2, [pc, #244]	; (2ebc <PE_low_level_init+0x120>)
    2dc6:	7912      	ldrb	r2, [r2, #4]
    2dc8:	b2d2      	uxtb	r2, r2
    2dca:	2107      	movs	r1, #7
    2dcc:	438a      	bics	r2, r1
    2dce:	b2d2      	uxtb	r2, r2
    2dd0:	711a      	strb	r2, [r3, #4]
/home/marcelo/Documentos/GER/SDP/SDP-2016/KDS/SDP-2016/Debug/../Generated_Code/Cpu.c:435
               RCM_RPFC_RSTFLTSRW(0x03)
              );
        /* Initialization of the FTFL_FlashConfig module */
      /* Initialization of the PMC module */
  /* PMC_LVDSC1: LVDACK=1,LVDIE=0,LVDRE=1,LVDV=0 */
  PMC_LVDSC1 = (uint8_t)((PMC_LVDSC1 & (uint8_t)~(uint8_t)(
    2dd2:	4b3b      	ldr	r3, [pc, #236]	; (2ec0 <PE_low_level_init+0x124>)
    2dd4:	4a3a      	ldr	r2, [pc, #232]	; (2ec0 <PE_low_level_init+0x124>)
    2dd6:	7812      	ldrb	r2, [r2, #0]
    2dd8:	b2d2      	uxtb	r2, r2
    2dda:	b2d2      	uxtb	r2, r2
    2ddc:	2173      	movs	r1, #115	; 0x73
    2dde:	438a      	bics	r2, r1
    2de0:	b2d2      	uxtb	r2, r2
    2de2:	2150      	movs	r1, #80	; 0x50
    2de4:	430a      	orrs	r2, r1
    2de6:	b2d2      	uxtb	r2, r2
    2de8:	b2d2      	uxtb	r2, r2
    2dea:	701a      	strb	r2, [r3, #0]
/home/marcelo/Documentos/GER/SDP/SDP-2016/KDS/SDP-2016/Debug/../Generated_Code/Cpu.c:443
               )) | (uint8_t)(
                PMC_LVDSC1_LVDACK_MASK |
                PMC_LVDSC1_LVDRE_MASK
               ));
  /* PMC_LVDSC2: LVWACK=1,LVWIE=0,LVWV=0 */
  PMC_LVDSC2 = (uint8_t)((PMC_LVDSC2 & (uint8_t)~(uint8_t)(
    2dec:	4b34      	ldr	r3, [pc, #208]	; (2ec0 <PE_low_level_init+0x124>)
    2dee:	4a34      	ldr	r2, [pc, #208]	; (2ec0 <PE_low_level_init+0x124>)
    2df0:	7852      	ldrb	r2, [r2, #1]
    2df2:	b2d2      	uxtb	r2, r2
    2df4:	b2d2      	uxtb	r2, r2
    2df6:	2163      	movs	r1, #99	; 0x63
    2df8:	438a      	bics	r2, r1
    2dfa:	b2d2      	uxtb	r2, r2
    2dfc:	2140      	movs	r1, #64	; 0x40
    2dfe:	430a      	orrs	r2, r1
    2e00:	b2d2      	uxtb	r2, r2
    2e02:	b2d2      	uxtb	r2, r2
    2e04:	705a      	strb	r2, [r3, #1]
/home/marcelo/Documentos/GER/SDP/SDP-2016/KDS/SDP-2016/Debug/../Generated_Code/Cpu.c:450
                PMC_LVDSC2_LVWV(0x03)
               )) | (uint8_t)(
                PMC_LVDSC2_LVWACK_MASK
               ));
  /* PMC_REGSC: BGEN=0,ACKISO=0,BGBE=0 */
  PMC_REGSC &= (uint8_t)~(uint8_t)(
    2e06:	4b2e      	ldr	r3, [pc, #184]	; (2ec0 <PE_low_level_init+0x124>)
    2e08:	4a2d      	ldr	r2, [pc, #180]	; (2ec0 <PE_low_level_init+0x124>)
    2e0a:	7892      	ldrb	r2, [r2, #2]
    2e0c:	b2d2      	uxtb	r2, r2
    2e0e:	2119      	movs	r1, #25
    2e10:	438a      	bics	r2, r1
    2e12:	b2d2      	uxtb	r2, r2
    2e14:	709a      	strb	r2, [r3, #2]
/home/marcelo/Documentos/GER/SDP/SDP-2016/KDS/SDP-2016/Debug/../Generated_Code/Cpu.c:456
                PMC_REGSC_BGEN_MASK |
                PMC_REGSC_ACKISO_MASK |
                PMC_REGSC_BGBE_MASK
               );
  /* SMC_PMPROT: ??=0,??=0,AVLP=0,??=0,ALLS=0,??=0,AVLLS=0,??=0 */
  SMC_PMPROT = 0x00U;                  /* Setup Power mode protection register */
    2e16:	4b2b      	ldr	r3, [pc, #172]	; (2ec4 <PE_low_level_init+0x128>)
    2e18:	2200      	movs	r2, #0
    2e1a:	701a      	strb	r2, [r3, #0]
/home/marcelo/Documentos/GER/SDP/SDP-2016/KDS/SDP-2016/Debug/../Generated_Code/Cpu.c:459
  /* Common initialization of the CPU registers */
  /* PORTA_PCR20: ISF=0,MUX=7 */
  PORTA_PCR20 = (uint32_t)((PORTA_PCR20 & (uint32_t)~(uint32_t)(
    2e1c:	4b25      	ldr	r3, [pc, #148]	; (2eb4 <PE_low_level_init+0x118>)
    2e1e:	4a25      	ldr	r2, [pc, #148]	; (2eb4 <PE_low_level_init+0x118>)
    2e20:	6d11      	ldr	r1, [r2, #80]	; 0x50
    2e22:	4a25      	ldr	r2, [pc, #148]	; (2eb8 <PE_low_level_init+0x11c>)
    2e24:	400a      	ands	r2, r1
    2e26:	21e0      	movs	r1, #224	; 0xe0
    2e28:	00c9      	lsls	r1, r1, #3
    2e2a:	430a      	orrs	r2, r1
    2e2c:	651a      	str	r2, [r3, #80]	; 0x50
/home/marcelo/Documentos/GER/SDP/SDP-2016/KDS/SDP-2016/Debug/../Generated_Code/Cpu.c:465
                 PORT_PCR_ISF_MASK
                )) | (uint32_t)(
                 PORT_PCR_MUX(0x07)
                ));
  /* NVIC_IPR1: PRI_6=0 */
  NVIC_IPR1 &= (uint32_t)~(uint32_t)(NVIC_IP_PRI_6(0xFF));
    2e2e:	4a26      	ldr	r2, [pc, #152]	; (2ec8 <PE_low_level_init+0x12c>)
    2e30:	4925      	ldr	r1, [pc, #148]	; (2ec8 <PE_low_level_init+0x12c>)
    2e32:	23c1      	movs	r3, #193	; 0xc1
    2e34:	009b      	lsls	r3, r3, #2
    2e36:	58c9      	ldr	r1, [r1, r3]
    2e38:	4b24      	ldr	r3, [pc, #144]	; (2ecc <PE_low_level_init+0x130>)
    2e3a:	4019      	ands	r1, r3
    2e3c:	23c1      	movs	r3, #193	; 0xc1
    2e3e:	009b      	lsls	r3, r3, #2
    2e40:	50d1      	str	r1, [r2, r3]
/home/marcelo/Documentos/GER/SDP/SDP-2016/KDS/SDP-2016/Debug/../Generated_Code/Cpu.c:467
  /* ### BitIO_LDD "BitIoLdd1" component auto initialization. Auto initialization feature can be disabled by component property "Auto initialization". */
  (void)BitIoLdd1_Init(NULL);
    2e42:	2000      	movs	r0, #0
    2e44:	f7ff fbd6 	bl	25f4 <BitIoLdd1_Init>
/home/marcelo/Documentos/GER/SDP/SDP-2016/KDS/SDP-2016/Debug/../Generated_Code/Cpu.c:469
  /* ### BitIO_LDD "BitIoLdd2" component auto initialization. Auto initialization feature can be disabled by component property "Auto initialization". */
  (void)BitIoLdd2_Init(NULL);
    2e48:	2000      	movs	r0, #0
    2e4a:	f7ff fc8f 	bl	276c <BitIoLdd2_Init>
/home/marcelo/Documentos/GER/SDP/SDP-2016/KDS/SDP-2016/Debug/../Generated_Code/Cpu.c:471
  /* ### TimerInt_LDD "TimerIntLdd1" component auto initialization. Auto initialization feature can be disabled by component property "Auto initialization". */
  (void)TimerIntLdd1_Init(NULL);
    2e4e:	2000      	movs	r0, #0
    2e50:	f000 fcd2 	bl	37f8 <TimerIntLdd1_Init>
/home/marcelo/Documentos/GER/SDP/SDP-2016/KDS/SDP-2016/Debug/../Generated_Code/Cpu.c:474
  /* ### TimerInt "Camera_CLK_Interruption" init code ... */
  /* ### ADC "AD_Converter" init code ... */
  AD_Converter_Init();
    2e54:	f7ff fa4c 	bl	22f0 <AD_Converter_Init>
/home/marcelo/Documentos/GER/SDP/SDP-2016/KDS/SDP-2016/Debug/../Generated_Code/Cpu.c:476
  /* ### BitIO_LDD "BitIoLdd4" component auto initialization. Auto initialization feature can be disabled by component property "Auto initialization". */
  (void)BitIoLdd4_Init(NULL);
    2e58:	2000      	movs	r0, #0
    2e5a:	f7ff fd23 	bl	28a4 <BitIoLdd4_Init>
/home/marcelo/Documentos/GER/SDP/SDP-2016/KDS/SDP-2016/Debug/../Generated_Code/Cpu.c:478
  /* ### PWM_LDD "PwmLdd1" component auto initialization. Auto initialization feature can be disabled by component property "Auto initialization". */
  (void)PwmLdd1_Init(NULL);
    2e5e:	2000      	movs	r0, #0
    2e60:	f000 f836 	bl	2ed0 <PwmLdd1_Init>
/home/marcelo/Documentos/GER/SDP/SDP-2016/KDS/SDP-2016/Debug/../Generated_Code/Cpu.c:480
  /* ### PWM_LDD "PwmLdd2" component auto initialization. Auto initialization feature can be disabled by component property "Auto initialization". */
  (void)PwmLdd2_Init(NULL);
    2e64:	2000      	movs	r0, #0
    2e66:	f000 f85f 	bl	2f28 <PwmLdd2_Init>
/home/marcelo/Documentos/GER/SDP/SDP-2016/KDS/SDP-2016/Debug/../Generated_Code/Cpu.c:482
  /* ### PWM_LDD "PwmLdd3" component auto initialization. Auto initialization feature can be disabled by component property "Auto initialization". */
  (void)PwmLdd3_Init(NULL);
    2e6a:	2000      	movs	r0, #0
    2e6c:	f000 f888 	bl	2f80 <PwmLdd3_Init>
/home/marcelo/Documentos/GER/SDP/SDP-2016/KDS/SDP-2016/Debug/../Generated_Code/Cpu.c:484
  /* ### PWM_LDD "PwmLdd4" component auto initialization. Auto initialization feature can be disabled by component property "Auto initialization". */
  (void)PwmLdd4_Init(NULL);
    2e70:	2000      	movs	r0, #0
    2e72:	f000 f8b1 	bl	2fd8 <PwmLdd4_Init>
/home/marcelo/Documentos/GER/SDP/SDP-2016/KDS/SDP-2016/Debug/../Generated_Code/Cpu.c:486
  /* ### PWM_LDD "PwmLdd5" component auto initialization. Auto initialization feature can be disabled by component property "Auto initialization". */
  (void)PwmLdd5_Init(NULL);
    2e76:	2000      	movs	r0, #0
    2e78:	f000 f8da 	bl	3030 <PwmLdd5_Init>
/home/marcelo/Documentos/GER/SDP/SDP-2016/KDS/SDP-2016/Debug/../Generated_Code/Cpu.c:488
  /* ### BitIO_LDD "BitIoLdd3" component auto initialization. Auto initialization feature can be disabled by component property "Auto initialization". */
  (void)BitIoLdd3_Init(NULL);
    2e7c:	2000      	movs	r0, #0
    2e7e:	f7ff fcd1 	bl	2824 <BitIoLdd3_Init>
/home/marcelo/Documentos/GER/SDP/SDP-2016/KDS/SDP-2016/Debug/../Generated_Code/Cpu.c:490
  /* ### BitIO_LDD "BitIoLdd5" component auto initialization. Auto initialization feature can be disabled by component property "Auto initialization". */
  (void)BitIoLdd5_Init(NULL);
    2e82:	2000      	movs	r0, #0
    2e84:	f7ff fd50 	bl	2928 <BitIoLdd5_Init>
/home/marcelo/Documentos/GER/SDP/SDP-2016/KDS/SDP-2016/Debug/../Generated_Code/Cpu.c:492
  /* ### BitIO_LDD "BitIoLdd6" component auto initialization. Auto initialization feature can be disabled by component property "Auto initialization". */
  (void)BitIoLdd6_Init(NULL);
    2e88:	2000      	movs	r0, #0
    2e8a:	f7ff fd9d 	bl	29c8 <BitIoLdd6_Init>
/home/marcelo/Documentos/GER/SDP/SDP-2016/KDS/SDP-2016/Debug/../Generated_Code/Cpu.c:494
  /* ### BitIO_LDD "BitIoLdd7" component auto initialization. Auto initialization feature can be disabled by component property "Auto initialization". */
  (void)BitIoLdd7_Init(NULL);
    2e8e:	2000      	movs	r0, #0
    2e90:	f7ff fdf8 	bl	2a84 <BitIoLdd7_Init>
/home/marcelo/Documentos/GER/SDP/SDP-2016/KDS/SDP-2016/Debug/../Generated_Code/Cpu.c:496
  /* ### BitIO_LDD "BitIoLdd8" component auto initialization. Auto initialization feature can be disabled by component property "Auto initialization". */
  (void)BitIoLdd8_Init(NULL);
    2e94:	2000      	movs	r0, #0
    2e96:	f7ff fe53 	bl	2b40 <BitIoLdd8_Init>
/home/marcelo/Documentos/GER/SDP/SDP-2016/KDS/SDP-2016/Debug/../Generated_Code/Cpu.c:498
  /* ### BitIO_LDD "BitIoLdd9" component auto initialization. Auto initialization feature can be disabled by component property "Auto initialization". */
  (void)BitIoLdd9_Init(NULL);
    2e9a:	2000      	movs	r0, #0
    2e9c:	f7ff feae 	bl	2bfc <BitIoLdd9_Init>
/home/marcelo/Documentos/GER/SDP/SDP-2016/KDS/SDP-2016/Debug/../Generated_Code/Cpu.c:500
  /* ### BitIO_LDD "BitIoLdd10" component auto initialization. Auto initialization feature can be disabled by component property "Auto initialization". */
  (void)BitIoLdd10_Init(NULL);
    2ea0:	2000      	movs	r0, #0
    2ea2:	f7ff fc03 	bl	26ac <BitIoLdd10_Init>
/home/marcelo/Documentos/GER/SDP/SDP-2016/KDS/SDP-2016/Debug/../Generated_Code/Cpu.c:502
  /* ### BitIO_LDD "BitIoLdd11" component auto initialization. Auto initialization feature can be disabled by component property "Auto initialization". */
  (void)BitIoLdd11_Init(NULL);
    2ea6:	2000      	movs	r0, #0
    2ea8:	f7ff fc30 	bl	270c <BitIoLdd11_Init>
/home/marcelo/Documentos/GER/SDP/SDP-2016/KDS/SDP-2016/Debug/../Generated_Code/Cpu.c:503
  __EI();
    2eac:	b662      	cpsie	i
/home/marcelo/Documentos/GER/SDP/SDP-2016/KDS/SDP-2016/Debug/../Generated_Code/Cpu.c:504
}
    2eae:	46bd      	mov	sp, r7
    2eb0:	bd80      	pop	{r7, pc}
    2eb2:	46c0      	nop			; (mov r8, r8)
    2eb4:	40049000 	.word	0x40049000
    2eb8:	fefff8ff 	.word	0xfefff8ff
    2ebc:	4007f000 	.word	0x4007f000
    2ec0:	4007d000 	.word	0x4007d000
    2ec4:	4007e000 	.word	0x4007e000
    2ec8:	e000e100 	.word	0xe000e100
    2ecc:	ff3fffff 	.word	0xff3fffff

00002ed0 <PwmLdd1_Init>:
PwmLdd1_Init():
/home/marcelo/Documentos/GER/SDP/SDP-2016/KDS/SDP-2016/Debug/../Generated_Code/PwmLdd1.c:143
**                         - Pointer to the dynamically allocated private
**                           structure or NULL if there was an error.
*/
/* ===================================================================*/
LDD_TDeviceData* PwmLdd1_Init(LDD_TUserData *UserDataPtr)
{
    2ed0:	b580      	push	{r7, lr}
    2ed2:	b084      	sub	sp, #16
    2ed4:	af00      	add	r7, sp, #0
    2ed6:	6078      	str	r0, [r7, #4]
/home/marcelo/Documentos/GER/SDP/SDP-2016/KDS/SDP-2016/Debug/../Generated_Code/PwmLdd1.c:147
  /* Allocate device structure */
  PwmLdd1_TDeviceData *DeviceDataPrv;
  /* {Default RTOS Adapter} Driver memory allocation: Dynamic allocation is simulated by a pointer to the static object */
  DeviceDataPrv = &DeviceDataPrv__DEFAULT_RTOS_ALLOC;
    2ed8:	4b11      	ldr	r3, [pc, #68]	; (2f20 <PwmLdd1_Init+0x50>)
    2eda:	60fb      	str	r3, [r7, #12]
/home/marcelo/Documentos/GER/SDP/SDP-2016/KDS/SDP-2016/Debug/../Generated_Code/PwmLdd1.c:148
  DeviceDataPrv->UserDataPtr = UserDataPtr; /* Store the RTOS device structure */
    2edc:	68fb      	ldr	r3, [r7, #12]
    2ede:	687a      	ldr	r2, [r7, #4]
    2ee0:	609a      	str	r2, [r3, #8]
/home/marcelo/Documentos/GER/SDP/SDP-2016/KDS/SDP-2016/Debug/../Generated_Code/PwmLdd1.c:149
  DeviceDataPrv->EnUser = TRUE;        /* Set the flag "device enabled" */
    2ee2:	68fb      	ldr	r3, [r7, #12]
    2ee4:	2201      	movs	r2, #1
    2ee6:	711a      	strb	r2, [r3, #4]
/home/marcelo/Documentos/GER/SDP/SDP-2016/KDS/SDP-2016/Debug/../Generated_Code/PwmLdd1.c:150
  DeviceDataPrv->RatioStore = 0xFFFFU; /* Ratio after initialization */
    2ee8:	68fb      	ldr	r3, [r7, #12]
    2eea:	2201      	movs	r2, #1
    2eec:	4252      	negs	r2, r2
    2eee:	80da      	strh	r2, [r3, #6]
/home/marcelo/Documentos/GER/SDP/SDP-2016/KDS/SDP-2016/Debug/../Generated_Code/PwmLdd1.c:152
  /* Registration of the device structure */
  PE_LDD_RegisterDeviceStructure(PE_LDD_COMPONENT_PwmLdd1_ID,DeviceDataPrv);
    2ef0:	4b0c      	ldr	r3, [pc, #48]	; (2f24 <PwmLdd1_Init+0x54>)
    2ef2:	68fa      	ldr	r2, [r7, #12]
    2ef4:	621a      	str	r2, [r3, #32]
/home/marcelo/Documentos/GER/SDP/SDP-2016/KDS/SDP-2016/Debug/../Generated_Code/PwmLdd1.c:153
  DeviceDataPrv->LinkedDeviceDataPtr = TU2_Init((LDD_TUserData *)NULL);
    2ef6:	2000      	movs	r0, #0
    2ef8:	f000 fb66 	bl	35c8 <TU2_Init>
    2efc:	1c02      	adds	r2, r0, #0
    2efe:	68fb      	ldr	r3, [r7, #12]
    2f00:	601a      	str	r2, [r3, #0]
/home/marcelo/Documentos/GER/SDP/SDP-2016/KDS/SDP-2016/Debug/../Generated_Code/PwmLdd1.c:154
  if (DeviceDataPrv->LinkedDeviceDataPtr == NULL) { /* Is initialization of TimerUnit unsuccessful? */
    2f02:	68fb      	ldr	r3, [r7, #12]
    2f04:	681b      	ldr	r3, [r3, #0]
    2f06:	2b00      	cmp	r3, #0
    2f08:	d104      	bne.n	2f14 <PwmLdd1_Init+0x44>
/home/marcelo/Documentos/GER/SDP/SDP-2016/KDS/SDP-2016/Debug/../Generated_Code/PwmLdd1.c:156
    /* Unregistration of the device structure */
    PE_LDD_UnregisterDeviceStructure(PE_LDD_COMPONENT_PwmLdd1_ID);
    2f0a:	4b06      	ldr	r3, [pc, #24]	; (2f24 <PwmLdd1_Init+0x54>)
    2f0c:	2200      	movs	r2, #0
    2f0e:	621a      	str	r2, [r3, #32]
/home/marcelo/Documentos/GER/SDP/SDP-2016/KDS/SDP-2016/Debug/../Generated_Code/PwmLdd1.c:159
    /* Deallocation of the device structure */
    /* {Default RTOS Adapter} Driver memory deallocation: Dynamic allocation is simulated, no deallocation code is generated */
    return NULL;                       /* If so, then the PWM initialization is also unsuccessful */
    2f10:	2300      	movs	r3, #0
    2f12:	e000      	b.n	2f16 <PwmLdd1_Init+0x46>
/home/marcelo/Documentos/GER/SDP/SDP-2016/KDS/SDP-2016/Debug/../Generated_Code/PwmLdd1.c:161
  }
  return ((LDD_TDeviceData *)DeviceDataPrv); /* Return pointer to the device data structure */
    2f14:	68fb      	ldr	r3, [r7, #12]
/home/marcelo/Documentos/GER/SDP/SDP-2016/KDS/SDP-2016/Debug/../Generated_Code/PwmLdd1.c:162
}
    2f16:	1c18      	adds	r0, r3, #0
    2f18:	46bd      	mov	sp, r7
    2f1a:	b004      	add	sp, #16
    2f1c:	bd80      	pop	{r7, pc}
    2f1e:	46c0      	nop			; (mov r8, r8)
    2f20:	1ffff124 	.word	0x1ffff124
    2f24:	1ffff0cc 	.word	0x1ffff0cc

00002f28 <PwmLdd2_Init>:
PwmLdd2_Init():
/home/marcelo/Documentos/GER/SDP/SDP-2016/KDS/SDP-2016/Debug/../Generated_Code/PwmLdd2.c:143
**                         - Pointer to the dynamically allocated private
**                           structure or NULL if there was an error.
*/
/* ===================================================================*/
LDD_TDeviceData* PwmLdd2_Init(LDD_TUserData *UserDataPtr)
{
    2f28:	b580      	push	{r7, lr}
    2f2a:	b084      	sub	sp, #16
    2f2c:	af00      	add	r7, sp, #0
    2f2e:	6078      	str	r0, [r7, #4]
/home/marcelo/Documentos/GER/SDP/SDP-2016/KDS/SDP-2016/Debug/../Generated_Code/PwmLdd2.c:147
  /* Allocate device structure */
  PwmLdd2_TDeviceData *DeviceDataPrv;
  /* {Default RTOS Adapter} Driver memory allocation: Dynamic allocation is simulated by a pointer to the static object */
  DeviceDataPrv = &DeviceDataPrv__DEFAULT_RTOS_ALLOC;
    2f30:	4b11      	ldr	r3, [pc, #68]	; (2f78 <PwmLdd2_Init+0x50>)
    2f32:	60fb      	str	r3, [r7, #12]
/home/marcelo/Documentos/GER/SDP/SDP-2016/KDS/SDP-2016/Debug/../Generated_Code/PwmLdd2.c:148
  DeviceDataPrv->UserDataPtr = UserDataPtr; /* Store the RTOS device structure */
    2f34:	68fb      	ldr	r3, [r7, #12]
    2f36:	687a      	ldr	r2, [r7, #4]
    2f38:	609a      	str	r2, [r3, #8]
/home/marcelo/Documentos/GER/SDP/SDP-2016/KDS/SDP-2016/Debug/../Generated_Code/PwmLdd2.c:149
  DeviceDataPrv->EnUser = TRUE;        /* Set the flag "device enabled" */
    2f3a:	68fb      	ldr	r3, [r7, #12]
    2f3c:	2201      	movs	r2, #1
    2f3e:	711a      	strb	r2, [r3, #4]
/home/marcelo/Documentos/GER/SDP/SDP-2016/KDS/SDP-2016/Debug/../Generated_Code/PwmLdd2.c:150
  DeviceDataPrv->RatioStore = 0xFFFFU; /* Ratio after initialization */
    2f40:	68fb      	ldr	r3, [r7, #12]
    2f42:	2201      	movs	r2, #1
    2f44:	4252      	negs	r2, r2
    2f46:	80da      	strh	r2, [r3, #6]
/home/marcelo/Documentos/GER/SDP/SDP-2016/KDS/SDP-2016/Debug/../Generated_Code/PwmLdd2.c:152
  /* Registration of the device structure */
  PE_LDD_RegisterDeviceStructure(PE_LDD_COMPONENT_PwmLdd2_ID,DeviceDataPrv);
    2f48:	4b0c      	ldr	r3, [pc, #48]	; (2f7c <PwmLdd2_Init+0x54>)
    2f4a:	68fa      	ldr	r2, [r7, #12]
    2f4c:	625a      	str	r2, [r3, #36]	; 0x24
/home/marcelo/Documentos/GER/SDP/SDP-2016/KDS/SDP-2016/Debug/../Generated_Code/PwmLdd2.c:153
  DeviceDataPrv->LinkedDeviceDataPtr = TU2_Init((LDD_TUserData *)NULL);
    2f4e:	2000      	movs	r0, #0
    2f50:	f000 fb3a 	bl	35c8 <TU2_Init>
    2f54:	1c02      	adds	r2, r0, #0
    2f56:	68fb      	ldr	r3, [r7, #12]
    2f58:	601a      	str	r2, [r3, #0]
/home/marcelo/Documentos/GER/SDP/SDP-2016/KDS/SDP-2016/Debug/../Generated_Code/PwmLdd2.c:154
  if (DeviceDataPrv->LinkedDeviceDataPtr == NULL) { /* Is initialization of TimerUnit unsuccessful? */
    2f5a:	68fb      	ldr	r3, [r7, #12]
    2f5c:	681b      	ldr	r3, [r3, #0]
    2f5e:	2b00      	cmp	r3, #0
    2f60:	d104      	bne.n	2f6c <PwmLdd2_Init+0x44>
/home/marcelo/Documentos/GER/SDP/SDP-2016/KDS/SDP-2016/Debug/../Generated_Code/PwmLdd2.c:156
    /* Unregistration of the device structure */
    PE_LDD_UnregisterDeviceStructure(PE_LDD_COMPONENT_PwmLdd2_ID);
    2f62:	4b06      	ldr	r3, [pc, #24]	; (2f7c <PwmLdd2_Init+0x54>)
    2f64:	2200      	movs	r2, #0
    2f66:	625a      	str	r2, [r3, #36]	; 0x24
/home/marcelo/Documentos/GER/SDP/SDP-2016/KDS/SDP-2016/Debug/../Generated_Code/PwmLdd2.c:159
    /* Deallocation of the device structure */
    /* {Default RTOS Adapter} Driver memory deallocation: Dynamic allocation is simulated, no deallocation code is generated */
    return NULL;                       /* If so, then the PWM initialization is also unsuccessful */
    2f68:	2300      	movs	r3, #0
    2f6a:	e000      	b.n	2f6e <PwmLdd2_Init+0x46>
/home/marcelo/Documentos/GER/SDP/SDP-2016/KDS/SDP-2016/Debug/../Generated_Code/PwmLdd2.c:161
  }
  return ((LDD_TDeviceData *)DeviceDataPrv); /* Return pointer to the device data structure */
    2f6c:	68fb      	ldr	r3, [r7, #12]
/home/marcelo/Documentos/GER/SDP/SDP-2016/KDS/SDP-2016/Debug/../Generated_Code/PwmLdd2.c:162
}
    2f6e:	1c18      	adds	r0, r3, #0
    2f70:	46bd      	mov	sp, r7
    2f72:	b004      	add	sp, #16
    2f74:	bd80      	pop	{r7, pc}
    2f76:	46c0      	nop			; (mov r8, r8)
    2f78:	1ffff130 	.word	0x1ffff130
    2f7c:	1ffff0cc 	.word	0x1ffff0cc

00002f80 <PwmLdd3_Init>:
PwmLdd3_Init():
/home/marcelo/Documentos/GER/SDP/SDP-2016/KDS/SDP-2016/Debug/../Generated_Code/PwmLdd3.c:143
**                         - Pointer to the dynamically allocated private
**                           structure or NULL if there was an error.
*/
/* ===================================================================*/
LDD_TDeviceData* PwmLdd3_Init(LDD_TUserData *UserDataPtr)
{
    2f80:	b580      	push	{r7, lr}
    2f82:	b084      	sub	sp, #16
    2f84:	af00      	add	r7, sp, #0
    2f86:	6078      	str	r0, [r7, #4]
/home/marcelo/Documentos/GER/SDP/SDP-2016/KDS/SDP-2016/Debug/../Generated_Code/PwmLdd3.c:147
  /* Allocate device structure */
  PwmLdd3_TDeviceData *DeviceDataPrv;
  /* {Default RTOS Adapter} Driver memory allocation: Dynamic allocation is simulated by a pointer to the static object */
  DeviceDataPrv = &DeviceDataPrv__DEFAULT_RTOS_ALLOC;
    2f88:	4b11      	ldr	r3, [pc, #68]	; (2fd0 <PwmLdd3_Init+0x50>)
    2f8a:	60fb      	str	r3, [r7, #12]
/home/marcelo/Documentos/GER/SDP/SDP-2016/KDS/SDP-2016/Debug/../Generated_Code/PwmLdd3.c:148
  DeviceDataPrv->UserDataPtr = UserDataPtr; /* Store the RTOS device structure */
    2f8c:	68fb      	ldr	r3, [r7, #12]
    2f8e:	687a      	ldr	r2, [r7, #4]
    2f90:	609a      	str	r2, [r3, #8]
/home/marcelo/Documentos/GER/SDP/SDP-2016/KDS/SDP-2016/Debug/../Generated_Code/PwmLdd3.c:149
  DeviceDataPrv->EnUser = TRUE;        /* Set the flag "device enabled" */
    2f92:	68fb      	ldr	r3, [r7, #12]
    2f94:	2201      	movs	r2, #1
    2f96:	711a      	strb	r2, [r3, #4]
/home/marcelo/Documentos/GER/SDP/SDP-2016/KDS/SDP-2016/Debug/../Generated_Code/PwmLdd3.c:150
  DeviceDataPrv->RatioStore = 0xFFFFU; /* Ratio after initialization */
    2f98:	68fb      	ldr	r3, [r7, #12]
    2f9a:	2201      	movs	r2, #1
    2f9c:	4252      	negs	r2, r2
    2f9e:	80da      	strh	r2, [r3, #6]
/home/marcelo/Documentos/GER/SDP/SDP-2016/KDS/SDP-2016/Debug/../Generated_Code/PwmLdd3.c:152
  /* Registration of the device structure */
  PE_LDD_RegisterDeviceStructure(PE_LDD_COMPONENT_PwmLdd3_ID,DeviceDataPrv);
    2fa0:	4b0c      	ldr	r3, [pc, #48]	; (2fd4 <PwmLdd3_Init+0x54>)
    2fa2:	68fa      	ldr	r2, [r7, #12]
    2fa4:	629a      	str	r2, [r3, #40]	; 0x28
/home/marcelo/Documentos/GER/SDP/SDP-2016/KDS/SDP-2016/Debug/../Generated_Code/PwmLdd3.c:153
  DeviceDataPrv->LinkedDeviceDataPtr = TU2_Init((LDD_TUserData *)NULL);
    2fa6:	2000      	movs	r0, #0
    2fa8:	f000 fb0e 	bl	35c8 <TU2_Init>
    2fac:	1c02      	adds	r2, r0, #0
    2fae:	68fb      	ldr	r3, [r7, #12]
    2fb0:	601a      	str	r2, [r3, #0]
/home/marcelo/Documentos/GER/SDP/SDP-2016/KDS/SDP-2016/Debug/../Generated_Code/PwmLdd3.c:154
  if (DeviceDataPrv->LinkedDeviceDataPtr == NULL) { /* Is initialization of TimerUnit unsuccessful? */
    2fb2:	68fb      	ldr	r3, [r7, #12]
    2fb4:	681b      	ldr	r3, [r3, #0]
    2fb6:	2b00      	cmp	r3, #0
    2fb8:	d104      	bne.n	2fc4 <PwmLdd3_Init+0x44>
/home/marcelo/Documentos/GER/SDP/SDP-2016/KDS/SDP-2016/Debug/../Generated_Code/PwmLdd3.c:156
    /* Unregistration of the device structure */
    PE_LDD_UnregisterDeviceStructure(PE_LDD_COMPONENT_PwmLdd3_ID);
    2fba:	4b06      	ldr	r3, [pc, #24]	; (2fd4 <PwmLdd3_Init+0x54>)
    2fbc:	2200      	movs	r2, #0
    2fbe:	629a      	str	r2, [r3, #40]	; 0x28
/home/marcelo/Documentos/GER/SDP/SDP-2016/KDS/SDP-2016/Debug/../Generated_Code/PwmLdd3.c:159
    /* Deallocation of the device structure */
    /* {Default RTOS Adapter} Driver memory deallocation: Dynamic allocation is simulated, no deallocation code is generated */
    return NULL;                       /* If so, then the PWM initialization is also unsuccessful */
    2fc0:	2300      	movs	r3, #0
    2fc2:	e000      	b.n	2fc6 <PwmLdd3_Init+0x46>
/home/marcelo/Documentos/GER/SDP/SDP-2016/KDS/SDP-2016/Debug/../Generated_Code/PwmLdd3.c:161
  }
  return ((LDD_TDeviceData *)DeviceDataPrv); /* Return pointer to the device data structure */
    2fc4:	68fb      	ldr	r3, [r7, #12]
/home/marcelo/Documentos/GER/SDP/SDP-2016/KDS/SDP-2016/Debug/../Generated_Code/PwmLdd3.c:162
}
    2fc6:	1c18      	adds	r0, r3, #0
    2fc8:	46bd      	mov	sp, r7
    2fca:	b004      	add	sp, #16
    2fcc:	bd80      	pop	{r7, pc}
    2fce:	46c0      	nop			; (mov r8, r8)
    2fd0:	1ffff13c 	.word	0x1ffff13c
    2fd4:	1ffff0cc 	.word	0x1ffff0cc

00002fd8 <PwmLdd4_Init>:
PwmLdd4_Init():
/home/marcelo/Documentos/GER/SDP/SDP-2016/KDS/SDP-2016/Debug/../Generated_Code/PwmLdd4.c:143
**                         - Pointer to the dynamically allocated private
**                           structure or NULL if there was an error.
*/
/* ===================================================================*/
LDD_TDeviceData* PwmLdd4_Init(LDD_TUserData *UserDataPtr)
{
    2fd8:	b580      	push	{r7, lr}
    2fda:	b084      	sub	sp, #16
    2fdc:	af00      	add	r7, sp, #0
    2fde:	6078      	str	r0, [r7, #4]
/home/marcelo/Documentos/GER/SDP/SDP-2016/KDS/SDP-2016/Debug/../Generated_Code/PwmLdd4.c:147
  /* Allocate device structure */
  PwmLdd4_TDeviceData *DeviceDataPrv;
  /* {Default RTOS Adapter} Driver memory allocation: Dynamic allocation is simulated by a pointer to the static object */
  DeviceDataPrv = &DeviceDataPrv__DEFAULT_RTOS_ALLOC;
    2fe0:	4b11      	ldr	r3, [pc, #68]	; (3028 <PwmLdd4_Init+0x50>)
    2fe2:	60fb      	str	r3, [r7, #12]
/home/marcelo/Documentos/GER/SDP/SDP-2016/KDS/SDP-2016/Debug/../Generated_Code/PwmLdd4.c:148
  DeviceDataPrv->UserDataPtr = UserDataPtr; /* Store the RTOS device structure */
    2fe4:	68fb      	ldr	r3, [r7, #12]
    2fe6:	687a      	ldr	r2, [r7, #4]
    2fe8:	609a      	str	r2, [r3, #8]
/home/marcelo/Documentos/GER/SDP/SDP-2016/KDS/SDP-2016/Debug/../Generated_Code/PwmLdd4.c:149
  DeviceDataPrv->EnUser = TRUE;        /* Set the flag "device enabled" */
    2fea:	68fb      	ldr	r3, [r7, #12]
    2fec:	2201      	movs	r2, #1
    2fee:	711a      	strb	r2, [r3, #4]
/home/marcelo/Documentos/GER/SDP/SDP-2016/KDS/SDP-2016/Debug/../Generated_Code/PwmLdd4.c:150
  DeviceDataPrv->RatioStore = 0xFFFFU; /* Ratio after initialization */
    2ff0:	68fb      	ldr	r3, [r7, #12]
    2ff2:	2201      	movs	r2, #1
    2ff4:	4252      	negs	r2, r2
    2ff6:	80da      	strh	r2, [r3, #6]
/home/marcelo/Documentos/GER/SDP/SDP-2016/KDS/SDP-2016/Debug/../Generated_Code/PwmLdd4.c:152
  /* Registration of the device structure */
  PE_LDD_RegisterDeviceStructure(PE_LDD_COMPONENT_PwmLdd4_ID,DeviceDataPrv);
    2ff8:	4b0c      	ldr	r3, [pc, #48]	; (302c <PwmLdd4_Init+0x54>)
    2ffa:	68fa      	ldr	r2, [r7, #12]
    2ffc:	62da      	str	r2, [r3, #44]	; 0x2c
/home/marcelo/Documentos/GER/SDP/SDP-2016/KDS/SDP-2016/Debug/../Generated_Code/PwmLdd4.c:153
  DeviceDataPrv->LinkedDeviceDataPtr = TU2_Init((LDD_TUserData *)NULL);
    2ffe:	2000      	movs	r0, #0
    3000:	f000 fae2 	bl	35c8 <TU2_Init>
    3004:	1c02      	adds	r2, r0, #0
    3006:	68fb      	ldr	r3, [r7, #12]
    3008:	601a      	str	r2, [r3, #0]
/home/marcelo/Documentos/GER/SDP/SDP-2016/KDS/SDP-2016/Debug/../Generated_Code/PwmLdd4.c:154
  if (DeviceDataPrv->LinkedDeviceDataPtr == NULL) { /* Is initialization of TimerUnit unsuccessful? */
    300a:	68fb      	ldr	r3, [r7, #12]
    300c:	681b      	ldr	r3, [r3, #0]
    300e:	2b00      	cmp	r3, #0
    3010:	d104      	bne.n	301c <PwmLdd4_Init+0x44>
/home/marcelo/Documentos/GER/SDP/SDP-2016/KDS/SDP-2016/Debug/../Generated_Code/PwmLdd4.c:156
    /* Unregistration of the device structure */
    PE_LDD_UnregisterDeviceStructure(PE_LDD_COMPONENT_PwmLdd4_ID);
    3012:	4b06      	ldr	r3, [pc, #24]	; (302c <PwmLdd4_Init+0x54>)
    3014:	2200      	movs	r2, #0
    3016:	62da      	str	r2, [r3, #44]	; 0x2c
/home/marcelo/Documentos/GER/SDP/SDP-2016/KDS/SDP-2016/Debug/../Generated_Code/PwmLdd4.c:159
    /* Deallocation of the device structure */
    /* {Default RTOS Adapter} Driver memory deallocation: Dynamic allocation is simulated, no deallocation code is generated */
    return NULL;                       /* If so, then the PWM initialization is also unsuccessful */
    3018:	2300      	movs	r3, #0
    301a:	e000      	b.n	301e <PwmLdd4_Init+0x46>
/home/marcelo/Documentos/GER/SDP/SDP-2016/KDS/SDP-2016/Debug/../Generated_Code/PwmLdd4.c:161
  }
  return ((LDD_TDeviceData *)DeviceDataPrv); /* Return pointer to the device data structure */
    301c:	68fb      	ldr	r3, [r7, #12]
/home/marcelo/Documentos/GER/SDP/SDP-2016/KDS/SDP-2016/Debug/../Generated_Code/PwmLdd4.c:162
}
    301e:	1c18      	adds	r0, r3, #0
    3020:	46bd      	mov	sp, r7
    3022:	b004      	add	sp, #16
    3024:	bd80      	pop	{r7, pc}
    3026:	46c0      	nop			; (mov r8, r8)
    3028:	1ffff148 	.word	0x1ffff148
    302c:	1ffff0cc 	.word	0x1ffff0cc

00003030 <PwmLdd5_Init>:
PwmLdd5_Init():
/home/marcelo/Documentos/GER/SDP/SDP-2016/KDS/SDP-2016/Debug/../Generated_Code/PwmLdd5.c:147
**                         - Pointer to the dynamically allocated private
**                           structure or NULL if there was an error.
*/
/* ===================================================================*/
LDD_TDeviceData* PwmLdd5_Init(LDD_TUserData *UserDataPtr)
{
    3030:	b580      	push	{r7, lr}
    3032:	b084      	sub	sp, #16
    3034:	af00      	add	r7, sp, #0
    3036:	6078      	str	r0, [r7, #4]
/home/marcelo/Documentos/GER/SDP/SDP-2016/KDS/SDP-2016/Debug/../Generated_Code/PwmLdd5.c:151
  /* Allocate device structure */
  PwmLdd5_TDeviceData *DeviceDataPrv;
  /* {Default RTOS Adapter} Driver memory allocation: Dynamic allocation is simulated by a pointer to the static object */
  DeviceDataPrv = &DeviceDataPrv__DEFAULT_RTOS_ALLOC;
    3038:	4b10      	ldr	r3, [pc, #64]	; (307c <PwmLdd5_Init+0x4c>)
    303a:	60fb      	str	r3, [r7, #12]
/home/marcelo/Documentos/GER/SDP/SDP-2016/KDS/SDP-2016/Debug/../Generated_Code/PwmLdd5.c:152
  DeviceDataPrv->UserDataPtr = UserDataPtr; /* Store the RTOS device structure */
    303c:	68fb      	ldr	r3, [r7, #12]
    303e:	687a      	ldr	r2, [r7, #4]
    3040:	609a      	str	r2, [r3, #8]
/home/marcelo/Documentos/GER/SDP/SDP-2016/KDS/SDP-2016/Debug/../Generated_Code/PwmLdd5.c:153
  DeviceDataPrv->EnUser = FALSE;       /* Set the flag "device disabled" */
    3042:	68fb      	ldr	r3, [r7, #12]
    3044:	2200      	movs	r2, #0
    3046:	711a      	strb	r2, [r3, #4]
/home/marcelo/Documentos/GER/SDP/SDP-2016/KDS/SDP-2016/Debug/../Generated_Code/PwmLdd5.c:154
  DeviceDataPrv->RatioStore = 0xED6FU; /* Ratio after initialization */
    3048:	68fb      	ldr	r3, [r7, #12]
    304a:	4a0d      	ldr	r2, [pc, #52]	; (3080 <PwmLdd5_Init+0x50>)
    304c:	80da      	strh	r2, [r3, #6]
/home/marcelo/Documentos/GER/SDP/SDP-2016/KDS/SDP-2016/Debug/../Generated_Code/PwmLdd5.c:156
  /* Registration of the device structure */
  PE_LDD_RegisterDeviceStructure(PE_LDD_COMPONENT_PwmLdd5_ID,DeviceDataPrv);
    304e:	4b0d      	ldr	r3, [pc, #52]	; (3084 <PwmLdd5_Init+0x54>)
    3050:	68fa      	ldr	r2, [r7, #12]
    3052:	635a      	str	r2, [r3, #52]	; 0x34
/home/marcelo/Documentos/GER/SDP/SDP-2016/KDS/SDP-2016/Debug/../Generated_Code/PwmLdd5.c:157
  DeviceDataPrv->LinkedDeviceDataPtr = TU3_Init((LDD_TUserData *)NULL);
    3054:	2000      	movs	r0, #0
    3056:	f000 fb51 	bl	36fc <TU3_Init>
    305a:	1c02      	adds	r2, r0, #0
    305c:	68fb      	ldr	r3, [r7, #12]
    305e:	601a      	str	r2, [r3, #0]
/home/marcelo/Documentos/GER/SDP/SDP-2016/KDS/SDP-2016/Debug/../Generated_Code/PwmLdd5.c:158
  if (DeviceDataPrv->LinkedDeviceDataPtr == NULL) { /* Is initialization of TimerUnit unsuccessful? */
    3060:	68fb      	ldr	r3, [r7, #12]
    3062:	681b      	ldr	r3, [r3, #0]
    3064:	2b00      	cmp	r3, #0
    3066:	d104      	bne.n	3072 <PwmLdd5_Init+0x42>
/home/marcelo/Documentos/GER/SDP/SDP-2016/KDS/SDP-2016/Debug/../Generated_Code/PwmLdd5.c:160
    /* Unregistration of the device structure */
    PE_LDD_UnregisterDeviceStructure(PE_LDD_COMPONENT_PwmLdd5_ID);
    3068:	4b06      	ldr	r3, [pc, #24]	; (3084 <PwmLdd5_Init+0x54>)
    306a:	2200      	movs	r2, #0
    306c:	635a      	str	r2, [r3, #52]	; 0x34
/home/marcelo/Documentos/GER/SDP/SDP-2016/KDS/SDP-2016/Debug/../Generated_Code/PwmLdd5.c:163
    /* Deallocation of the device structure */
    /* {Default RTOS Adapter} Driver memory deallocation: Dynamic allocation is simulated, no deallocation code is generated */
    return NULL;                       /* If so, then the PWM initialization is also unsuccessful */
    306e:	2300      	movs	r3, #0
    3070:	e000      	b.n	3074 <PwmLdd5_Init+0x44>
/home/marcelo/Documentos/GER/SDP/SDP-2016/KDS/SDP-2016/Debug/../Generated_Code/PwmLdd5.c:165
  }
  return ((LDD_TDeviceData *)DeviceDataPrv); /* Return pointer to the device data structure */
    3072:	68fb      	ldr	r3, [r7, #12]
/home/marcelo/Documentos/GER/SDP/SDP-2016/KDS/SDP-2016/Debug/../Generated_Code/PwmLdd5.c:166
}
    3074:	1c18      	adds	r0, r3, #0
    3076:	46bd      	mov	sp, r7
    3078:	b004      	add	sp, #16
    307a:	bd80      	pop	{r7, pc}
    307c:	1ffff154 	.word	0x1ffff154
    3080:	ffffed6f 	.word	0xffffed6f
    3084:	1ffff0cc 	.word	0x1ffff0cc

00003088 <PwmLdd5_Enable>:
PwmLdd5_Enable():
/home/marcelo/Documentos/GER/SDP/SDP-2016/KDS/SDP-2016/Debug/../Generated_Code/PwmLdd5.c:187
**                           ERR_SPEED - The component does not work in
**                           the active clock configuration
*/
/* ===================================================================*/
LDD_TError PwmLdd5_Enable(LDD_TDeviceData *DeviceDataPtr)
{
    3088:	b580      	push	{r7, lr}
    308a:	b084      	sub	sp, #16
    308c:	af00      	add	r7, sp, #0
    308e:	6078      	str	r0, [r7, #4]
/home/marcelo/Documentos/GER/SDP/SDP-2016/KDS/SDP-2016/Debug/../Generated_Code/PwmLdd5.c:188
  PwmLdd5_TDeviceData *DeviceDataPrv = (PwmLdd5_TDeviceData *)DeviceDataPtr;
    3090:	687b      	ldr	r3, [r7, #4]
    3092:	60fb      	str	r3, [r7, #12]
/home/marcelo/Documentos/GER/SDP/SDP-2016/KDS/SDP-2016/Debug/../Generated_Code/PwmLdd5.c:190

  if (!DeviceDataPrv->EnUser) {        /* Is the device disabled by user? */
    3094:	68fb      	ldr	r3, [r7, #12]
    3096:	791b      	ldrb	r3, [r3, #4]
    3098:	2b00      	cmp	r3, #0
    309a:	d107      	bne.n	30ac <PwmLdd5_Enable+0x24>
/home/marcelo/Documentos/GER/SDP/SDP-2016/KDS/SDP-2016/Debug/../Generated_Code/PwmLdd5.c:191
    DeviceDataPrv->EnUser = TRUE;      /* If yes then set the flag "device enabled" */
    309c:	68fb      	ldr	r3, [r7, #12]
    309e:	2201      	movs	r2, #1
    30a0:	711a      	strb	r2, [r3, #4]
/home/marcelo/Documentos/GER/SDP/SDP-2016/KDS/SDP-2016/Debug/../Generated_Code/PwmLdd5.c:192
    (void)TU3_Enable(DeviceDataPrv->LinkedDeviceDataPtr); /* Enable TimerUnit */
    30a2:	68fb      	ldr	r3, [r7, #12]
    30a4:	681b      	ldr	r3, [r3, #0]
    30a6:	1c18      	adds	r0, r3, #0
    30a8:	f000 fb8e 	bl	37c8 <TU3_Enable>
/home/marcelo/Documentos/GER/SDP/SDP-2016/KDS/SDP-2016/Debug/../Generated_Code/PwmLdd5.c:194
  }
  return ERR_OK;
    30ac:	2300      	movs	r3, #0
/home/marcelo/Documentos/GER/SDP/SDP-2016/KDS/SDP-2016/Debug/../Generated_Code/PwmLdd5.c:195
}
    30ae:	1c18      	adds	r0, r3, #0
    30b0:	46bd      	mov	sp, r7
    30b2:	b004      	add	sp, #16
    30b4:	bd80      	pop	{r7, pc}
    30b6:	46c0      	nop			; (mov r8, r8)

000030b8 <SerialCom_Init>:
SerialCom_Init():
/home/marcelo/Documentos/GER/SDP/SDP-2016/KDS/SDP-2016/Debug/../Generated_Code/SerialCom.c:160
**     @return
**                         - Device data structure pointer.
*/
/* ===================================================================*/
LDD_TDeviceData* SerialCom_Init(LDD_TUserData *UserDataPtr)
{
    30b8:	b580      	push	{r7, lr}
    30ba:	b084      	sub	sp, #16
    30bc:	af00      	add	r7, sp, #0
    30be:	6078      	str	r0, [r7, #4]
/home/marcelo/Documentos/GER/SDP/SDP-2016/KDS/SDP-2016/Debug/../Generated_Code/SerialCom.c:164
  /* Allocate device structure */
  SerialCom_TDeviceDataPtr DeviceDataPrv;
  /* {Default RTOS Adapter} Driver memory allocation: Dynamic allocation is simulated by a pointer to the static object */
  DeviceDataPrv = &DeviceDataPrv__DEFAULT_RTOS_ALLOC;
    30c0:	4b5e      	ldr	r3, [pc, #376]	; (323c <SerialCom_Init+0x184>)
    30c2:	60fb      	str	r3, [r7, #12]
/home/marcelo/Documentos/GER/SDP/SDP-2016/KDS/SDP-2016/Debug/../Generated_Code/SerialCom.c:167

  /* Clear the receive counters and pointer */
  DeviceDataPrv->InpRecvDataNum = 0x00U; /* Clear the counter of received characters */
    30c4:	68fb      	ldr	r3, [r7, #12]
    30c6:	2200      	movs	r2, #0
    30c8:	805a      	strh	r2, [r3, #2]
/home/marcelo/Documentos/GER/SDP/SDP-2016/KDS/SDP-2016/Debug/../Generated_Code/SerialCom.c:168
  DeviceDataPrv->InpDataNumReq = 0x00U; /* Clear the counter of characters to receive by ReceiveBlock() */
    30ca:	68fb      	ldr	r3, [r7, #12]
    30cc:	2200      	movs	r2, #0
    30ce:	811a      	strh	r2, [r3, #8]
/home/marcelo/Documentos/GER/SDP/SDP-2016/KDS/SDP-2016/Debug/../Generated_Code/SerialCom.c:169
  DeviceDataPrv->InpDataPtr = NULL;    /* Clear the buffer pointer for received characters */
    30d0:	68fb      	ldr	r3, [r7, #12]
    30d2:	2200      	movs	r2, #0
    30d4:	605a      	str	r2, [r3, #4]
/home/marcelo/Documentos/GER/SDP/SDP-2016/KDS/SDP-2016/Debug/../Generated_Code/SerialCom.c:171
  /* Clear the transmit counters and pointer */
  DeviceDataPrv->OutSentDataNum = 0x00U; /* Clear the counter of sent characters */
    30d6:	68fb      	ldr	r3, [r7, #12]
    30d8:	2200      	movs	r2, #0
    30da:	815a      	strh	r2, [r3, #10]
/home/marcelo/Documentos/GER/SDP/SDP-2016/KDS/SDP-2016/Debug/../Generated_Code/SerialCom.c:172
  DeviceDataPrv->OutDataNumReq = 0x00U; /* Clear the counter of characters to be send by SendBlock() */
    30dc:	68fb      	ldr	r3, [r7, #12]
    30de:	2200      	movs	r2, #0
    30e0:	821a      	strh	r2, [r3, #16]
/home/marcelo/Documentos/GER/SDP/SDP-2016/KDS/SDP-2016/Debug/../Generated_Code/SerialCom.c:173
  DeviceDataPrv->OutDataPtr = NULL;    /* Clear the buffer pointer for data to be transmitted */
    30e2:	68fb      	ldr	r3, [r7, #12]
    30e4:	2200      	movs	r2, #0
    30e6:	60da      	str	r2, [r3, #12]
/home/marcelo/Documentos/GER/SDP/SDP-2016/KDS/SDP-2016/Debug/../Generated_Code/SerialCom.c:174
  DeviceDataPrv->UserDataPtr = UserDataPtr; /* Store the RTOS device structure */
    30e8:	68fb      	ldr	r3, [r7, #12]
    30ea:	687a      	ldr	r2, [r7, #4]
    30ec:	615a      	str	r2, [r3, #20]
/home/marcelo/Documentos/GER/SDP/SDP-2016/KDS/SDP-2016/Debug/../Generated_Code/SerialCom.c:177
  /* Allocate interrupt vectors */
  /* {Default RTOS Adapter} Set interrupt vector: IVT is static, ISR parameter is passed by the global variable */
  INT_UART0__DEFAULT_RTOS_ISRPARAM = DeviceDataPrv;
    30ee:	4b54      	ldr	r3, [pc, #336]	; (3240 <SerialCom_Init+0x188>)
    30f0:	68fa      	ldr	r2, [r7, #12]
    30f2:	601a      	str	r2, [r3, #0]
/home/marcelo/Documentos/GER/SDP/SDP-2016/KDS/SDP-2016/Debug/../Generated_Code/SerialCom.c:179
  /* SIM_SCGC4: UART0=1 */
  SIM_SCGC4 |= SIM_SCGC4_UART0_MASK;
    30f4:	4a53      	ldr	r2, [pc, #332]	; (3244 <SerialCom_Init+0x18c>)
    30f6:	4953      	ldr	r1, [pc, #332]	; (3244 <SerialCom_Init+0x18c>)
    30f8:	4b53      	ldr	r3, [pc, #332]	; (3248 <SerialCom_Init+0x190>)
    30fa:	58cb      	ldr	r3, [r1, r3]
    30fc:	2180      	movs	r1, #128	; 0x80
    30fe:	00c9      	lsls	r1, r1, #3
    3100:	4319      	orrs	r1, r3
    3102:	4b51      	ldr	r3, [pc, #324]	; (3248 <SerialCom_Init+0x190>)
    3104:	50d1      	str	r1, [r2, r3]
/home/marcelo/Documentos/GER/SDP/SDP-2016/KDS/SDP-2016/Debug/../Generated_Code/SerialCom.c:181
  /* PORTA_PCR1: ISF=0,MUX=2 */
  PORTA_PCR1 = (uint32_t)((PORTA_PCR1 & (uint32_t)~(uint32_t)(
    3106:	4b51      	ldr	r3, [pc, #324]	; (324c <SerialCom_Init+0x194>)
    3108:	4a50      	ldr	r2, [pc, #320]	; (324c <SerialCom_Init+0x194>)
    310a:	6851      	ldr	r1, [r2, #4]
    310c:	4a50      	ldr	r2, [pc, #320]	; (3250 <SerialCom_Init+0x198>)
    310e:	400a      	ands	r2, r1
    3110:	2180      	movs	r1, #128	; 0x80
    3112:	0089      	lsls	r1, r1, #2
    3114:	430a      	orrs	r2, r1
    3116:	605a      	str	r2, [r3, #4]
/home/marcelo/Documentos/GER/SDP/SDP-2016/KDS/SDP-2016/Debug/../Generated_Code/SerialCom.c:188
                PORT_PCR_MUX(0x05)
               )) | (uint32_t)(
                PORT_PCR_MUX(0x02)
               ));
  /* PORTA_PCR2: ISF=0,MUX=2 */
  PORTA_PCR2 = (uint32_t)((PORTA_PCR2 & (uint32_t)~(uint32_t)(
    3118:	4b4c      	ldr	r3, [pc, #304]	; (324c <SerialCom_Init+0x194>)
    311a:	4a4c      	ldr	r2, [pc, #304]	; (324c <SerialCom_Init+0x194>)
    311c:	6891      	ldr	r1, [r2, #8]
    311e:	4a4c      	ldr	r2, [pc, #304]	; (3250 <SerialCom_Init+0x198>)
    3120:	400a      	ands	r2, r1
    3122:	2180      	movs	r1, #128	; 0x80
    3124:	0089      	lsls	r1, r1, #2
    3126:	430a      	orrs	r2, r1
    3128:	609a      	str	r2, [r3, #8]
/home/marcelo/Documentos/GER/SDP/SDP-2016/KDS/SDP-2016/Debug/../Generated_Code/SerialCom.c:195
                PORT_PCR_MUX(0x05)
               )) | (uint32_t)(
                PORT_PCR_MUX(0x02)
               ));
  /* NVIC_IPR3: PRI_12=0x80 */
  NVIC_IPR3 = (uint32_t)((NVIC_IPR3 & (uint32_t)~(uint32_t)(
    312a:	4a4a      	ldr	r2, [pc, #296]	; (3254 <SerialCom_Init+0x19c>)
    312c:	4949      	ldr	r1, [pc, #292]	; (3254 <SerialCom_Init+0x19c>)
    312e:	23c3      	movs	r3, #195	; 0xc3
    3130:	009b      	lsls	r3, r3, #2
    3132:	58cb      	ldr	r3, [r1, r3]
    3134:	21c0      	movs	r1, #192	; 0xc0
    3136:	1c18      	adds	r0, r3, #0
    3138:	4388      	bics	r0, r1
    313a:	1c01      	adds	r1, r0, #0
    313c:	23c3      	movs	r3, #195	; 0xc3
    313e:	009b      	lsls	r3, r3, #2
    3140:	50d1      	str	r1, [r2, r3]
/home/marcelo/Documentos/GER/SDP/SDP-2016/KDS/SDP-2016/Debug/../Generated_Code/SerialCom.c:201
               NVIC_IP_PRI_12(0x7F)
              )) | (uint32_t)(
               NVIC_IP_PRI_12(0x80)
              ));
  /* NVIC_ISER: SETENA|=0x1000 */
  NVIC_ISER |= NVIC_ISER_SETENA(0x1000);
    3142:	4b44      	ldr	r3, [pc, #272]	; (3254 <SerialCom_Init+0x19c>)
    3144:	4a43      	ldr	r2, [pc, #268]	; (3254 <SerialCom_Init+0x19c>)
    3146:	6812      	ldr	r2, [r2, #0]
    3148:	2180      	movs	r1, #128	; 0x80
    314a:	0149      	lsls	r1, r1, #5
    314c:	430a      	orrs	r2, r1
    314e:	601a      	str	r2, [r3, #0]
/home/marcelo/Documentos/GER/SDP/SDP-2016/KDS/SDP-2016/Debug/../Generated_Code/SerialCom.c:202
  UART0_PDD_EnableTransmitter(UART0_BASE_PTR, PDD_DISABLE); /* Disable transmitter. */
    3150:	4b41      	ldr	r3, [pc, #260]	; (3258 <SerialCom_Init+0x1a0>)
    3152:	4a41      	ldr	r2, [pc, #260]	; (3258 <SerialCom_Init+0x1a0>)
    3154:	78d2      	ldrb	r2, [r2, #3]
    3156:	b2d2      	uxtb	r2, r2
    3158:	2108      	movs	r1, #8
    315a:	438a      	bics	r2, r1
    315c:	b2d2      	uxtb	r2, r2
    315e:	70da      	strb	r2, [r3, #3]
/home/marcelo/Documentos/GER/SDP/SDP-2016/KDS/SDP-2016/Debug/../Generated_Code/SerialCom.c:203
  UART0_PDD_EnableReceiver(UART0_BASE_PTR, PDD_DISABLE); /* Disable receiver. */
    3160:	4b3d      	ldr	r3, [pc, #244]	; (3258 <SerialCom_Init+0x1a0>)
    3162:	4a3d      	ldr	r2, [pc, #244]	; (3258 <SerialCom_Init+0x1a0>)
    3164:	78d2      	ldrb	r2, [r2, #3]
    3166:	b2d2      	uxtb	r2, r2
    3168:	2104      	movs	r1, #4
    316a:	438a      	bics	r2, r1
    316c:	b2d2      	uxtb	r2, r2
    316e:	70da      	strb	r2, [r3, #3]
/home/marcelo/Documentos/GER/SDP/SDP-2016/KDS/SDP-2016/Debug/../Generated_Code/SerialCom.c:204
  DeviceDataPrv->SerFlag = 0x00U;      /* Reset flags */
    3170:	68fb      	ldr	r3, [r7, #12]
    3172:	2200      	movs	r2, #0
    3174:	801a      	strh	r2, [r3, #0]
/home/marcelo/Documentos/GER/SDP/SDP-2016/KDS/SDP-2016/Debug/../Generated_Code/SerialCom.c:206
  /* UART0_C1: LOOPS=0,DOZEEN=0,RSRC=0,M=0,WAKE=0,ILT=0,PE=0,PT=0 */
  UART0_C1 = 0x00U;                    /*  Set the C1 register */
    3176:	4b38      	ldr	r3, [pc, #224]	; (3258 <SerialCom_Init+0x1a0>)
    3178:	2200      	movs	r2, #0
    317a:	709a      	strb	r2, [r3, #2]
/home/marcelo/Documentos/GER/SDP/SDP-2016/KDS/SDP-2016/Debug/../Generated_Code/SerialCom.c:208
  /* UART0_C3: R8T9=0,R9T8=0,TXDIR=0,TXINV=0,ORIE=0,NEIE=0,FEIE=0,PEIE=0 */
  UART0_C3 = 0x00U;                    /*  Set the C3 register */
    317c:	4b36      	ldr	r3, [pc, #216]	; (3258 <SerialCom_Init+0x1a0>)
    317e:	2200      	movs	r2, #0
    3180:	719a      	strb	r2, [r3, #6]
/home/marcelo/Documentos/GER/SDP/SDP-2016/KDS/SDP-2016/Debug/../Generated_Code/SerialCom.c:210
  /* UART0_C4: MAEN1=0,MAEN2=0,M10=0,OSR=0 */
  UART0_C4 = UART0_C4_OSR(0x00);       /*  Set the C4 register */
    3182:	4b35      	ldr	r3, [pc, #212]	; (3258 <SerialCom_Init+0x1a0>)
    3184:	2200      	movs	r2, #0
    3186:	729a      	strb	r2, [r3, #10]
/home/marcelo/Documentos/GER/SDP/SDP-2016/KDS/SDP-2016/Debug/../Generated_Code/SerialCom.c:212
  /* UART0_S2: LBKDIF=0,RXEDGIF=0,MSBF=0,RXINV=0,RWUID=0,BRK13=0,LBKDE=0,RAF=0 */
  UART0_S2 = 0x00U;                    /*  Set the S2 register */
    3188:	4b33      	ldr	r3, [pc, #204]	; (3258 <SerialCom_Init+0x1a0>)
    318a:	2200      	movs	r2, #0
    318c:	715a      	strb	r2, [r3, #5]
/home/marcelo/Documentos/GER/SDP/SDP-2016/KDS/SDP-2016/Debug/../Generated_Code/SerialCom.c:213
  SIM_PDD_SetClockSourceUART0(SIM_BASE_PTR, SIM_PDD_UART0_PLL_FLL_CLOCK);
    318e:	4a2d      	ldr	r2, [pc, #180]	; (3244 <SerialCom_Init+0x18c>)
    3190:	492c      	ldr	r1, [pc, #176]	; (3244 <SerialCom_Init+0x18c>)
    3192:	4b32      	ldr	r3, [pc, #200]	; (325c <SerialCom_Init+0x1a4>)
    3194:	58c9      	ldr	r1, [r1, r3]
    3196:	4b32      	ldr	r3, [pc, #200]	; (3260 <SerialCom_Init+0x1a8>)
    3198:	400b      	ands	r3, r1
    319a:	2180      	movs	r1, #128	; 0x80
    319c:	04c9      	lsls	r1, r1, #19
    319e:	4319      	orrs	r1, r3
    31a0:	4b2e      	ldr	r3, [pc, #184]	; (325c <SerialCom_Init+0x1a4>)
    31a2:	50d1      	str	r1, [r2, r3]
/home/marcelo/Documentos/GER/SDP/SDP-2016/KDS/SDP-2016/Debug/../Generated_Code/SerialCom.c:214
  UART0_PDD_SetBaudRate(UART0_BASE_PTR, 46U); /* Set the baud rate register. */
    31a4:	4b2c      	ldr	r3, [pc, #176]	; (3258 <SerialCom_Init+0x1a0>)
    31a6:	4a2c      	ldr	r2, [pc, #176]	; (3258 <SerialCom_Init+0x1a0>)
    31a8:	7812      	ldrb	r2, [r2, #0]
    31aa:	b2d2      	uxtb	r2, r2
    31ac:	211f      	movs	r1, #31
    31ae:	438a      	bics	r2, r1
    31b0:	b2d2      	uxtb	r2, r2
    31b2:	701a      	strb	r2, [r3, #0]
    31b4:	4b28      	ldr	r3, [pc, #160]	; (3258 <SerialCom_Init+0x1a0>)
    31b6:	222e      	movs	r2, #46	; 0x2e
    31b8:	705a      	strb	r2, [r3, #1]
/home/marcelo/Documentos/GER/SDP/SDP-2016/KDS/SDP-2016/Debug/../Generated_Code/SerialCom.c:215
  UART0_PDD_SetOversamplingRatio(UART0_BASE_PTR, 3U);
    31ba:	4b27      	ldr	r3, [pc, #156]	; (3258 <SerialCom_Init+0x1a0>)
    31bc:	4a26      	ldr	r2, [pc, #152]	; (3258 <SerialCom_Init+0x1a0>)
    31be:	7a92      	ldrb	r2, [r2, #10]
    31c0:	b2d2      	uxtb	r2, r2
    31c2:	b2d2      	uxtb	r2, r2
    31c4:	211f      	movs	r1, #31
    31c6:	438a      	bics	r2, r1
    31c8:	b2d2      	uxtb	r2, r2
    31ca:	2103      	movs	r1, #3
    31cc:	430a      	orrs	r2, r1
    31ce:	b2d2      	uxtb	r2, r2
    31d0:	b2d2      	uxtb	r2, r2
    31d2:	729a      	strb	r2, [r3, #10]
/home/marcelo/Documentos/GER/SDP/SDP-2016/KDS/SDP-2016/Debug/../Generated_Code/SerialCom.c:216
  UART0_PDD_EnableSamplingOnBothEdges(UART0_BASE_PTR, PDD_ENABLE);
    31d4:	4b20      	ldr	r3, [pc, #128]	; (3258 <SerialCom_Init+0x1a0>)
    31d6:	4a20      	ldr	r2, [pc, #128]	; (3258 <SerialCom_Init+0x1a0>)
    31d8:	7ad2      	ldrb	r2, [r2, #11]
    31da:	b2d2      	uxtb	r2, r2
    31dc:	b2d2      	uxtb	r2, r2
    31de:	2102      	movs	r1, #2
    31e0:	430a      	orrs	r2, r1
    31e2:	b2d2      	uxtb	r2, r2
    31e4:	b2d2      	uxtb	r2, r2
    31e6:	72da      	strb	r2, [r3, #11]
/home/marcelo/Documentos/GER/SDP/SDP-2016/KDS/SDP-2016/Debug/../Generated_Code/SerialCom.c:217
  UART0_PDD_EnableTransmitter(UART0_BASE_PTR, PDD_ENABLE); /* Enable transmitter */
    31e8:	4b1b      	ldr	r3, [pc, #108]	; (3258 <SerialCom_Init+0x1a0>)
    31ea:	4a1b      	ldr	r2, [pc, #108]	; (3258 <SerialCom_Init+0x1a0>)
    31ec:	78d2      	ldrb	r2, [r2, #3]
    31ee:	b2d2      	uxtb	r2, r2
    31f0:	b2d2      	uxtb	r2, r2
    31f2:	2108      	movs	r1, #8
    31f4:	430a      	orrs	r2, r1
    31f6:	b2d2      	uxtb	r2, r2
    31f8:	b2d2      	uxtb	r2, r2
    31fa:	70da      	strb	r2, [r3, #3]
/home/marcelo/Documentos/GER/SDP/SDP-2016/KDS/SDP-2016/Debug/../Generated_Code/SerialCom.c:218
  UART0_PDD_EnableReceiver(UART0_BASE_PTR, PDD_ENABLE); /* Enable receiver */
    31fc:	4b16      	ldr	r3, [pc, #88]	; (3258 <SerialCom_Init+0x1a0>)
    31fe:	4a16      	ldr	r2, [pc, #88]	; (3258 <SerialCom_Init+0x1a0>)
    3200:	78d2      	ldrb	r2, [r2, #3]
    3202:	b2d2      	uxtb	r2, r2
    3204:	b2d2      	uxtb	r2, r2
    3206:	2104      	movs	r1, #4
    3208:	430a      	orrs	r2, r1
    320a:	b2d2      	uxtb	r2, r2
    320c:	b2d2      	uxtb	r2, r2
    320e:	70da      	strb	r2, [r3, #3]
/home/marcelo/Documentos/GER/SDP/SDP-2016/KDS/SDP-2016/Debug/../Generated_Code/SerialCom.c:219
  UART0_PDD_EnableInterrupt(UART0_BASE_PTR, ( UART0_PDD_INTERRUPT_RECEIVER )); /* Enable interrupts */
    3210:	4b11      	ldr	r3, [pc, #68]	; (3258 <SerialCom_Init+0x1a0>)
    3212:	4a11      	ldr	r2, [pc, #68]	; (3258 <SerialCom_Init+0x1a0>)
    3214:	78d2      	ldrb	r2, [r2, #3]
    3216:	b2d2      	uxtb	r2, r2
    3218:	2120      	movs	r1, #32
    321a:	430a      	orrs	r2, r1
    321c:	b2d2      	uxtb	r2, r2
    321e:	70da      	strb	r2, [r3, #3]
    3220:	4b0d      	ldr	r3, [pc, #52]	; (3258 <SerialCom_Init+0x1a0>)
    3222:	4a0d      	ldr	r2, [pc, #52]	; (3258 <SerialCom_Init+0x1a0>)
    3224:	7992      	ldrb	r2, [r2, #6]
    3226:	b2d2      	uxtb	r2, r2
    3228:	719a      	strb	r2, [r3, #6]
/home/marcelo/Documentos/GER/SDP/SDP-2016/KDS/SDP-2016/Debug/../Generated_Code/SerialCom.c:221
  /* Registration of the device structure */
  PE_LDD_RegisterDeviceStructure(PE_LDD_COMPONENT_SerialCom_ID,DeviceDataPrv);
    322a:	4b0e      	ldr	r3, [pc, #56]	; (3264 <SerialCom_Init+0x1ac>)
    322c:	68fa      	ldr	r2, [r7, #12]
    322e:	615a      	str	r2, [r3, #20]
/home/marcelo/Documentos/GER/SDP/SDP-2016/KDS/SDP-2016/Debug/../Generated_Code/SerialCom.c:222
  return ((LDD_TDeviceData *)DeviceDataPrv);
    3230:	68fb      	ldr	r3, [r7, #12]
/home/marcelo/Documentos/GER/SDP/SDP-2016/KDS/SDP-2016/Debug/../Generated_Code/SerialCom.c:223
}
    3232:	1c18      	adds	r0, r3, #0
    3234:	46bd      	mov	sp, r7
    3236:	b004      	add	sp, #16
    3238:	bd80      	pop	{r7, pc}
    323a:	46c0      	nop			; (mov r8, r8)
    323c:	1ffff160 	.word	0x1ffff160
    3240:	1ffff178 	.word	0x1ffff178
    3244:	40047000 	.word	0x40047000
    3248:	00001034 	.word	0x00001034
    324c:	40049000 	.word	0x40049000
    3250:	fefff8ff 	.word	0xfefff8ff
    3254:	e000e100 	.word	0xe000e100
    3258:	4006a000 	.word	0x4006a000
    325c:	00001004 	.word	0x00001004
    3260:	f3ffffff 	.word	0xf3ffffff
    3264:	1ffff0cc 	.word	0x1ffff0cc

00003268 <SerialCom_SendBlock>:
SerialCom_SendBlock():
/home/marcelo/Documentos/GER/SDP/SDP-2016/KDS/SDP-2016/Debug/../Generated_Code/SerialCom.c:330
**                           ERR_BUSY - The previous transmit request is
**                           pending.
*/
/* ===================================================================*/
LDD_TError SerialCom_SendBlock(LDD_TDeviceData *DeviceDataPtr, LDD_TData *BufferPtr, uint16_t Size)
{
    3268:	b580      	push	{r7, lr}
    326a:	b086      	sub	sp, #24
    326c:	af00      	add	r7, sp, #0
    326e:	60f8      	str	r0, [r7, #12]
    3270:	60b9      	str	r1, [r7, #8]
    3272:	1dbb      	adds	r3, r7, #6
    3274:	801a      	strh	r2, [r3, #0]
/home/marcelo/Documentos/GER/SDP/SDP-2016/KDS/SDP-2016/Debug/../Generated_Code/SerialCom.c:331
  SerialCom_TDeviceDataPtr DeviceDataPrv = (SerialCom_TDeviceDataPtr)DeviceDataPtr;
    3276:	68fb      	ldr	r3, [r7, #12]
    3278:	617b      	str	r3, [r7, #20]
/home/marcelo/Documentos/GER/SDP/SDP-2016/KDS/SDP-2016/Debug/../Generated_Code/SerialCom.c:333

  if (Size == 0U) {                    /* Is the parameter Size within an expected range? */
    327a:	1dbb      	adds	r3, r7, #6
    327c:	881b      	ldrh	r3, [r3, #0]
    327e:	2b00      	cmp	r3, #0
    3280:	d101      	bne.n	3286 <SerialCom_SendBlock+0x1e>
/home/marcelo/Documentos/GER/SDP/SDP-2016/KDS/SDP-2016/Debug/../Generated_Code/SerialCom.c:334
    return ERR_PARAM_SIZE;             /* If no then error */
    3282:	2384      	movs	r3, #132	; 0x84
    3284:	e048      	b.n	3318 <SerialCom_SendBlock+0xb0>
/home/marcelo/Documentos/GER/SDP/SDP-2016/KDS/SDP-2016/Debug/../Generated_Code/SerialCom.c:336
  }
  if (DeviceDataPrv->OutDataNumReq != 0x00U) { /* Is the previous transmit operation pending? */
    3286:	697b      	ldr	r3, [r7, #20]
    3288:	8a1b      	ldrh	r3, [r3, #16]
    328a:	2b00      	cmp	r3, #0
    328c:	d001      	beq.n	3292 <SerialCom_SendBlock+0x2a>
/home/marcelo/Documentos/GER/SDP/SDP-2016/KDS/SDP-2016/Debug/../Generated_Code/SerialCom.c:337
    return ERR_BUSY;                   /* If yes then error */
    328e:	2308      	movs	r3, #8
    3290:	e042      	b.n	3318 <SerialCom_SendBlock+0xb0>
/home/marcelo/Documentos/GER/SDP/SDP-2016/KDS/SDP-2016/Debug/../Generated_Code/SerialCom.c:340
  }
  /* {Default RTOS Adapter} Critical section begin, general PE function is used */
  EnterCritical();
    3292:	1c3b      	adds	r3, r7, #0
    3294:	3313      	adds	r3, #19
    3296:	f3ef 8010 	mrs	r0, PRIMASK
    329a:	b672      	cpsid	i
    329c:	7018      	strb	r0, [r3, #0]
    329e:	4b20      	ldr	r3, [pc, #128]	; (3320 <SerialCom_SendBlock+0xb8>)
    32a0:	781b      	ldrb	r3, [r3, #0]
    32a2:	b2db      	uxtb	r3, r3
    32a4:	3301      	adds	r3, #1
    32a6:	b2db      	uxtb	r3, r3
    32a8:	4a1d      	ldr	r2, [pc, #116]	; (3320 <SerialCom_SendBlock+0xb8>)
    32aa:	1c19      	adds	r1, r3, #0
    32ac:	7011      	strb	r1, [r2, #0]
    32ae:	2b01      	cmp	r3, #1
    32b0:	d104      	bne.n	32bc <SerialCom_SendBlock+0x54>
/home/marcelo/Documentos/GER/SDP/SDP-2016/KDS/SDP-2016/Debug/../Generated_Code/SerialCom.c:340 (discriminator 1)
    32b2:	1c3b      	adds	r3, r7, #0
    32b4:	3313      	adds	r3, #19
    32b6:	781a      	ldrb	r2, [r3, #0]
    32b8:	4b1a      	ldr	r3, [pc, #104]	; (3324 <SerialCom_SendBlock+0xbc>)
    32ba:	701a      	strb	r2, [r3, #0]
/home/marcelo/Documentos/GER/SDP/SDP-2016/KDS/SDP-2016/Debug/../Generated_Code/SerialCom.c:341
  DeviceDataPrv->OutDataPtr = (uint8_t*)BufferPtr; /* Set a pointer to the output data. */
    32bc:	697b      	ldr	r3, [r7, #20]
    32be:	68ba      	ldr	r2, [r7, #8]
    32c0:	60da      	str	r2, [r3, #12]
/home/marcelo/Documentos/GER/SDP/SDP-2016/KDS/SDP-2016/Debug/../Generated_Code/SerialCom.c:342
  DeviceDataPrv->OutDataNumReq = Size; /* Set the counter of characters to be sent. */
    32c2:	697b      	ldr	r3, [r7, #20]
    32c4:	1dba      	adds	r2, r7, #6
    32c6:	8812      	ldrh	r2, [r2, #0]
    32c8:	821a      	strh	r2, [r3, #16]
/home/marcelo/Documentos/GER/SDP/SDP-2016/KDS/SDP-2016/Debug/../Generated_Code/SerialCom.c:343
  DeviceDataPrv->OutSentDataNum = 0x00U; /* Clear the counter of sent characters. */
    32ca:	697b      	ldr	r3, [r7, #20]
    32cc:	2200      	movs	r2, #0
    32ce:	815a      	strh	r2, [r3, #10]
/home/marcelo/Documentos/GER/SDP/SDP-2016/KDS/SDP-2016/Debug/../Generated_Code/SerialCom.c:344
  DeviceDataPrv->SerFlag |= ENABLED_TX_INT; /* Set the flag ENABLED_TX_INT */
    32d0:	697b      	ldr	r3, [r7, #20]
    32d2:	881b      	ldrh	r3, [r3, #0]
    32d4:	2201      	movs	r2, #1
    32d6:	4313      	orrs	r3, r2
    32d8:	b29a      	uxth	r2, r3
    32da:	697b      	ldr	r3, [r7, #20]
    32dc:	801a      	strh	r2, [r3, #0]
/home/marcelo/Documentos/GER/SDP/SDP-2016/KDS/SDP-2016/Debug/../Generated_Code/SerialCom.c:345
  UART0_PDD_EnableInterrupt(UART0_BASE_PTR, UART0_PDD_INTERRUPT_TRANSMITTER); /* Enable TX interrupt */
    32de:	4b12      	ldr	r3, [pc, #72]	; (3328 <SerialCom_SendBlock+0xc0>)
    32e0:	4a11      	ldr	r2, [pc, #68]	; (3328 <SerialCom_SendBlock+0xc0>)
    32e2:	78d2      	ldrb	r2, [r2, #3]
    32e4:	b2d2      	uxtb	r2, r2
    32e6:	2180      	movs	r1, #128	; 0x80
    32e8:	4249      	negs	r1, r1
    32ea:	430a      	orrs	r2, r1
    32ec:	b2d2      	uxtb	r2, r2
    32ee:	70da      	strb	r2, [r3, #3]
    32f0:	4b0d      	ldr	r3, [pc, #52]	; (3328 <SerialCom_SendBlock+0xc0>)
    32f2:	4a0d      	ldr	r2, [pc, #52]	; (3328 <SerialCom_SendBlock+0xc0>)
    32f4:	7992      	ldrb	r2, [r2, #6]
    32f6:	b2d2      	uxtb	r2, r2
    32f8:	719a      	strb	r2, [r3, #6]
/home/marcelo/Documentos/GER/SDP/SDP-2016/KDS/SDP-2016/Debug/../Generated_Code/SerialCom.c:347
  /* {Default RTOS Adapter} Critical section end, general PE function is used */
  ExitCritical();
    32fa:	4b09      	ldr	r3, [pc, #36]	; (3320 <SerialCom_SendBlock+0xb8>)
    32fc:	781b      	ldrb	r3, [r3, #0]
    32fe:	b2db      	uxtb	r3, r3
    3300:	3b01      	subs	r3, #1
    3302:	b2db      	uxtb	r3, r3
    3304:	4a06      	ldr	r2, [pc, #24]	; (3320 <SerialCom_SendBlock+0xb8>)
    3306:	1c19      	adds	r1, r3, #0
    3308:	7011      	strb	r1, [r2, #0]
    330a:	2b00      	cmp	r3, #0
    330c:	d103      	bne.n	3316 <SerialCom_SendBlock+0xae>
/home/marcelo/Documentos/GER/SDP/SDP-2016/KDS/SDP-2016/Debug/../Generated_Code/SerialCom.c:347 (discriminator 1)
    330e:	4b05      	ldr	r3, [pc, #20]	; (3324 <SerialCom_SendBlock+0xbc>)
    3310:	7818      	ldrb	r0, [r3, #0]
    3312:	f380 8810 	msr	PRIMASK, r0
/home/marcelo/Documentos/GER/SDP/SDP-2016/KDS/SDP-2016/Debug/../Generated_Code/SerialCom.c:348
  return ERR_OK;                       /* OK */
    3316:	2300      	movs	r3, #0
/home/marcelo/Documentos/GER/SDP/SDP-2016/KDS/SDP-2016/Debug/../Generated_Code/SerialCom.c:349
}
    3318:	1c18      	adds	r0, r3, #0
    331a:	46bd      	mov	sp, r7
    331c:	b006      	add	sp, #24
    331e:	bd80      	pop	{r7, pc}
    3320:	1ffff0c8 	.word	0x1ffff0c8
    3324:	1ffff2d2 	.word	0x1ffff2d2
    3328:	4006a000 	.word	0x4006a000

0000332c <InterruptRx>:
InterruptRx():
/home/marcelo/Documentos/GER/SDP/SDP-2016/KDS/SDP-2016/Debug/../Generated_Code/SerialCom.c:362
**         peripheral(s) and eventually invokes the bean's event(s).
**         This method is internal. It is used by Processor Expert only.
** ===================================================================
*/
static void InterruptRx(SerialCom_TDeviceDataPtr DeviceDataPrv)
{
    332c:	b590      	push	{r4, r7, lr}
    332e:	b083      	sub	sp, #12
    3330:	af00      	add	r7, sp, #0
    3332:	6078      	str	r0, [r7, #4]
/home/marcelo/Documentos/GER/SDP/SDP-2016/KDS/SDP-2016/Debug/../Generated_Code/SerialCom.c:365
  register uint16_t Data;              /* Temporary variable for data */

  Data = (uint16_t)UART0_PDD_GetChar8(UART0_BASE_PTR); /* Read an 8-bit character from the receiver */
    3334:	4b10      	ldr	r3, [pc, #64]	; (3378 <InterruptRx+0x4c>)
    3336:	79db      	ldrb	r3, [r3, #7]
    3338:	b2db      	uxtb	r3, r3
    333a:	1c1c      	adds	r4, r3, #0
/home/marcelo/Documentos/GER/SDP/SDP-2016/KDS/SDP-2016/Debug/../Generated_Code/SerialCom.c:366
  if (DeviceDataPrv->InpDataNumReq != 0x00U) { /* Is the receive block operation pending? */
    333c:	687b      	ldr	r3, [r7, #4]
    333e:	891b      	ldrh	r3, [r3, #8]
    3340:	2b00      	cmp	r3, #0
    3342:	d015      	beq.n	3370 <InterruptRx+0x44>
/home/marcelo/Documentos/GER/SDP/SDP-2016/KDS/SDP-2016/Debug/../Generated_Code/SerialCom.c:367
    *(DeviceDataPrv->InpDataPtr++) = (uint8_t)Data; /* Put an 8-bit character to the receive buffer */
    3344:	687b      	ldr	r3, [r7, #4]
    3346:	685b      	ldr	r3, [r3, #4]
    3348:	1c59      	adds	r1, r3, #1
    334a:	687a      	ldr	r2, [r7, #4]
    334c:	6051      	str	r1, [r2, #4]
    334e:	b2e2      	uxtb	r2, r4
    3350:	701a      	strb	r2, [r3, #0]
/home/marcelo/Documentos/GER/SDP/SDP-2016/KDS/SDP-2016/Debug/../Generated_Code/SerialCom.c:368
    DeviceDataPrv->InpRecvDataNum++;   /* Increment received char. counter */
    3352:	687b      	ldr	r3, [r7, #4]
    3354:	885b      	ldrh	r3, [r3, #2]
    3356:	3301      	adds	r3, #1
    3358:	b29a      	uxth	r2, r3
    335a:	687b      	ldr	r3, [r7, #4]
    335c:	805a      	strh	r2, [r3, #2]
/home/marcelo/Documentos/GER/SDP/SDP-2016/KDS/SDP-2016/Debug/../Generated_Code/SerialCom.c:369
    if (DeviceDataPrv->InpRecvDataNum == DeviceDataPrv->InpDataNumReq) { /* Is the requested number of characters received? */
    335e:	687b      	ldr	r3, [r7, #4]
    3360:	885a      	ldrh	r2, [r3, #2]
    3362:	687b      	ldr	r3, [r7, #4]
    3364:	891b      	ldrh	r3, [r3, #8]
    3366:	429a      	cmp	r2, r3
    3368:	d102      	bne.n	3370 <InterruptRx+0x44>
/home/marcelo/Documentos/GER/SDP/SDP-2016/KDS/SDP-2016/Debug/../Generated_Code/SerialCom.c:370
      DeviceDataPrv->InpDataNumReq = 0x00U; /* If yes then clear number of requested characters to be received. */
    336a:	687b      	ldr	r3, [r7, #4]
    336c:	2200      	movs	r2, #0
    336e:	811a      	strh	r2, [r3, #8]
/home/marcelo/Documentos/GER/SDP/SDP-2016/KDS/SDP-2016/Debug/../Generated_Code/SerialCom.c:373
    }
  }
}
    3370:	46bd      	mov	sp, r7
    3372:	b003      	add	sp, #12
    3374:	bd90      	pop	{r4, r7, pc}
    3376:	46c0      	nop			; (mov r8, r8)
    3378:	4006a000 	.word	0x4006a000

0000337c <InterruptTx>:
InterruptTx():
/home/marcelo/Documentos/GER/SDP/SDP-2016/KDS/SDP-2016/Debug/../Generated_Code/SerialCom.c:386
**         peripheral(s) and eventually invokes the bean's event(s).
**         This method is internal. It is used by Processor Expert only.
** ===================================================================
*/
static void InterruptTx(SerialCom_TDeviceDataPtr DeviceDataPrv)
{
    337c:	b580      	push	{r7, lr}
    337e:	b082      	sub	sp, #8
    3380:	af00      	add	r7, sp, #0
    3382:	6078      	str	r0, [r7, #4]
/home/marcelo/Documentos/GER/SDP/SDP-2016/KDS/SDP-2016/Debug/../Generated_Code/SerialCom.c:388

  if (DeviceDataPrv->OutSentDataNum < DeviceDataPrv->OutDataNumReq) { /* Is number of sent characters less than the number of requested incoming characters? */
    3384:	687b      	ldr	r3, [r7, #4]
    3386:	895a      	ldrh	r2, [r3, #10]
    3388:	687b      	ldr	r3, [r7, #4]
    338a:	8a1b      	ldrh	r3, [r3, #16]
    338c:	429a      	cmp	r2, r3
    338e:	d21c      	bcs.n	33ca <InterruptTx+0x4e>
/home/marcelo/Documentos/GER/SDP/SDP-2016/KDS/SDP-2016/Debug/../Generated_Code/SerialCom.c:389
    UART0_PDD_PutChar8(UART0_BASE_PTR, *(DeviceDataPrv->OutDataPtr++)); /* Put a 8-bit character to the transmit register */
    3390:	4919      	ldr	r1, [pc, #100]	; (33f8 <InterruptTx+0x7c>)
    3392:	687b      	ldr	r3, [r7, #4]
    3394:	68db      	ldr	r3, [r3, #12]
    3396:	1c58      	adds	r0, r3, #1
    3398:	687a      	ldr	r2, [r7, #4]
    339a:	60d0      	str	r0, [r2, #12]
    339c:	781b      	ldrb	r3, [r3, #0]
    339e:	71cb      	strb	r3, [r1, #7]
/home/marcelo/Documentos/GER/SDP/SDP-2016/KDS/SDP-2016/Debug/../Generated_Code/SerialCom.c:390
    DeviceDataPrv->OutSentDataNum++;   /* Increment the counter of sent characters. */
    33a0:	687b      	ldr	r3, [r7, #4]
    33a2:	895b      	ldrh	r3, [r3, #10]
    33a4:	3301      	adds	r3, #1
    33a6:	b29a      	uxth	r2, r3
    33a8:	687b      	ldr	r3, [r7, #4]
    33aa:	815a      	strh	r2, [r3, #10]
/home/marcelo/Documentos/GER/SDP/SDP-2016/KDS/SDP-2016/Debug/../Generated_Code/SerialCom.c:391
    if (DeviceDataPrv->OutSentDataNum == DeviceDataPrv->OutDataNumReq) {
    33ac:	687b      	ldr	r3, [r7, #4]
    33ae:	895a      	ldrh	r2, [r3, #10]
    33b0:	687b      	ldr	r3, [r7, #4]
    33b2:	8a1b      	ldrh	r3, [r3, #16]
    33b4:	429a      	cmp	r2, r3
    33b6:	d11c      	bne.n	33f2 <InterruptTx+0x76>
/home/marcelo/Documentos/GER/SDP/SDP-2016/KDS/SDP-2016/Debug/../Generated_Code/SerialCom.c:392
      DeviceDataPrv->OutDataNumReq = 0x00U; /* Clear the counter of characters to be send by SendBlock() */
    33b8:	687b      	ldr	r3, [r7, #4]
    33ba:	2200      	movs	r2, #0
    33bc:	821a      	strh	r2, [r3, #16]
/home/marcelo/Documentos/GER/SDP/SDP-2016/KDS/SDP-2016/Debug/../Generated_Code/SerialCom.c:393
      SerialCom_OnBlockSent(DeviceDataPrv->UserDataPtr);
    33be:	687b      	ldr	r3, [r7, #4]
    33c0:	695b      	ldr	r3, [r3, #20]
    33c2:	1c18      	adds	r0, r3, #0
    33c4:	f7fe fc8a 	bl	1cdc <SerialCom_OnBlockSent>
    33c8:	e013      	b.n	33f2 <InterruptTx+0x76>
/home/marcelo/Documentos/GER/SDP/SDP-2016/KDS/SDP-2016/Debug/../Generated_Code/SerialCom.c:396
    }
  } else {
    UART0_PDD_DisableInterrupt(UART0_BASE_PTR, UART0_PDD_INTERRUPT_TRANSMITTER); /* Disable TX interrupt */
    33ca:	4b0b      	ldr	r3, [pc, #44]	; (33f8 <InterruptTx+0x7c>)
    33cc:	4a0a      	ldr	r2, [pc, #40]	; (33f8 <InterruptTx+0x7c>)
    33ce:	78d2      	ldrb	r2, [r2, #3]
    33d0:	b2d1      	uxtb	r1, r2
    33d2:	227f      	movs	r2, #127	; 0x7f
    33d4:	400a      	ands	r2, r1
    33d6:	b2d2      	uxtb	r2, r2
    33d8:	70da      	strb	r2, [r3, #3]
    33da:	4b07      	ldr	r3, [pc, #28]	; (33f8 <InterruptTx+0x7c>)
    33dc:	4a06      	ldr	r2, [pc, #24]	; (33f8 <InterruptTx+0x7c>)
    33de:	7992      	ldrb	r2, [r2, #6]
    33e0:	b2d2      	uxtb	r2, r2
    33e2:	719a      	strb	r2, [r3, #6]
/home/marcelo/Documentos/GER/SDP/SDP-2016/KDS/SDP-2016/Debug/../Generated_Code/SerialCom.c:397
    DeviceDataPrv->SerFlag &= (uint16_t)(~(uint16_t)ENABLED_TX_INT); /* Clear the flag ENABLED_TX_INT */
    33e4:	687b      	ldr	r3, [r7, #4]
    33e6:	881b      	ldrh	r3, [r3, #0]
    33e8:	2201      	movs	r2, #1
    33ea:	4393      	bics	r3, r2
    33ec:	b29a      	uxth	r2, r3
    33ee:	687b      	ldr	r3, [r7, #4]
    33f0:	801a      	strh	r2, [r3, #0]
/home/marcelo/Documentos/GER/SDP/SDP-2016/KDS/SDP-2016/Debug/../Generated_Code/SerialCom.c:399
  }
}
    33f2:	46bd      	mov	sp, r7
    33f4:	b002      	add	sp, #8
    33f6:	bd80      	pop	{r7, pc}
    33f8:	4006a000 	.word	0x4006a000

000033fc <SerialCom_Interrupt>:
SerialCom_Interrupt():
/home/marcelo/Documentos/GER/SDP/SDP-2016/KDS/SDP-2016/Debug/../Generated_Code/SerialCom.c:412
**         interrupt. Calls InterruptTX/InterruptRX methods.
**         This method is internal. It is used by Processor Expert only.
** ===================================================================
*/
PE_ISR(SerialCom_Interrupt)
{
    33fc:	b590      	push	{r4, r7, lr}
    33fe:	b083      	sub	sp, #12
    3400:	af00      	add	r7, sp, #0
/home/marcelo/Documentos/GER/SDP/SDP-2016/KDS/SDP-2016/Debug/../Generated_Code/SerialCom.c:414
  /* {Default RTOS Adapter} ISR parameter is passed through the global variable */
  SerialCom_TDeviceDataPtr DeviceDataPrv = INT_UART0__DEFAULT_RTOS_ISRPARAM;
    3402:	4b15      	ldr	r3, [pc, #84]	; (3458 <SerialCom_Interrupt+0x5c>)
    3404:	681b      	ldr	r3, [r3, #0]
    3406:	607b      	str	r3, [r7, #4]
/home/marcelo/Documentos/GER/SDP/SDP-2016/KDS/SDP-2016/Debug/../Generated_Code/SerialCom.c:415
  register uint32_t StatReg = UART0_PDD_ReadInterruptStatusReg(UART0_BASE_PTR); /* Read status register */
    3408:	4b14      	ldr	r3, [pc, #80]	; (345c <SerialCom_Interrupt+0x60>)
    340a:	791b      	ldrb	r3, [r3, #4]
    340c:	b2db      	uxtb	r3, r3
    340e:	1c1c      	adds	r4, r3, #0
/home/marcelo/Documentos/GER/SDP/SDP-2016/KDS/SDP-2016/Debug/../Generated_Code/SerialCom.c:417

  if (StatReg & (UART0_S1_NF_MASK | UART0_S1_OR_MASK | UART0_S1_FE_MASK | UART0_S1_PF_MASK)) { /* Is any error flag set? */
    3410:	230f      	movs	r3, #15
    3412:	4023      	ands	r3, r4
    3414:	d009      	beq.n	342a <SerialCom_Interrupt+0x2e>
/home/marcelo/Documentos/GER/SDP/SDP-2016/KDS/SDP-2016/Debug/../Generated_Code/SerialCom.c:418
    UART0_PDD_ClearInterruptFlags(UART0_BASE_PTR, (UART0_S1_NF_MASK | UART0_S1_OR_MASK | UART0_S1_FE_MASK | UART0_S1_PF_MASK));
    3416:	4b11      	ldr	r3, [pc, #68]	; (345c <SerialCom_Interrupt+0x60>)
    3418:	220f      	movs	r2, #15
    341a:	711a      	strb	r2, [r3, #4]
/home/marcelo/Documentos/GER/SDP/SDP-2016/KDS/SDP-2016/Debug/../Generated_Code/SerialCom.c:419
    (void)UART0_PDD_GetChar8(UART0_BASE_PTR); /* Dummy read 8-bit character from receiver */
    341c:	4b0f      	ldr	r3, [pc, #60]	; (345c <SerialCom_Interrupt+0x60>)
    341e:	79db      	ldrb	r3, [r3, #7]
/home/marcelo/Documentos/GER/SDP/SDP-2016/KDS/SDP-2016/Debug/../Generated_Code/SerialCom.c:420
    StatReg &= (uint32_t)(~(uint32_t)UART0_S1_RDRF_MASK); /* Clear the receive data flag to discard the errorneous data */
    3420:	2320      	movs	r3, #32
    3422:	1c22      	adds	r2, r4, #0
    3424:	439a      	bics	r2, r3
    3426:	1c13      	adds	r3, r2, #0
    3428:	1c1c      	adds	r4, r3, #0
/home/marcelo/Documentos/GER/SDP/SDP-2016/KDS/SDP-2016/Debug/../Generated_Code/SerialCom.c:422
  }
  if (StatReg & UART0_S1_RDRF_MASK) {  /* Is the receiver's interrupt flag set? */
    342a:	2320      	movs	r3, #32
    342c:	4023      	ands	r3, r4
    342e:	d003      	beq.n	3438 <SerialCom_Interrupt+0x3c>
/home/marcelo/Documentos/GER/SDP/SDP-2016/KDS/SDP-2016/Debug/../Generated_Code/SerialCom.c:423
    InterruptRx(DeviceDataPrv);        /* If yes, then invoke the internal service routine. This routine is inlined. */
    3430:	687b      	ldr	r3, [r7, #4]
    3432:	1c18      	adds	r0, r3, #0
    3434:	f7ff ff7a 	bl	332c <InterruptRx>
/home/marcelo/Documentos/GER/SDP/SDP-2016/KDS/SDP-2016/Debug/../Generated_Code/SerialCom.c:425
  }
  if (DeviceDataPrv->SerFlag & ENABLED_TX_INT) { /* Is the transmitter interrupt enabled? */
    3438:	687b      	ldr	r3, [r7, #4]
    343a:	881b      	ldrh	r3, [r3, #0]
    343c:	1c1a      	adds	r2, r3, #0
    343e:	2301      	movs	r3, #1
    3440:	4013      	ands	r3, r2
    3442:	d006      	beq.n	3452 <SerialCom_Interrupt+0x56>
/home/marcelo/Documentos/GER/SDP/SDP-2016/KDS/SDP-2016/Debug/../Generated_Code/SerialCom.c:426
    if (StatReg & UART0_S1_TDRE_MASK) { /* Is the transmitter empty? */
    3444:	2380      	movs	r3, #128	; 0x80
    3446:	4023      	ands	r3, r4
    3448:	d003      	beq.n	3452 <SerialCom_Interrupt+0x56>
/home/marcelo/Documentos/GER/SDP/SDP-2016/KDS/SDP-2016/Debug/../Generated_Code/SerialCom.c:427
      InterruptTx(DeviceDataPrv);      /* If yes, then invoke the internal service routine. This routine is inlined. */
    344a:	687b      	ldr	r3, [r7, #4]
    344c:	1c18      	adds	r0, r3, #0
    344e:	f7ff ff95 	bl	337c <InterruptTx>
/home/marcelo/Documentos/GER/SDP/SDP-2016/KDS/SDP-2016/Debug/../Generated_Code/SerialCom.c:430
    }
  }
}
    3452:	46bd      	mov	sp, r7
    3454:	b003      	add	sp, #12
    3456:	bd90      	pop	{r4, r7, pc}
    3458:	1ffff178 	.word	0x1ffff178
    345c:	4006a000 	.word	0x4006a000

00003460 <TU1_Init>:
TU1_Init():
/home/marcelo/Documentos/GER/SDP/SDP-2016/KDS/SDP-2016/Debug/../Generated_Code/TU1.c:152
**                         - Pointer to the dynamically allocated private
**                           structure or NULL if there was an error.
*/
/* ===================================================================*/
LDD_TDeviceData* TU1_Init(LDD_TUserData *UserDataPtr)
{
    3460:	b580      	push	{r7, lr}
    3462:	b084      	sub	sp, #16
    3464:	af00      	add	r7, sp, #0
    3466:	6078      	str	r0, [r7, #4]
/home/marcelo/Documentos/GER/SDP/SDP-2016/KDS/SDP-2016/Debug/../Generated_Code/TU1.c:155
  TU1_TDeviceData *DeviceDataPrv;

  if (PE_LDD_DeviceDataList[PE_LDD_COMPONENT_TU1_ID] == NULL) {
    3468:	4b2a      	ldr	r3, [pc, #168]	; (3514 <TU1_Init+0xb4>)
    346a:	689b      	ldr	r3, [r3, #8]
    346c:	2b00      	cmp	r3, #0
    346e:	d140      	bne.n	34f2 <TU1_Init+0x92>
/home/marcelo/Documentos/GER/SDP/SDP-2016/KDS/SDP-2016/Debug/../Generated_Code/TU1.c:158
    /* Allocate device structure */
    /* {Default RTOS Adapter} Driver memory allocation: Dynamic allocation is simulated by a pointer to the static object */
    DeviceDataPrv = &DeviceDataPrv__DEFAULT_RTOS_ALLOC;
    3470:	4b29      	ldr	r3, [pc, #164]	; (3518 <TU1_Init+0xb8>)
    3472:	60fb      	str	r3, [r7, #12]
/home/marcelo/Documentos/GER/SDP/SDP-2016/KDS/SDP-2016/Debug/../Generated_Code/TU1.c:159
    DeviceDataPrv->UserDataPtr = UserDataPtr; /* Store the RTOS device structure */
    3474:	68fb      	ldr	r3, [r7, #12]
    3476:	687a      	ldr	r2, [r7, #4]
    3478:	605a      	str	r2, [r3, #4]
/home/marcelo/Documentos/GER/SDP/SDP-2016/KDS/SDP-2016/Debug/../Generated_Code/TU1.c:160
    DeviceDataPrv->InitCntr = 1U;      /* First initialization */
    347a:	68fb      	ldr	r3, [r7, #12]
    347c:	2201      	movs	r2, #1
    347e:	701a      	strb	r2, [r3, #0]
/home/marcelo/Documentos/GER/SDP/SDP-2016/KDS/SDP-2016/Debug/../Generated_Code/TU1.c:171
    DeviceDataPrv->InitCntr++;         /* Increment counter of initialization */
    return ((LDD_TDeviceData *)DeviceDataPrv); /* Return pointer to the device data structure */
  }
  /* Interrupt vector(s) allocation */
  /* {Default RTOS Adapter} Set interrupt vector: IVT is static, ISR parameter is passed by the global variable */
  INT_PIT__DEFAULT_RTOS_ISRPARAM = DeviceDataPrv;
    3480:	4b26      	ldr	r3, [pc, #152]	; (351c <TU1_Init+0xbc>)
    3482:	68fa      	ldr	r2, [r7, #12]
    3484:	601a      	str	r2, [r3, #0]
/home/marcelo/Documentos/GER/SDP/SDP-2016/KDS/SDP-2016/Debug/../Generated_Code/TU1.c:173
  /* SIM_SCGC6: PIT=1 */
  SIM_SCGC6 |= SIM_SCGC6_PIT_MASK;
    3486:	4a26      	ldr	r2, [pc, #152]	; (3520 <TU1_Init+0xc0>)
    3488:	4925      	ldr	r1, [pc, #148]	; (3520 <TU1_Init+0xc0>)
    348a:	4b26      	ldr	r3, [pc, #152]	; (3524 <TU1_Init+0xc4>)
    348c:	58cb      	ldr	r3, [r1, r3]
    348e:	2180      	movs	r1, #128	; 0x80
    3490:	0409      	lsls	r1, r1, #16
    3492:	4319      	orrs	r1, r3
    3494:	4b23      	ldr	r3, [pc, #140]	; (3524 <TU1_Init+0xc4>)
    3496:	50d1      	str	r1, [r2, r3]
/home/marcelo/Documentos/GER/SDP/SDP-2016/KDS/SDP-2016/Debug/../Generated_Code/TU1.c:175
  /* PIT_MCR: ??=0,??=0,??=0,??=0,??=0,??=0,??=0,??=0,??=0,??=0,??=0,??=0,??=0,??=0,??=0,??=0,??=0,??=0,??=0,??=0,??=0,??=0,??=0,??=0,??=0,??=0,??=0,??=0,??=0,??=0,MDIS=0,FRZ=0 */
  PIT_MCR = 0x00U;                     /* Enable device clock */
    3498:	4b23      	ldr	r3, [pc, #140]	; (3528 <TU1_Init+0xc8>)
    349a:	2200      	movs	r2, #0
    349c:	601a      	str	r2, [r3, #0]
/home/marcelo/Documentos/GER/SDP/SDP-2016/KDS/SDP-2016/Debug/../Generated_Code/TU1.c:177
  /* PIT_TCTRL0: ??=0,??=0,??=0,??=0,??=0,??=0,??=0,??=0,??=0,??=0,??=0,??=0,??=0,??=0,??=0,??=0,??=0,??=0,??=0,??=0,??=0,??=0,??=0,??=0,??=0,??=0,??=0,??=0,??=0,CHN=0,TIE=0,TEN=0 */
  PIT_TCTRL0 = 0x00U;                  /* Clear control register */
    349e:	4a22      	ldr	r2, [pc, #136]	; (3528 <TU1_Init+0xc8>)
    34a0:	2384      	movs	r3, #132	; 0x84
    34a2:	005b      	lsls	r3, r3, #1
    34a4:	2100      	movs	r1, #0
    34a6:	50d1      	str	r1, [r2, r3]
/home/marcelo/Documentos/GER/SDP/SDP-2016/KDS/SDP-2016/Debug/../Generated_Code/TU1.c:179
  /* PIT_TFLG0: ??=0,??=0,??=0,??=0,??=0,??=0,??=0,??=0,??=0,??=0,??=0,??=0,??=0,??=0,??=0,??=0,??=0,??=0,??=0,??=0,??=0,??=0,??=0,??=0,??=0,??=0,??=0,??=0,??=0,??=0,??=0,TIF=1 */
  PIT_TFLG0 = PIT_TFLG_TIF_MASK;       /* Clear timer flag register */
    34a8:	4a1f      	ldr	r2, [pc, #124]	; (3528 <TU1_Init+0xc8>)
    34aa:	2386      	movs	r3, #134	; 0x86
    34ac:	005b      	lsls	r3, r3, #1
    34ae:	2101      	movs	r1, #1
    34b0:	50d1      	str	r1, [r2, r3]
/home/marcelo/Documentos/GER/SDP/SDP-2016/KDS/SDP-2016/Debug/../Generated_Code/TU1.c:181
  /* PIT_LDVAL0: TSV=0xD1 */
  PIT_LDVAL0 = PIT_LDVAL_TSV(0xD1);    /* Set up load register */
    34b2:	4a1d      	ldr	r2, [pc, #116]	; (3528 <TU1_Init+0xc8>)
    34b4:	2380      	movs	r3, #128	; 0x80
    34b6:	005b      	lsls	r3, r3, #1
    34b8:	21d1      	movs	r1, #209	; 0xd1
    34ba:	50d1      	str	r1, [r2, r3]
/home/marcelo/Documentos/GER/SDP/SDP-2016/KDS/SDP-2016/Debug/../Generated_Code/TU1.c:183
  /* NVIC_IPR5: PRI_22=0x80 */
  NVIC_IPR5 = (uint32_t)((NVIC_IPR5 & (uint32_t)~(uint32_t)(
    34bc:	4a1b      	ldr	r2, [pc, #108]	; (352c <TU1_Init+0xcc>)
    34be:	491b      	ldr	r1, [pc, #108]	; (352c <TU1_Init+0xcc>)
    34c0:	23c5      	movs	r3, #197	; 0xc5
    34c2:	009b      	lsls	r3, r3, #2
    34c4:	58c9      	ldr	r1, [r1, r3]
    34c6:	4b1a      	ldr	r3, [pc, #104]	; (3530 <TU1_Init+0xd0>)
    34c8:	4019      	ands	r1, r3
    34ca:	23c5      	movs	r3, #197	; 0xc5
    34cc:	009b      	lsls	r3, r3, #2
    34ce:	50d1      	str	r1, [r2, r3]
/home/marcelo/Documentos/GER/SDP/SDP-2016/KDS/SDP-2016/Debug/../Generated_Code/TU1.c:189
               NVIC_IP_PRI_22(0x7F)
              )) | (uint32_t)(
               NVIC_IP_PRI_22(0x80)
              ));
  /* NVIC_ISER: SETENA|=0x00400000 */
  NVIC_ISER |= NVIC_ISER_SETENA(0x00400000);
    34d0:	4b16      	ldr	r3, [pc, #88]	; (352c <TU1_Init+0xcc>)
    34d2:	4a16      	ldr	r2, [pc, #88]	; (352c <TU1_Init+0xcc>)
    34d4:	6812      	ldr	r2, [r2, #0]
    34d6:	2180      	movs	r1, #128	; 0x80
    34d8:	03c9      	lsls	r1, r1, #15
    34da:	430a      	orrs	r2, r1
    34dc:	601a      	str	r2, [r3, #0]
/home/marcelo/Documentos/GER/SDP/SDP-2016/KDS/SDP-2016/Debug/../Generated_Code/TU1.c:191
  /* PIT_TCTRL0: ??=0,??=0,??=0,??=0,??=0,??=0,??=0,??=0,??=0,??=0,??=0,??=0,??=0,??=0,??=0,??=0,??=0,??=0,??=0,??=0,??=0,??=0,??=0,??=0,??=0,??=0,??=0,??=0,??=0,CHN=0,TIE=1,TEN=0 */
  PIT_TCTRL0 = PIT_TCTRL_TIE_MASK;     /* Set up control register */
    34de:	4a12      	ldr	r2, [pc, #72]	; (3528 <TU1_Init+0xc8>)
    34e0:	2384      	movs	r3, #132	; 0x84
    34e2:	005b      	lsls	r3, r3, #1
    34e4:	2102      	movs	r1, #2
    34e6:	50d1      	str	r1, [r2, r3]
/home/marcelo/Documentos/GER/SDP/SDP-2016/KDS/SDP-2016/Debug/../Generated_Code/TU1.c:193
  /* Registration of the device structure */
  PE_LDD_RegisterDeviceStructure(PE_LDD_COMPONENT_TU1_ID,DeviceDataPrv);
    34e8:	4b0a      	ldr	r3, [pc, #40]	; (3514 <TU1_Init+0xb4>)
    34ea:	68fa      	ldr	r2, [r7, #12]
    34ec:	609a      	str	r2, [r3, #8]
/home/marcelo/Documentos/GER/SDP/SDP-2016/KDS/SDP-2016/Debug/../Generated_Code/TU1.c:194
  return ((LDD_TDeviceData *)DeviceDataPrv); /* Return pointer to the device data structure */
    34ee:	68fb      	ldr	r3, [r7, #12]
    34f0:	e00c      	b.n	350c <TU1_Init+0xac>
/home/marcelo/Documentos/GER/SDP/SDP-2016/KDS/SDP-2016/Debug/../Generated_Code/TU1.c:164
    DeviceDataPrv->UserDataPtr = UserDataPtr; /* Store the RTOS device structure */
    DeviceDataPrv->InitCntr = 1U;      /* First initialization */
  }
  else {
    /* Memory is already allocated */
    DeviceDataPrv = (TU1_TDeviceDataPtr) PE_LDD_DeviceDataList[PE_LDD_COMPONENT_TU1_ID];
    34f2:	4b08      	ldr	r3, [pc, #32]	; (3514 <TU1_Init+0xb4>)
    34f4:	689b      	ldr	r3, [r3, #8]
    34f6:	60fb      	str	r3, [r7, #12]
/home/marcelo/Documentos/GER/SDP/SDP-2016/KDS/SDP-2016/Debug/../Generated_Code/TU1.c:165
    DeviceDataPrv->UserDataPtr = UserDataPtr; /* Store the RTOS device structure */
    34f8:	68fb      	ldr	r3, [r7, #12]
    34fa:	687a      	ldr	r2, [r7, #4]
    34fc:	605a      	str	r2, [r3, #4]
/home/marcelo/Documentos/GER/SDP/SDP-2016/KDS/SDP-2016/Debug/../Generated_Code/TU1.c:166
    DeviceDataPrv->InitCntr++;         /* Increment counter of initialization */
    34fe:	68fb      	ldr	r3, [r7, #12]
    3500:	781b      	ldrb	r3, [r3, #0]
    3502:	3301      	adds	r3, #1
    3504:	b2da      	uxtb	r2, r3
    3506:	68fb      	ldr	r3, [r7, #12]
    3508:	701a      	strb	r2, [r3, #0]
/home/marcelo/Documentos/GER/SDP/SDP-2016/KDS/SDP-2016/Debug/../Generated_Code/TU1.c:167
    return ((LDD_TDeviceData *)DeviceDataPrv); /* Return pointer to the device data structure */
    350a:	68fb      	ldr	r3, [r7, #12]
/home/marcelo/Documentos/GER/SDP/SDP-2016/KDS/SDP-2016/Debug/../Generated_Code/TU1.c:195
  /* PIT_TCTRL0: ??=0,??=0,??=0,??=0,??=0,??=0,??=0,??=0,??=0,??=0,??=0,??=0,??=0,??=0,??=0,??=0,??=0,??=0,??=0,??=0,??=0,??=0,??=0,??=0,??=0,??=0,??=0,??=0,??=0,CHN=0,TIE=1,TEN=0 */
  PIT_TCTRL0 = PIT_TCTRL_TIE_MASK;     /* Set up control register */
  /* Registration of the device structure */
  PE_LDD_RegisterDeviceStructure(PE_LDD_COMPONENT_TU1_ID,DeviceDataPrv);
  return ((LDD_TDeviceData *)DeviceDataPrv); /* Return pointer to the device data structure */
}
    350c:	1c18      	adds	r0, r3, #0
    350e:	46bd      	mov	sp, r7
    3510:	b004      	add	sp, #16
    3512:	bd80      	pop	{r7, pc}
    3514:	1ffff0cc 	.word	0x1ffff0cc
    3518:	1ffff17c 	.word	0x1ffff17c
    351c:	1ffff184 	.word	0x1ffff184
    3520:	40047000 	.word	0x40047000
    3524:	0000103c 	.word	0x0000103c
    3528:	40037000 	.word	0x40037000
    352c:	e000e100 	.word	0xe000e100
    3530:	ff3fffff 	.word	0xff3fffff

00003534 <TU1_Enable>:
TU1_Enable():
/home/marcelo/Documentos/GER/SDP/SDP-2016/KDS/SDP-2016/Debug/../Generated_Code/TU1.c:217
**                           ERR_SPEED - The component does not work in
**                           the active clock configuration
*/
/* ===================================================================*/
LDD_TError TU1_Enable(LDD_TDeviceData *DeviceDataPtr)
{
    3534:	b580      	push	{r7, lr}
    3536:	b082      	sub	sp, #8
    3538:	af00      	add	r7, sp, #0
    353a:	6078      	str	r0, [r7, #4]
/home/marcelo/Documentos/GER/SDP/SDP-2016/KDS/SDP-2016/Debug/../Generated_Code/TU1.c:219
  (void)DeviceDataPtr;                 /* Parameter is not used, suppress unused argument warning */
  PIT_PDD_EnableDevice(PIT_BASE_PTR, PIT_PDD_CHANNEL_0, PDD_ENABLE); /* Enable the device */
    353c:	4a07      	ldr	r2, [pc, #28]	; (355c <TU1_Enable+0x28>)
    353e:	4907      	ldr	r1, [pc, #28]	; (355c <TU1_Enable+0x28>)
    3540:	2384      	movs	r3, #132	; 0x84
    3542:	005b      	lsls	r3, r3, #1
    3544:	58cb      	ldr	r3, [r1, r3]
    3546:	2101      	movs	r1, #1
    3548:	4319      	orrs	r1, r3
    354a:	2384      	movs	r3, #132	; 0x84
    354c:	005b      	lsls	r3, r3, #1
    354e:	50d1      	str	r1, [r2, r3]
/home/marcelo/Documentos/GER/SDP/SDP-2016/KDS/SDP-2016/Debug/../Generated_Code/TU1.c:220
  return ERR_OK;
    3550:	2300      	movs	r3, #0
/home/marcelo/Documentos/GER/SDP/SDP-2016/KDS/SDP-2016/Debug/../Generated_Code/TU1.c:221
}
    3552:	1c18      	adds	r0, r3, #0
    3554:	46bd      	mov	sp, r7
    3556:	b002      	add	sp, #8
    3558:	bd80      	pop	{r7, pc}
    355a:	46c0      	nop			; (mov r8, r8)
    355c:	40037000 	.word	0x40037000

00003560 <TU1_Disable>:
TU1_Disable():
/home/marcelo/Documentos/GER/SDP/SDP-2016/KDS/SDP-2016/Debug/../Generated_Code/TU1.c:243
**                           ERR_SPEED - The component does not work in
**                           the active clock configuration
*/
/* ===================================================================*/
LDD_TError TU1_Disable(LDD_TDeviceData *DeviceDataPtr)
{
    3560:	b580      	push	{r7, lr}
    3562:	b082      	sub	sp, #8
    3564:	af00      	add	r7, sp, #0
    3566:	6078      	str	r0, [r7, #4]
/home/marcelo/Documentos/GER/SDP/SDP-2016/KDS/SDP-2016/Debug/../Generated_Code/TU1.c:245
  (void)DeviceDataPtr;                 /* Parameter is not used, suppress unused argument warning */
  PIT_PDD_EnableDevice(PIT_BASE_PTR, PIT_PDD_CHANNEL_0, PDD_DISABLE);
    3568:	4a08      	ldr	r2, [pc, #32]	; (358c <TU1_Disable+0x2c>)
    356a:	4908      	ldr	r1, [pc, #32]	; (358c <TU1_Disable+0x2c>)
    356c:	2384      	movs	r3, #132	; 0x84
    356e:	005b      	lsls	r3, r3, #1
    3570:	58cb      	ldr	r3, [r1, r3]
    3572:	2101      	movs	r1, #1
    3574:	1c18      	adds	r0, r3, #0
    3576:	4388      	bics	r0, r1
    3578:	1c01      	adds	r1, r0, #0
    357a:	2384      	movs	r3, #132	; 0x84
    357c:	005b      	lsls	r3, r3, #1
    357e:	50d1      	str	r1, [r2, r3]
/home/marcelo/Documentos/GER/SDP/SDP-2016/KDS/SDP-2016/Debug/../Generated_Code/TU1.c:246
  return ERR_OK;
    3580:	2300      	movs	r3, #0
/home/marcelo/Documentos/GER/SDP/SDP-2016/KDS/SDP-2016/Debug/../Generated_Code/TU1.c:247
}
    3582:	1c18      	adds	r0, r3, #0
    3584:	46bd      	mov	sp, r7
    3586:	b002      	add	sp, #8
    3588:	bd80      	pop	{r7, pc}
    358a:	46c0      	nop			; (mov r8, r8)
    358c:	40037000 	.word	0x40037000

00003590 <TU1_Interrupt>:
TU1_Interrupt():
/home/marcelo/Documentos/GER/SDP/SDP-2016/KDS/SDP-2016/Debug/../Generated_Code/TU1.c:260
**         and eventually invokes event(s) of the component.
**         This method is internal. It is used by Processor Expert only.
** ===================================================================
*/
PE_ISR(TU1_Interrupt)
{
    3590:	b580      	push	{r7, lr}
    3592:	b082      	sub	sp, #8
    3594:	af00      	add	r7, sp, #0
/home/marcelo/Documentos/GER/SDP/SDP-2016/KDS/SDP-2016/Debug/../Generated_Code/TU1.c:262
  /* {Default RTOS Adapter} ISR parameter is passed through the global variable */
  TU1_TDeviceDataPtr DeviceDataPrv = INT_PIT__DEFAULT_RTOS_ISRPARAM;
    3596:	4b0a      	ldr	r3, [pc, #40]	; (35c0 <TU1_Interrupt+0x30>)
    3598:	681b      	ldr	r3, [r3, #0]
    359a:	607b      	str	r3, [r7, #4]
/home/marcelo/Documentos/GER/SDP/SDP-2016/KDS/SDP-2016/Debug/../Generated_Code/TU1.c:264

  PIT_PDD_ClearInterruptFlag(PIT_BASE_PTR, PIT_PDD_CHANNEL_0); /* Clear interrupt flag */
    359c:	4a09      	ldr	r2, [pc, #36]	; (35c4 <TU1_Interrupt+0x34>)
    359e:	2386      	movs	r3, #134	; 0x86
    35a0:	005b      	lsls	r3, r3, #1
    35a2:	2101      	movs	r1, #1
    35a4:	50d1      	str	r1, [r2, r3]
    35a6:	4a07      	ldr	r2, [pc, #28]	; (35c4 <TU1_Interrupt+0x34>)
    35a8:	2380      	movs	r3, #128	; 0x80
    35aa:	005b      	lsls	r3, r3, #1
    35ac:	58d3      	ldr	r3, [r2, r3]
/home/marcelo/Documentos/GER/SDP/SDP-2016/KDS/SDP-2016/Debug/../Generated_Code/TU1.c:265
  TU1_OnCounterRestart(DeviceDataPrv->UserDataPtr); /* Invoke OnCounterRestart event */
    35ae:	687b      	ldr	r3, [r7, #4]
    35b0:	685b      	ldr	r3, [r3, #4]
    35b2:	1c18      	adds	r0, r3, #0
    35b4:	f000 f978 	bl	38a8 <TU1_OnCounterRestart>
/home/marcelo/Documentos/GER/SDP/SDP-2016/KDS/SDP-2016/Debug/../Generated_Code/TU1.c:266
}
    35b8:	46bd      	mov	sp, r7
    35ba:	b002      	add	sp, #8
    35bc:	bd80      	pop	{r7, pc}
    35be:	46c0      	nop			; (mov r8, r8)
    35c0:	1ffff184 	.word	0x1ffff184
    35c4:	40037000 	.word	0x40037000

000035c8 <TU2_Init>:
TU2_Init():
/home/marcelo/Documentos/GER/SDP/SDP-2016/KDS/SDP-2016/Debug/../Generated_Code/TU2.c:197
**                         - Pointer to the dynamically allocated private
**                           structure or NULL if there was an error.
*/
/* ===================================================================*/
LDD_TDeviceData* TU2_Init(LDD_TUserData *UserDataPtr)
{
    35c8:	b580      	push	{r7, lr}
    35ca:	b084      	sub	sp, #16
    35cc:	af00      	add	r7, sp, #0
    35ce:	6078      	str	r0, [r7, #4]
/home/marcelo/Documentos/GER/SDP/SDP-2016/KDS/SDP-2016/Debug/../Generated_Code/TU2.c:200
  TU2_TDeviceData *DeviceDataPrv;

  if (PE_LDD_DeviceDataList[PE_LDD_COMPONENT_TU2_ID] == NULL) {
    35d0:	4b42      	ldr	r3, [pc, #264]	; (36dc <TU2_Init+0x114>)
    35d2:	69db      	ldr	r3, [r3, #28]
    35d4:	2b00      	cmp	r3, #0
    35d6:	d16f      	bne.n	36b8 <TU2_Init+0xf0>
/home/marcelo/Documentos/GER/SDP/SDP-2016/KDS/SDP-2016/Debug/../Generated_Code/TU2.c:203
    /* Allocate device structure */
    /* {Default RTOS Adapter} Driver memory allocation: Dynamic allocation is simulated by a pointer to the static object */
    DeviceDataPrv = &DeviceDataPrv__DEFAULT_RTOS_ALLOC;
    35d8:	4b41      	ldr	r3, [pc, #260]	; (36e0 <TU2_Init+0x118>)
    35da:	60fb      	str	r3, [r7, #12]
/home/marcelo/Documentos/GER/SDP/SDP-2016/KDS/SDP-2016/Debug/../Generated_Code/TU2.c:204
    DeviceDataPrv->UserDataPtr = UserDataPtr; /* Store the RTOS device structure */
    35dc:	68fb      	ldr	r3, [r7, #12]
    35de:	687a      	ldr	r2, [r7, #4]
    35e0:	605a      	str	r2, [r3, #4]
/home/marcelo/Documentos/GER/SDP/SDP-2016/KDS/SDP-2016/Debug/../Generated_Code/TU2.c:205
    DeviceDataPrv->InitCntr = 1U;      /* First initialization */
    35e2:	68fb      	ldr	r3, [r7, #12]
    35e4:	2201      	movs	r2, #1
    35e6:	701a      	strb	r2, [r3, #0]
/home/marcelo/Documentos/GER/SDP/SDP-2016/KDS/SDP-2016/Debug/../Generated_Code/TU2.c:215
    DeviceDataPrv->UserDataPtr = UserDataPtr; /* Store the RTOS device structure */
    DeviceDataPrv->InitCntr++;         /* Increment counter of initialization */
    return ((LDD_TDeviceData *)DeviceDataPrv); /* Return pointer to the device data structure */
  }
  /* SIM_SCGC6: TPM0=1 */
  SIM_SCGC6 |= SIM_SCGC6_TPM0_MASK;
    35e8:	4a3e      	ldr	r2, [pc, #248]	; (36e4 <TU2_Init+0x11c>)
    35ea:	493e      	ldr	r1, [pc, #248]	; (36e4 <TU2_Init+0x11c>)
    35ec:	4b3e      	ldr	r3, [pc, #248]	; (36e8 <TU2_Init+0x120>)
    35ee:	58cb      	ldr	r3, [r1, r3]
    35f0:	2180      	movs	r1, #128	; 0x80
    35f2:	0449      	lsls	r1, r1, #17
    35f4:	4319      	orrs	r1, r3
    35f6:	4b3c      	ldr	r3, [pc, #240]	; (36e8 <TU2_Init+0x120>)
    35f8:	50d1      	str	r1, [r2, r3]
/home/marcelo/Documentos/GER/SDP/SDP-2016/KDS/SDP-2016/Debug/../Generated_Code/TU2.c:217
  /* TPM0_SC: ??=0,??=0,??=0,??=0,??=0,??=0,??=0,??=0,??=0,??=0,??=0,??=0,??=0,??=0,??=0,??=0,??=0,??=0,??=0,??=0,??=0,??=0,??=0,DMA=0,TOF=0,TOIE=0,CPWMS=0,CMOD=0,PS=0 */
  TPM0_SC = (TPM_SC_CMOD(0x00) | TPM_SC_PS(0x00)); /* Clear status and control register */
    35fa:	4b3c      	ldr	r3, [pc, #240]	; (36ec <TU2_Init+0x124>)
    35fc:	2200      	movs	r2, #0
    35fe:	601a      	str	r2, [r3, #0]
/home/marcelo/Documentos/GER/SDP/SDP-2016/KDS/SDP-2016/Debug/../Generated_Code/TU2.c:219
  /* TPM0_CNT: ??=0,??=0,??=0,??=0,??=0,??=0,??=0,??=0,??=0,??=0,??=0,??=0,??=0,??=0,??=0,??=0,COUNT=0 */
  TPM0_CNT = TPM_CNT_COUNT(0x00);      /* Reset counter register */
    3600:	4b3a      	ldr	r3, [pc, #232]	; (36ec <TU2_Init+0x124>)
    3602:	2200      	movs	r2, #0
    3604:	605a      	str	r2, [r3, #4]
/home/marcelo/Documentos/GER/SDP/SDP-2016/KDS/SDP-2016/Debug/../Generated_Code/TU2.c:221
  /* TPM0_C0SC: ??=0,??=0,??=0,??=0,??=0,??=0,??=0,??=0,??=0,??=0,??=0,??=0,??=0,??=0,??=0,??=0,??=0,??=0,??=0,??=0,??=0,??=0,??=0,??=0,CHF=0,CHIE=0,MSB=0,MSA=0,ELSB=0,ELSA=0,??=0,DMA=0 */
  TPM0_C0SC = 0x00U;                   /* Clear channel status and control register */
    3606:	4b39      	ldr	r3, [pc, #228]	; (36ec <TU2_Init+0x124>)
    3608:	2200      	movs	r2, #0
    360a:	60da      	str	r2, [r3, #12]
/home/marcelo/Documentos/GER/SDP/SDP-2016/KDS/SDP-2016/Debug/../Generated_Code/TU2.c:223
  /* TPM0_C1SC: ??=0,??=0,??=0,??=0,??=0,??=0,??=0,??=0,??=0,??=0,??=0,??=0,??=0,??=0,??=0,??=0,??=0,??=0,??=0,??=0,??=0,??=0,??=0,??=0,CHF=0,CHIE=0,MSB=0,MSA=0,ELSB=0,ELSA=0,??=0,DMA=0 */
  TPM0_C1SC = 0x00U;                   /* Clear channel status and control register */
    360c:	4b37      	ldr	r3, [pc, #220]	; (36ec <TU2_Init+0x124>)
    360e:	2200      	movs	r2, #0
    3610:	615a      	str	r2, [r3, #20]
/home/marcelo/Documentos/GER/SDP/SDP-2016/KDS/SDP-2016/Debug/../Generated_Code/TU2.c:225
  /* TPM0_C2SC: ??=0,??=0,??=0,??=0,??=0,??=0,??=0,??=0,??=0,??=0,??=0,??=0,??=0,??=0,??=0,??=0,??=0,??=0,??=0,??=0,??=0,??=0,??=0,??=0,CHF=0,CHIE=0,MSB=0,MSA=0,ELSB=0,ELSA=0,??=0,DMA=0 */
  TPM0_C2SC = 0x00U;                   /* Clear channel status and control register */
    3612:	4b36      	ldr	r3, [pc, #216]	; (36ec <TU2_Init+0x124>)
    3614:	2200      	movs	r2, #0
    3616:	61da      	str	r2, [r3, #28]
/home/marcelo/Documentos/GER/SDP/SDP-2016/KDS/SDP-2016/Debug/../Generated_Code/TU2.c:227
  /* TPM0_C3SC: ??=0,??=0,??=0,??=0,??=0,??=0,??=0,??=0,??=0,??=0,??=0,??=0,??=0,??=0,??=0,??=0,??=0,??=0,??=0,??=0,??=0,??=0,??=0,??=0,CHF=0,CHIE=0,MSB=0,MSA=0,ELSB=0,ELSA=0,??=0,DMA=0 */
  TPM0_C3SC = 0x00U;                   /* Clear channel status and control register */
    3618:	4b34      	ldr	r3, [pc, #208]	; (36ec <TU2_Init+0x124>)
    361a:	2200      	movs	r2, #0
    361c:	625a      	str	r2, [r3, #36]	; 0x24
/home/marcelo/Documentos/GER/SDP/SDP-2016/KDS/SDP-2016/Debug/../Generated_Code/TU2.c:229
  /* TPM0_C4SC: ??=0,??=0,??=0,??=0,??=0,??=0,??=0,??=0,??=0,??=0,??=0,??=0,??=0,??=0,??=0,??=0,??=0,??=0,??=0,??=0,??=0,??=0,??=0,??=0,CHF=0,CHIE=0,MSB=0,MSA=0,ELSB=0,ELSA=0,??=0,DMA=0 */
  TPM0_C4SC = 0x00U;                   /* Clear channel status and control register */
    361e:	4b33      	ldr	r3, [pc, #204]	; (36ec <TU2_Init+0x124>)
    3620:	2200      	movs	r2, #0
    3622:	62da      	str	r2, [r3, #44]	; 0x2c
/home/marcelo/Documentos/GER/SDP/SDP-2016/KDS/SDP-2016/Debug/../Generated_Code/TU2.c:231
  /* TPM0_C5SC: ??=0,??=0,??=0,??=0,??=0,??=0,??=0,??=0,??=0,??=0,??=0,??=0,??=0,??=0,??=0,??=0,??=0,??=0,??=0,??=0,??=0,??=0,??=0,??=0,CHF=0,CHIE=0,MSB=0,MSA=0,ELSB=0,ELSA=0,??=0,DMA=0 */
  TPM0_C5SC = 0x00U;                   /* Clear channel status and control register */
    3624:	4b31      	ldr	r3, [pc, #196]	; (36ec <TU2_Init+0x124>)
    3626:	2200      	movs	r2, #0
    3628:	635a      	str	r2, [r3, #52]	; 0x34
/home/marcelo/Documentos/GER/SDP/SDP-2016/KDS/SDP-2016/Debug/../Generated_Code/TU2.c:233
  /* TPM0_MOD: ??=0,??=0,??=0,??=0,??=0,??=0,??=0,??=0,??=0,??=0,??=0,??=0,??=0,??=0,??=0,??=0,MOD=0xFFFF */
  TPM0_MOD = TPM_MOD_MOD(0xFFFF);      /* Set up modulo register */
    362a:	4b30      	ldr	r3, [pc, #192]	; (36ec <TU2_Init+0x124>)
    362c:	4a30      	ldr	r2, [pc, #192]	; (36f0 <TU2_Init+0x128>)
    362e:	609a      	str	r2, [r3, #8]
/home/marcelo/Documentos/GER/SDP/SDP-2016/KDS/SDP-2016/Debug/../Generated_Code/TU2.c:235
  /* TPM0_C2SC: ??=0,??=0,??=0,??=0,??=0,??=0,??=0,??=0,??=0,??=0,??=0,??=0,??=0,??=0,??=0,??=0,??=0,??=0,??=0,??=0,??=0,??=0,??=0,??=0,CHF=0,CHIE=0,MSB=1,MSA=0,ELSB=1,ELSA=1,??=0,DMA=0 */
  TPM0_C2SC = (TPM_CnSC_MSB_MASK | TPM_CnSC_ELSB_MASK | TPM_CnSC_ELSA_MASK); /* Set up channel status and control register */
    3630:	4b2e      	ldr	r3, [pc, #184]	; (36ec <TU2_Init+0x124>)
    3632:	222c      	movs	r2, #44	; 0x2c
    3634:	61da      	str	r2, [r3, #28]
/home/marcelo/Documentos/GER/SDP/SDP-2016/KDS/SDP-2016/Debug/../Generated_Code/TU2.c:237
  /* TPM0_C2V: ??=0,??=0,??=0,??=0,??=0,??=0,??=0,??=0,??=0,??=0,??=0,??=0,??=0,??=0,??=0,??=0,VAL=0xFFFF */
  TPM0_C2V = TPM_CnV_VAL(0xFFFF);      /* Set up channel value register */
    3636:	4b2d      	ldr	r3, [pc, #180]	; (36ec <TU2_Init+0x124>)
    3638:	4a2d      	ldr	r2, [pc, #180]	; (36f0 <TU2_Init+0x128>)
    363a:	621a      	str	r2, [r3, #32]
/home/marcelo/Documentos/GER/SDP/SDP-2016/KDS/SDP-2016/Debug/../Generated_Code/TU2.c:239
  /* TPM0_C3SC: ??=0,??=0,??=0,??=0,??=0,??=0,??=0,??=0,??=0,??=0,??=0,??=0,??=0,??=0,??=0,??=0,??=0,??=0,??=0,??=0,??=0,??=0,??=0,??=0,CHF=0,CHIE=0,MSB=1,MSA=0,ELSB=1,ELSA=1,??=0,DMA=0 */
  TPM0_C3SC = (TPM_CnSC_MSB_MASK | TPM_CnSC_ELSB_MASK | TPM_CnSC_ELSA_MASK); /* Set up channel status and control register */
    363c:	4b2b      	ldr	r3, [pc, #172]	; (36ec <TU2_Init+0x124>)
    363e:	222c      	movs	r2, #44	; 0x2c
    3640:	625a      	str	r2, [r3, #36]	; 0x24
/home/marcelo/Documentos/GER/SDP/SDP-2016/KDS/SDP-2016/Debug/../Generated_Code/TU2.c:241
  /* TPM0_C3V: ??=0,??=0,??=0,??=0,??=0,??=0,??=0,??=0,??=0,??=0,??=0,??=0,??=0,??=0,??=0,??=0,VAL=0xFFFF */
  TPM0_C3V = TPM_CnV_VAL(0xFFFF);      /* Set up channel value register */
    3642:	4b2a      	ldr	r3, [pc, #168]	; (36ec <TU2_Init+0x124>)
    3644:	4a2a      	ldr	r2, [pc, #168]	; (36f0 <TU2_Init+0x128>)
    3646:	629a      	str	r2, [r3, #40]	; 0x28
/home/marcelo/Documentos/GER/SDP/SDP-2016/KDS/SDP-2016/Debug/../Generated_Code/TU2.c:243
  /* TPM0_C0SC: ??=0,??=0,??=0,??=0,??=0,??=0,??=0,??=0,??=0,??=0,??=0,??=0,??=0,??=0,??=0,??=0,??=0,??=0,??=0,??=0,??=0,??=0,??=0,??=0,CHF=0,CHIE=0,MSB=1,MSA=0,ELSB=1,ELSA=1,??=0,DMA=0 */
  TPM0_C0SC = (TPM_CnSC_MSB_MASK | TPM_CnSC_ELSB_MASK | TPM_CnSC_ELSA_MASK); /* Set up channel status and control register */
    3648:	4b28      	ldr	r3, [pc, #160]	; (36ec <TU2_Init+0x124>)
    364a:	222c      	movs	r2, #44	; 0x2c
    364c:	60da      	str	r2, [r3, #12]
/home/marcelo/Documentos/GER/SDP/SDP-2016/KDS/SDP-2016/Debug/../Generated_Code/TU2.c:245
  /* TPM0_C0V: ??=0,??=0,??=0,??=0,??=0,??=0,??=0,??=0,??=0,??=0,??=0,??=0,??=0,??=0,??=0,??=0,VAL=0xFFFF */
  TPM0_C0V = TPM_CnV_VAL(0xFFFF);      /* Set up channel value register */
    364e:	4b27      	ldr	r3, [pc, #156]	; (36ec <TU2_Init+0x124>)
    3650:	4a27      	ldr	r2, [pc, #156]	; (36f0 <TU2_Init+0x128>)
    3652:	611a      	str	r2, [r3, #16]
/home/marcelo/Documentos/GER/SDP/SDP-2016/KDS/SDP-2016/Debug/../Generated_Code/TU2.c:247
  /* TPM0_C1SC: ??=0,??=0,??=0,??=0,??=0,??=0,??=0,??=0,??=0,??=0,??=0,??=0,??=0,??=0,??=0,??=0,??=0,??=0,??=0,??=0,??=0,??=0,??=0,??=0,CHF=0,CHIE=0,MSB=1,MSA=0,ELSB=1,ELSA=1,??=0,DMA=0 */
  TPM0_C1SC = (TPM_CnSC_MSB_MASK | TPM_CnSC_ELSB_MASK | TPM_CnSC_ELSA_MASK); /* Set up channel status and control register */
    3654:	4b25      	ldr	r3, [pc, #148]	; (36ec <TU2_Init+0x124>)
    3656:	222c      	movs	r2, #44	; 0x2c
    3658:	615a      	str	r2, [r3, #20]
/home/marcelo/Documentos/GER/SDP/SDP-2016/KDS/SDP-2016/Debug/../Generated_Code/TU2.c:249
  /* TPM0_C1V: ??=0,??=0,??=0,??=0,??=0,??=0,??=0,??=0,??=0,??=0,??=0,??=0,??=0,??=0,??=0,??=0,VAL=0xFFFF */
  TPM0_C1V = TPM_CnV_VAL(0xFFFF);      /* Set up channel value register */
    365a:	4b24      	ldr	r3, [pc, #144]	; (36ec <TU2_Init+0x124>)
    365c:	4a24      	ldr	r2, [pc, #144]	; (36f0 <TU2_Init+0x128>)
    365e:	619a      	str	r2, [r3, #24]
/home/marcelo/Documentos/GER/SDP/SDP-2016/KDS/SDP-2016/Debug/../Generated_Code/TU2.c:251
  /* PORTC_PCR3: ISF=0,MUX=4 */
  PORTC_PCR3 = (uint32_t)((PORTC_PCR3 & (uint32_t)~(uint32_t)(
    3660:	4b24      	ldr	r3, [pc, #144]	; (36f4 <TU2_Init+0x12c>)
    3662:	4a24      	ldr	r2, [pc, #144]	; (36f4 <TU2_Init+0x12c>)
    3664:	68d1      	ldr	r1, [r2, #12]
    3666:	4a24      	ldr	r2, [pc, #144]	; (36f8 <TU2_Init+0x130>)
    3668:	400a      	ands	r2, r1
    366a:	2180      	movs	r1, #128	; 0x80
    366c:	00c9      	lsls	r1, r1, #3
    366e:	430a      	orrs	r2, r1
    3670:	60da      	str	r2, [r3, #12]
/home/marcelo/Documentos/GER/SDP/SDP-2016/KDS/SDP-2016/Debug/../Generated_Code/TU2.c:258
                PORT_PCR_MUX(0x03)
               )) | (uint32_t)(
                PORT_PCR_MUX(0x04)
               ));
  /* PORTC_PCR4: ISF=0,MUX=4 */
  PORTC_PCR4 = (uint32_t)((PORTC_PCR4 & (uint32_t)~(uint32_t)(
    3672:	4b20      	ldr	r3, [pc, #128]	; (36f4 <TU2_Init+0x12c>)
    3674:	4a1f      	ldr	r2, [pc, #124]	; (36f4 <TU2_Init+0x12c>)
    3676:	6911      	ldr	r1, [r2, #16]
    3678:	4a1f      	ldr	r2, [pc, #124]	; (36f8 <TU2_Init+0x130>)
    367a:	400a      	ands	r2, r1
    367c:	2180      	movs	r1, #128	; 0x80
    367e:	00c9      	lsls	r1, r1, #3
    3680:	430a      	orrs	r2, r1
    3682:	611a      	str	r2, [r3, #16]
/home/marcelo/Documentos/GER/SDP/SDP-2016/KDS/SDP-2016/Debug/../Generated_Code/TU2.c:265
                PORT_PCR_MUX(0x03)
               )) | (uint32_t)(
                PORT_PCR_MUX(0x04)
               ));
  /* PORTC_PCR1: ISF=0,MUX=4 */
  PORTC_PCR1 = (uint32_t)((PORTC_PCR1 & (uint32_t)~(uint32_t)(
    3684:	4b1b      	ldr	r3, [pc, #108]	; (36f4 <TU2_Init+0x12c>)
    3686:	4a1b      	ldr	r2, [pc, #108]	; (36f4 <TU2_Init+0x12c>)
    3688:	6851      	ldr	r1, [r2, #4]
    368a:	4a1b      	ldr	r2, [pc, #108]	; (36f8 <TU2_Init+0x130>)
    368c:	400a      	ands	r2, r1
    368e:	2180      	movs	r1, #128	; 0x80
    3690:	00c9      	lsls	r1, r1, #3
    3692:	430a      	orrs	r2, r1
    3694:	605a      	str	r2, [r3, #4]
/home/marcelo/Documentos/GER/SDP/SDP-2016/KDS/SDP-2016/Debug/../Generated_Code/TU2.c:272
                PORT_PCR_MUX(0x03)
               )) | (uint32_t)(
                PORT_PCR_MUX(0x04)
               ));
  /* PORTC_PCR2: ISF=0,MUX=4 */
  PORTC_PCR2 = (uint32_t)((PORTC_PCR2 & (uint32_t)~(uint32_t)(
    3696:	4b17      	ldr	r3, [pc, #92]	; (36f4 <TU2_Init+0x12c>)
    3698:	4a16      	ldr	r2, [pc, #88]	; (36f4 <TU2_Init+0x12c>)
    369a:	6891      	ldr	r1, [r2, #8]
    369c:	4a16      	ldr	r2, [pc, #88]	; (36f8 <TU2_Init+0x130>)
    369e:	400a      	ands	r2, r1
    36a0:	2180      	movs	r1, #128	; 0x80
    36a2:	00c9      	lsls	r1, r1, #3
    36a4:	430a      	orrs	r2, r1
    36a6:	609a      	str	r2, [r3, #8]
/home/marcelo/Documentos/GER/SDP/SDP-2016/KDS/SDP-2016/Debug/../Generated_Code/TU2.c:279
                PORT_PCR_MUX(0x03)
               )) | (uint32_t)(
                PORT_PCR_MUX(0x04)
               ));
  /* TPM0_SC: ??=0,??=0,??=0,??=0,??=0,??=0,??=0,??=0,??=0,??=0,??=0,??=0,??=0,??=0,??=0,??=0,??=0,??=0,??=0,??=0,??=0,??=0,??=0,DMA=0,TOF=0,TOIE=0,CPWMS=0,CMOD=1,PS=3 */
  TPM0_SC = (TPM_SC_CMOD(0x01) | TPM_SC_PS(0x03)); /* Set up status and control register */
    36a8:	4b10      	ldr	r3, [pc, #64]	; (36ec <TU2_Init+0x124>)
    36aa:	220b      	movs	r2, #11
    36ac:	601a      	str	r2, [r3, #0]
/home/marcelo/Documentos/GER/SDP/SDP-2016/KDS/SDP-2016/Debug/../Generated_Code/TU2.c:281
  /* Registration of the device structure */
  PE_LDD_RegisterDeviceStructure(PE_LDD_COMPONENT_TU2_ID,DeviceDataPrv);
    36ae:	4b0b      	ldr	r3, [pc, #44]	; (36dc <TU2_Init+0x114>)
    36b0:	68fa      	ldr	r2, [r7, #12]
    36b2:	61da      	str	r2, [r3, #28]
/home/marcelo/Documentos/GER/SDP/SDP-2016/KDS/SDP-2016/Debug/../Generated_Code/TU2.c:282
  return ((LDD_TDeviceData *)DeviceDataPrv); /* Return pointer to the device data structure */
    36b4:	68fb      	ldr	r3, [r7, #12]
    36b6:	e00c      	b.n	36d2 <TU2_Init+0x10a>
/home/marcelo/Documentos/GER/SDP/SDP-2016/KDS/SDP-2016/Debug/../Generated_Code/TU2.c:209
    DeviceDataPrv->UserDataPtr = UserDataPtr; /* Store the RTOS device structure */
    DeviceDataPrv->InitCntr = 1U;      /* First initialization */
  }
  else {
    /* Memory is already allocated */
    DeviceDataPrv = (TU2_TDeviceDataPtr) PE_LDD_DeviceDataList[PE_LDD_COMPONENT_TU2_ID];
    36b8:	4b08      	ldr	r3, [pc, #32]	; (36dc <TU2_Init+0x114>)
    36ba:	69db      	ldr	r3, [r3, #28]
    36bc:	60fb      	str	r3, [r7, #12]
/home/marcelo/Documentos/GER/SDP/SDP-2016/KDS/SDP-2016/Debug/../Generated_Code/TU2.c:210
    DeviceDataPrv->UserDataPtr = UserDataPtr; /* Store the RTOS device structure */
    36be:	68fb      	ldr	r3, [r7, #12]
    36c0:	687a      	ldr	r2, [r7, #4]
    36c2:	605a      	str	r2, [r3, #4]
/home/marcelo/Documentos/GER/SDP/SDP-2016/KDS/SDP-2016/Debug/../Generated_Code/TU2.c:211
    DeviceDataPrv->InitCntr++;         /* Increment counter of initialization */
    36c4:	68fb      	ldr	r3, [r7, #12]
    36c6:	781b      	ldrb	r3, [r3, #0]
    36c8:	3301      	adds	r3, #1
    36ca:	b2da      	uxtb	r2, r3
    36cc:	68fb      	ldr	r3, [r7, #12]
    36ce:	701a      	strb	r2, [r3, #0]
/home/marcelo/Documentos/GER/SDP/SDP-2016/KDS/SDP-2016/Debug/../Generated_Code/TU2.c:212
    return ((LDD_TDeviceData *)DeviceDataPrv); /* Return pointer to the device data structure */
    36d0:	68fb      	ldr	r3, [r7, #12]
/home/marcelo/Documentos/GER/SDP/SDP-2016/KDS/SDP-2016/Debug/../Generated_Code/TU2.c:283
  /* TPM0_SC: ??=0,??=0,??=0,??=0,??=0,??=0,??=0,??=0,??=0,??=0,??=0,??=0,??=0,??=0,??=0,??=0,??=0,??=0,??=0,??=0,??=0,??=0,??=0,DMA=0,TOF=0,TOIE=0,CPWMS=0,CMOD=1,PS=3 */
  TPM0_SC = (TPM_SC_CMOD(0x01) | TPM_SC_PS(0x03)); /* Set up status and control register */
  /* Registration of the device structure */
  PE_LDD_RegisterDeviceStructure(PE_LDD_COMPONENT_TU2_ID,DeviceDataPrv);
  return ((LDD_TDeviceData *)DeviceDataPrv); /* Return pointer to the device data structure */
}
    36d2:	1c18      	adds	r0, r3, #0
    36d4:	46bd      	mov	sp, r7
    36d6:	b004      	add	sp, #16
    36d8:	bd80      	pop	{r7, pc}
    36da:	46c0      	nop			; (mov r8, r8)
    36dc:	1ffff0cc 	.word	0x1ffff0cc
    36e0:	1ffff188 	.word	0x1ffff188
    36e4:	40047000 	.word	0x40047000
    36e8:	0000103c 	.word	0x0000103c
    36ec:	40038000 	.word	0x40038000
    36f0:	0000ffff 	.word	0x0000ffff
    36f4:	4004b000 	.word	0x4004b000
    36f8:	fefff8ff 	.word	0xfefff8ff

000036fc <TU3_Init>:
TU3_Init():
/home/marcelo/Documentos/GER/SDP/SDP-2016/KDS/SDP-2016/Debug/../Generated_Code/TU3.c:171
**                         - Pointer to the dynamically allocated private
**                           structure or NULL if there was an error.
*/
/* ===================================================================*/
LDD_TDeviceData* TU3_Init(LDD_TUserData *UserDataPtr)
{
    36fc:	b580      	push	{r7, lr}
    36fe:	b084      	sub	sp, #16
    3700:	af00      	add	r7, sp, #0
    3702:	6078      	str	r0, [r7, #4]
/home/marcelo/Documentos/GER/SDP/SDP-2016/KDS/SDP-2016/Debug/../Generated_Code/TU3.c:174
  TU3_TDeviceData *DeviceDataPrv;

  if (PE_LDD_DeviceDataList[PE_LDD_COMPONENT_TU3_ID] == NULL) {
    3704:	4b27      	ldr	r3, [pc, #156]	; (37a4 <TU3_Init+0xa8>)
    3706:	6b1b      	ldr	r3, [r3, #48]	; 0x30
    3708:	2b00      	cmp	r3, #0
    370a:	d139      	bne.n	3780 <TU3_Init+0x84>
/home/marcelo/Documentos/GER/SDP/SDP-2016/KDS/SDP-2016/Debug/../Generated_Code/TU3.c:177
    /* Allocate device structure */
    /* {Default RTOS Adapter} Driver memory allocation: Dynamic allocation is simulated by a pointer to the static object */
    DeviceDataPrv = &DeviceDataPrv__DEFAULT_RTOS_ALLOC;
    370c:	4b26      	ldr	r3, [pc, #152]	; (37a8 <TU3_Init+0xac>)
    370e:	60fb      	str	r3, [r7, #12]
/home/marcelo/Documentos/GER/SDP/SDP-2016/KDS/SDP-2016/Debug/../Generated_Code/TU3.c:178
    DeviceDataPrv->UserDataPtr = UserDataPtr; /* Store the RTOS device structure */
    3710:	68fb      	ldr	r3, [r7, #12]
    3712:	687a      	ldr	r2, [r7, #4]
    3714:	609a      	str	r2, [r3, #8]
/home/marcelo/Documentos/GER/SDP/SDP-2016/KDS/SDP-2016/Debug/../Generated_Code/TU3.c:179
    DeviceDataPrv->InitCntr = 1U;      /* First initialization */
    3716:	68fb      	ldr	r3, [r7, #12]
    3718:	2201      	movs	r2, #1
    371a:	711a      	strb	r2, [r3, #4]
/home/marcelo/Documentos/GER/SDP/SDP-2016/KDS/SDP-2016/Debug/../Generated_Code/TU3.c:189
    DeviceDataPrv->UserDataPtr = UserDataPtr; /* Store the RTOS device structure */
    DeviceDataPrv->InitCntr++;         /* Increment counter of initialization */
    return ((LDD_TDeviceData *)DeviceDataPrv); /* Return pointer to the device data structure */
  }
  /* SIM_SCGC6: TPM1=1 */
  SIM_SCGC6 |= SIM_SCGC6_TPM1_MASK;
    371c:	4a23      	ldr	r2, [pc, #140]	; (37ac <TU3_Init+0xb0>)
    371e:	4923      	ldr	r1, [pc, #140]	; (37ac <TU3_Init+0xb0>)
    3720:	4b23      	ldr	r3, [pc, #140]	; (37b0 <TU3_Init+0xb4>)
    3722:	58cb      	ldr	r3, [r1, r3]
    3724:	2180      	movs	r1, #128	; 0x80
    3726:	0489      	lsls	r1, r1, #18
    3728:	4319      	orrs	r1, r3
    372a:	4b21      	ldr	r3, [pc, #132]	; (37b0 <TU3_Init+0xb4>)
    372c:	50d1      	str	r1, [r2, r3]
/home/marcelo/Documentos/GER/SDP/SDP-2016/KDS/SDP-2016/Debug/../Generated_Code/TU3.c:191
  /* TPM1_SC: ??=0,??=0,??=0,??=0,??=0,??=0,??=0,??=0,??=0,??=0,??=0,??=0,??=0,??=0,??=0,??=0,??=0,??=0,??=0,??=0,??=0,??=0,??=0,DMA=0,TOF=0,TOIE=0,CPWMS=0,CMOD=0,PS=0 */
  TPM1_SC = (TPM_SC_CMOD(0x00) | TPM_SC_PS(0x00)); /* Clear status and control register */
    372e:	4b21      	ldr	r3, [pc, #132]	; (37b4 <TU3_Init+0xb8>)
    3730:	2200      	movs	r2, #0
    3732:	601a      	str	r2, [r3, #0]
/home/marcelo/Documentos/GER/SDP/SDP-2016/KDS/SDP-2016/Debug/../Generated_Code/TU3.c:193
  /* TPM1_CNT: ??=0,??=0,??=0,??=0,??=0,??=0,??=0,??=0,??=0,??=0,??=0,??=0,??=0,??=0,??=0,??=0,COUNT=0 */
  TPM1_CNT = TPM_CNT_COUNT(0x00);      /* Reset counter register */
    3734:	4b1f      	ldr	r3, [pc, #124]	; (37b4 <TU3_Init+0xb8>)
    3736:	2200      	movs	r2, #0
    3738:	605a      	str	r2, [r3, #4]
/home/marcelo/Documentos/GER/SDP/SDP-2016/KDS/SDP-2016/Debug/../Generated_Code/TU3.c:195
  /* TPM1_C0SC: ??=0,??=0,??=0,??=0,??=0,??=0,??=0,??=0,??=0,??=0,??=0,??=0,??=0,??=0,??=0,??=0,??=0,??=0,??=0,??=0,??=0,??=0,??=0,??=0,CHF=0,CHIE=0,MSB=0,MSA=0,ELSB=0,ELSA=0,??=0,DMA=0 */
  TPM1_C0SC = 0x00U;                   /* Clear channel status and control register */
    373a:	4b1e      	ldr	r3, [pc, #120]	; (37b4 <TU3_Init+0xb8>)
    373c:	2200      	movs	r2, #0
    373e:	60da      	str	r2, [r3, #12]
/home/marcelo/Documentos/GER/SDP/SDP-2016/KDS/SDP-2016/Debug/../Generated_Code/TU3.c:197
  /* TPM1_C1SC: ??=0,??=0,??=0,??=0,??=0,??=0,??=0,??=0,??=0,??=0,??=0,??=0,??=0,??=0,??=0,??=0,??=0,??=0,??=0,??=0,??=0,??=0,??=0,??=0,CHF=0,CHIE=0,MSB=0,MSA=0,ELSB=0,ELSA=0,??=0,DMA=0 */
  TPM1_C1SC = 0x00U;                   /* Clear channel status and control register */
    3740:	4b1c      	ldr	r3, [pc, #112]	; (37b4 <TU3_Init+0xb8>)
    3742:	2200      	movs	r2, #0
    3744:	615a      	str	r2, [r3, #20]
/home/marcelo/Documentos/GER/SDP/SDP-2016/KDS/SDP-2016/Debug/../Generated_Code/TU3.c:199
  /* TPM1_MOD: ??=0,??=0,??=0,??=0,??=0,??=0,??=0,??=0,??=0,??=0,??=0,??=0,??=0,??=0,??=0,??=0,MOD=0xCCCC */
  TPM1_MOD = TPM_MOD_MOD(0xCCCC);      /* Set up modulo register */
    3746:	4b1b      	ldr	r3, [pc, #108]	; (37b4 <TU3_Init+0xb8>)
    3748:	4a1b      	ldr	r2, [pc, #108]	; (37b8 <TU3_Init+0xbc>)
    374a:	609a      	str	r2, [r3, #8]
/home/marcelo/Documentos/GER/SDP/SDP-2016/KDS/SDP-2016/Debug/../Generated_Code/TU3.c:201
  /* TPM1_C0SC: ??=0,??=0,??=0,??=0,??=0,??=0,??=0,??=0,??=0,??=0,??=0,??=0,??=0,??=0,??=0,??=0,??=0,??=0,??=0,??=0,??=0,??=0,??=0,??=0,CHF=0,CHIE=0,MSB=1,MSA=0,ELSB=1,ELSA=1,??=0,DMA=0 */
  TPM1_C0SC = (TPM_CnSC_MSB_MASK | TPM_CnSC_ELSB_MASK | TPM_CnSC_ELSA_MASK); /* Set up channel status and control register */
    374c:	4b19      	ldr	r3, [pc, #100]	; (37b4 <TU3_Init+0xb8>)
    374e:	222c      	movs	r2, #44	; 0x2c
    3750:	60da      	str	r2, [r3, #12]
/home/marcelo/Documentos/GER/SDP/SDP-2016/KDS/SDP-2016/Debug/../Generated_Code/TU3.c:203
  /* TPM1_C0V: ??=0,??=0,??=0,??=0,??=0,??=0,??=0,??=0,??=0,??=0,??=0,??=0,??=0,??=0,??=0,??=0,VAL=0xBDF4 */
  TPM1_C0V = TPM_CnV_VAL(0xBDF4);      /* Set up channel value register */
    3752:	4b18      	ldr	r3, [pc, #96]	; (37b4 <TU3_Init+0xb8>)
    3754:	4a19      	ldr	r2, [pc, #100]	; (37bc <TU3_Init+0xc0>)
    3756:	611a      	str	r2, [r3, #16]
/home/marcelo/Documentos/GER/SDP/SDP-2016/KDS/SDP-2016/Debug/../Generated_Code/TU3.c:205
  /* PORTB_PCR0: ISF=0,MUX=3 */
  PORTB_PCR0 = (uint32_t)((PORTB_PCR0 & (uint32_t)~(uint32_t)(
    3758:	4b19      	ldr	r3, [pc, #100]	; (37c0 <TU3_Init+0xc4>)
    375a:	4a19      	ldr	r2, [pc, #100]	; (37c0 <TU3_Init+0xc4>)
    375c:	6811      	ldr	r1, [r2, #0]
    375e:	4a19      	ldr	r2, [pc, #100]	; (37c4 <TU3_Init+0xc8>)
    3760:	400a      	ands	r2, r1
    3762:	21c0      	movs	r1, #192	; 0xc0
    3764:	0089      	lsls	r1, r1, #2
    3766:	430a      	orrs	r2, r1
    3768:	601a      	str	r2, [r3, #0]
/home/marcelo/Documentos/GER/SDP/SDP-2016/KDS/SDP-2016/Debug/../Generated_Code/TU3.c:211
                PORT_PCR_ISF_MASK |
                PORT_PCR_MUX(0x04)
               )) | (uint32_t)(
                PORT_PCR_MUX(0x03)
               ));
  DeviceDataPrv->Source = TPM_PDD_SYSTEM; /* Store clock source */
    376a:	68fb      	ldr	r3, [r7, #12]
    376c:	2208      	movs	r2, #8
    376e:	601a      	str	r2, [r3, #0]
/home/marcelo/Documentos/GER/SDP/SDP-2016/KDS/SDP-2016/Debug/../Generated_Code/TU3.c:213
  /* TPM1_SC: ??=0,??=0,??=0,??=0,??=0,??=0,??=0,??=0,??=0,??=0,??=0,??=0,??=0,??=0,??=0,??=0,??=0,??=0,??=0,??=0,??=0,??=0,??=0,DMA=0,TOF=0,TOIE=0,CPWMS=0,CMOD=0,PS=3 */
  TPM1_SC = (TPM_SC_CMOD(0x00) | TPM_SC_PS(0x03)); /* Set up status and control register */
    3770:	4b10      	ldr	r3, [pc, #64]	; (37b4 <TU3_Init+0xb8>)
    3772:	2203      	movs	r2, #3
    3774:	601a      	str	r2, [r3, #0]
/home/marcelo/Documentos/GER/SDP/SDP-2016/KDS/SDP-2016/Debug/../Generated_Code/TU3.c:215
  /* Registration of the device structure */
  PE_LDD_RegisterDeviceStructure(PE_LDD_COMPONENT_TU3_ID,DeviceDataPrv);
    3776:	4b0b      	ldr	r3, [pc, #44]	; (37a4 <TU3_Init+0xa8>)
    3778:	68fa      	ldr	r2, [r7, #12]
    377a:	631a      	str	r2, [r3, #48]	; 0x30
/home/marcelo/Documentos/GER/SDP/SDP-2016/KDS/SDP-2016/Debug/../Generated_Code/TU3.c:216
  return ((LDD_TDeviceData *)DeviceDataPrv); /* Return pointer to the device data structure */
    377c:	68fb      	ldr	r3, [r7, #12]
    377e:	e00c      	b.n	379a <TU3_Init+0x9e>
/home/marcelo/Documentos/GER/SDP/SDP-2016/KDS/SDP-2016/Debug/../Generated_Code/TU3.c:183
    DeviceDataPrv->UserDataPtr = UserDataPtr; /* Store the RTOS device structure */
    DeviceDataPrv->InitCntr = 1U;      /* First initialization */
  }
  else {
    /* Memory is already allocated */
    DeviceDataPrv = (TU3_TDeviceDataPtr) PE_LDD_DeviceDataList[PE_LDD_COMPONENT_TU3_ID];
    3780:	4b08      	ldr	r3, [pc, #32]	; (37a4 <TU3_Init+0xa8>)
    3782:	6b1b      	ldr	r3, [r3, #48]	; 0x30
    3784:	60fb      	str	r3, [r7, #12]
/home/marcelo/Documentos/GER/SDP/SDP-2016/KDS/SDP-2016/Debug/../Generated_Code/TU3.c:184
    DeviceDataPrv->UserDataPtr = UserDataPtr; /* Store the RTOS device structure */
    3786:	68fb      	ldr	r3, [r7, #12]
    3788:	687a      	ldr	r2, [r7, #4]
    378a:	609a      	str	r2, [r3, #8]
/home/marcelo/Documentos/GER/SDP/SDP-2016/KDS/SDP-2016/Debug/../Generated_Code/TU3.c:185
    DeviceDataPrv->InitCntr++;         /* Increment counter of initialization */
    378c:	68fb      	ldr	r3, [r7, #12]
    378e:	791b      	ldrb	r3, [r3, #4]
    3790:	3301      	adds	r3, #1
    3792:	b2da      	uxtb	r2, r3
    3794:	68fb      	ldr	r3, [r7, #12]
    3796:	711a      	strb	r2, [r3, #4]
/home/marcelo/Documentos/GER/SDP/SDP-2016/KDS/SDP-2016/Debug/../Generated_Code/TU3.c:186
    return ((LDD_TDeviceData *)DeviceDataPrv); /* Return pointer to the device data structure */
    3798:	68fb      	ldr	r3, [r7, #12]
/home/marcelo/Documentos/GER/SDP/SDP-2016/KDS/SDP-2016/Debug/../Generated_Code/TU3.c:217
  /* TPM1_SC: ??=0,??=0,??=0,??=0,??=0,??=0,??=0,??=0,??=0,??=0,??=0,??=0,??=0,??=0,??=0,??=0,??=0,??=0,??=0,??=0,??=0,??=0,??=0,DMA=0,TOF=0,TOIE=0,CPWMS=0,CMOD=0,PS=3 */
  TPM1_SC = (TPM_SC_CMOD(0x00) | TPM_SC_PS(0x03)); /* Set up status and control register */
  /* Registration of the device structure */
  PE_LDD_RegisterDeviceStructure(PE_LDD_COMPONENT_TU3_ID,DeviceDataPrv);
  return ((LDD_TDeviceData *)DeviceDataPrv); /* Return pointer to the device data structure */
}
    379a:	1c18      	adds	r0, r3, #0
    379c:	46bd      	mov	sp, r7
    379e:	b004      	add	sp, #16
    37a0:	bd80      	pop	{r7, pc}
    37a2:	46c0      	nop			; (mov r8, r8)
    37a4:	1ffff0cc 	.word	0x1ffff0cc
    37a8:	1ffff190 	.word	0x1ffff190
    37ac:	40047000 	.word	0x40047000
    37b0:	0000103c 	.word	0x0000103c
    37b4:	40039000 	.word	0x40039000
    37b8:	0000cccc 	.word	0x0000cccc
    37bc:	0000bdf4 	.word	0x0000bdf4
    37c0:	4004a000 	.word	0x4004a000
    37c4:	fefff8ff 	.word	0xfefff8ff

000037c8 <TU3_Enable>:
TU3_Enable():
/home/marcelo/Documentos/GER/SDP/SDP-2016/KDS/SDP-2016/Debug/../Generated_Code/TU3.c:239
**                           ERR_SPEED - The component does not work in
**                           the active clock configuration
*/
/* ===================================================================*/
LDD_TError TU3_Enable(LDD_TDeviceData *DeviceDataPtr)
{
    37c8:	b580      	push	{r7, lr}
    37ca:	b084      	sub	sp, #16
    37cc:	af00      	add	r7, sp, #0
    37ce:	6078      	str	r0, [r7, #4]
/home/marcelo/Documentos/GER/SDP/SDP-2016/KDS/SDP-2016/Debug/../Generated_Code/TU3.c:240
  TU3_TDeviceData *DeviceDataPrv = (TU3_TDeviceData *)DeviceDataPtr;
    37d0:	687b      	ldr	r3, [r7, #4]
    37d2:	60fb      	str	r3, [r7, #12]
/home/marcelo/Documentos/GER/SDP/SDP-2016/KDS/SDP-2016/Debug/../Generated_Code/TU3.c:242

  TPM_PDD_SelectPrescalerSource(TPM1_BASE_PTR, DeviceDataPrv->Source); /* Enable the device */
    37d4:	4b07      	ldr	r3, [pc, #28]	; (37f4 <TU3_Enable+0x2c>)
    37d6:	4a07      	ldr	r2, [pc, #28]	; (37f4 <TU3_Enable+0x2c>)
    37d8:	6812      	ldr	r2, [r2, #0]
    37da:	2198      	movs	r1, #152	; 0x98
    37dc:	1c10      	adds	r0, r2, #0
    37de:	4388      	bics	r0, r1
    37e0:	1c01      	adds	r1, r0, #0
    37e2:	68fa      	ldr	r2, [r7, #12]
    37e4:	6812      	ldr	r2, [r2, #0]
    37e6:	430a      	orrs	r2, r1
    37e8:	601a      	str	r2, [r3, #0]
/home/marcelo/Documentos/GER/SDP/SDP-2016/KDS/SDP-2016/Debug/../Generated_Code/TU3.c:243
  return ERR_OK;
    37ea:	2300      	movs	r3, #0
/home/marcelo/Documentos/GER/SDP/SDP-2016/KDS/SDP-2016/Debug/../Generated_Code/TU3.c:244
}
    37ec:	1c18      	adds	r0, r3, #0
    37ee:	46bd      	mov	sp, r7
    37f0:	b004      	add	sp, #16
    37f2:	bd80      	pop	{r7, pc}
    37f4:	40039000 	.word	0x40039000

000037f8 <TimerIntLdd1_Init>:
TimerIntLdd1_Init():
/home/marcelo/Documentos/GER/SDP/SDP-2016/KDS/SDP-2016/Debug/../Generated_Code/TimerIntLdd1.c:144
**                         - Pointer to the dynamically allocated private
**                           structure or NULL if there was an error.
*/
/* ===================================================================*/
LDD_TDeviceData* TimerIntLdd1_Init(LDD_TUserData *UserDataPtr)
{
    37f8:	b580      	push	{r7, lr}
    37fa:	b084      	sub	sp, #16
    37fc:	af00      	add	r7, sp, #0
    37fe:	6078      	str	r0, [r7, #4]
/home/marcelo/Documentos/GER/SDP/SDP-2016/KDS/SDP-2016/Debug/../Generated_Code/TimerIntLdd1.c:148
  /* Allocate device structure */
  TimerIntLdd1_TDeviceData *DeviceDataPrv;
  /* {Default RTOS Adapter} Driver memory allocation: Dynamic allocation is simulated by a pointer to the static object */
  DeviceDataPrv = &DeviceDataPrv__DEFAULT_RTOS_ALLOC;
    3800:	4b0f      	ldr	r3, [pc, #60]	; (3840 <TimerIntLdd1_Init+0x48>)
    3802:	60fb      	str	r3, [r7, #12]
/home/marcelo/Documentos/GER/SDP/SDP-2016/KDS/SDP-2016/Debug/../Generated_Code/TimerIntLdd1.c:149
  DeviceDataPrv->UserDataPtr = UserDataPtr; /* Store the RTOS device structure */
    3804:	68fb      	ldr	r3, [r7, #12]
    3806:	687a      	ldr	r2, [r7, #4]
    3808:	609a      	str	r2, [r3, #8]
/home/marcelo/Documentos/GER/SDP/SDP-2016/KDS/SDP-2016/Debug/../Generated_Code/TimerIntLdd1.c:150
  DeviceDataPrv->EnUser = FALSE;       /* Set the flag "device disabled" */
    380a:	68fb      	ldr	r3, [r7, #12]
    380c:	2200      	movs	r2, #0
    380e:	711a      	strb	r2, [r3, #4]
/home/marcelo/Documentos/GER/SDP/SDP-2016/KDS/SDP-2016/Debug/../Generated_Code/TimerIntLdd1.c:152
  /* Registration of the device structure */
  PE_LDD_RegisterDeviceStructure(PE_LDD_COMPONENT_TimerIntLdd1_ID,DeviceDataPrv);
    3810:	4b0c      	ldr	r3, [pc, #48]	; (3844 <TimerIntLdd1_Init+0x4c>)
    3812:	68fa      	ldr	r2, [r7, #12]
    3814:	60da      	str	r2, [r3, #12]
/home/marcelo/Documentos/GER/SDP/SDP-2016/KDS/SDP-2016/Debug/../Generated_Code/TimerIntLdd1.c:153
  DeviceDataPrv->LinkedDeviceDataPtr = TU1_Init((LDD_TUserData *)NULL);
    3816:	2000      	movs	r0, #0
    3818:	f7ff fe22 	bl	3460 <TU1_Init>
    381c:	1c02      	adds	r2, r0, #0
    381e:	68fb      	ldr	r3, [r7, #12]
    3820:	601a      	str	r2, [r3, #0]
/home/marcelo/Documentos/GER/SDP/SDP-2016/KDS/SDP-2016/Debug/../Generated_Code/TimerIntLdd1.c:154
  if (DeviceDataPrv->LinkedDeviceDataPtr == NULL) { /* Is initialization of TimerUnit unsuccessful? */
    3822:	68fb      	ldr	r3, [r7, #12]
    3824:	681b      	ldr	r3, [r3, #0]
    3826:	2b00      	cmp	r3, #0
    3828:	d104      	bne.n	3834 <TimerIntLdd1_Init+0x3c>
/home/marcelo/Documentos/GER/SDP/SDP-2016/KDS/SDP-2016/Debug/../Generated_Code/TimerIntLdd1.c:156
    /* Unregistration of the device structure */
    PE_LDD_UnregisterDeviceStructure(PE_LDD_COMPONENT_TimerIntLdd1_ID);
    382a:	4b06      	ldr	r3, [pc, #24]	; (3844 <TimerIntLdd1_Init+0x4c>)
    382c:	2200      	movs	r2, #0
    382e:	60da      	str	r2, [r3, #12]
/home/marcelo/Documentos/GER/SDP/SDP-2016/KDS/SDP-2016/Debug/../Generated_Code/TimerIntLdd1.c:159
    /* Deallocation of the device structure */
    /* {Default RTOS Adapter} Driver memory deallocation: Dynamic allocation is simulated, no deallocation code is generated */
    return NULL;                       /* If so, then the TimerInt initialization is also unsuccessful */
    3830:	2300      	movs	r3, #0
    3832:	e000      	b.n	3836 <TimerIntLdd1_Init+0x3e>
/home/marcelo/Documentos/GER/SDP/SDP-2016/KDS/SDP-2016/Debug/../Generated_Code/TimerIntLdd1.c:161
  }
  return ((LDD_TDeviceData *)DeviceDataPrv); /* Return pointer to the device data structure */
    3834:	68fb      	ldr	r3, [r7, #12]
/home/marcelo/Documentos/GER/SDP/SDP-2016/KDS/SDP-2016/Debug/../Generated_Code/TimerIntLdd1.c:162
}
    3836:	1c18      	adds	r0, r3, #0
    3838:	46bd      	mov	sp, r7
    383a:	b004      	add	sp, #16
    383c:	bd80      	pop	{r7, pc}
    383e:	46c0      	nop			; (mov r8, r8)
    3840:	1ffff19c 	.word	0x1ffff19c
    3844:	1ffff0cc 	.word	0x1ffff0cc

00003848 <TimerIntLdd1_Enable>:
TimerIntLdd1_Enable():
/home/marcelo/Documentos/GER/SDP/SDP-2016/KDS/SDP-2016/Debug/../Generated_Code/TimerIntLdd1.c:183
**                           ERR_SPEED - The component does not work in
**                           the active clock configuration
*/
/* ===================================================================*/
LDD_TError TimerIntLdd1_Enable(LDD_TDeviceData *DeviceDataPtr)
{
    3848:	b580      	push	{r7, lr}
    384a:	b084      	sub	sp, #16
    384c:	af00      	add	r7, sp, #0
    384e:	6078      	str	r0, [r7, #4]
/home/marcelo/Documentos/GER/SDP/SDP-2016/KDS/SDP-2016/Debug/../Generated_Code/TimerIntLdd1.c:184
  TimerIntLdd1_TDeviceData *DeviceDataPrv = (TimerIntLdd1_TDeviceData *)DeviceDataPtr;
    3850:	687b      	ldr	r3, [r7, #4]
    3852:	60fb      	str	r3, [r7, #12]
/home/marcelo/Documentos/GER/SDP/SDP-2016/KDS/SDP-2016/Debug/../Generated_Code/TimerIntLdd1.c:186

  if (!DeviceDataPrv->EnUser) {        /* Is the device disabled by user? */
    3854:	68fb      	ldr	r3, [r7, #12]
    3856:	791b      	ldrb	r3, [r3, #4]
    3858:	2b00      	cmp	r3, #0
    385a:	d107      	bne.n	386c <TimerIntLdd1_Enable+0x24>
/home/marcelo/Documentos/GER/SDP/SDP-2016/KDS/SDP-2016/Debug/../Generated_Code/TimerIntLdd1.c:187
    DeviceDataPrv->EnUser = TRUE;      /* If yes then set the flag "device enabled" */
    385c:	68fb      	ldr	r3, [r7, #12]
    385e:	2201      	movs	r2, #1
    3860:	711a      	strb	r2, [r3, #4]
/home/marcelo/Documentos/GER/SDP/SDP-2016/KDS/SDP-2016/Debug/../Generated_Code/TimerIntLdd1.c:188
    (void)TU1_Enable(DeviceDataPrv->LinkedDeviceDataPtr); /* Enable TimerUnit */
    3862:	68fb      	ldr	r3, [r7, #12]
    3864:	681b      	ldr	r3, [r3, #0]
    3866:	1c18      	adds	r0, r3, #0
    3868:	f7ff fe64 	bl	3534 <TU1_Enable>
/home/marcelo/Documentos/GER/SDP/SDP-2016/KDS/SDP-2016/Debug/../Generated_Code/TimerIntLdd1.c:190
  }
  return ERR_OK;
    386c:	2300      	movs	r3, #0
/home/marcelo/Documentos/GER/SDP/SDP-2016/KDS/SDP-2016/Debug/../Generated_Code/TimerIntLdd1.c:191
}
    386e:	1c18      	adds	r0, r3, #0
    3870:	46bd      	mov	sp, r7
    3872:	b004      	add	sp, #16
    3874:	bd80      	pop	{r7, pc}
    3876:	46c0      	nop			; (mov r8, r8)

00003878 <TimerIntLdd1_Disable>:
TimerIntLdd1_Disable():
/home/marcelo/Documentos/GER/SDP/SDP-2016/KDS/SDP-2016/Debug/../Generated_Code/TimerIntLdd1.c:212
**                           ERR_SPEED - The component does not work in
**                           the active clock configuration
*/
/* ===================================================================*/
LDD_TError TimerIntLdd1_Disable(LDD_TDeviceData *DeviceDataPtr)
{
    3878:	b580      	push	{r7, lr}
    387a:	b084      	sub	sp, #16
    387c:	af00      	add	r7, sp, #0
    387e:	6078      	str	r0, [r7, #4]
/home/marcelo/Documentos/GER/SDP/SDP-2016/KDS/SDP-2016/Debug/../Generated_Code/TimerIntLdd1.c:213
  TimerIntLdd1_TDeviceData *DeviceDataPrv = (TimerIntLdd1_TDeviceData *)DeviceDataPtr;
    3880:	687b      	ldr	r3, [r7, #4]
    3882:	60fb      	str	r3, [r7, #12]
/home/marcelo/Documentos/GER/SDP/SDP-2016/KDS/SDP-2016/Debug/../Generated_Code/TimerIntLdd1.c:215

  if (DeviceDataPrv->EnUser) {         /* Is the device enabled by user? */
    3884:	68fb      	ldr	r3, [r7, #12]
    3886:	791b      	ldrb	r3, [r3, #4]
    3888:	2b00      	cmp	r3, #0
    388a:	d007      	beq.n	389c <TimerIntLdd1_Disable+0x24>
/home/marcelo/Documentos/GER/SDP/SDP-2016/KDS/SDP-2016/Debug/../Generated_Code/TimerIntLdd1.c:216
    DeviceDataPrv->EnUser = FALSE;     /* If yes then set the flag "device enabled" */
    388c:	68fb      	ldr	r3, [r7, #12]
    388e:	2200      	movs	r2, #0
    3890:	711a      	strb	r2, [r3, #4]
/home/marcelo/Documentos/GER/SDP/SDP-2016/KDS/SDP-2016/Debug/../Generated_Code/TimerIntLdd1.c:217
   (void)TU1_Disable(DeviceDataPrv->LinkedDeviceDataPtr); /* Disable TimerUnit component */
    3892:	68fb      	ldr	r3, [r7, #12]
    3894:	681b      	ldr	r3, [r3, #0]
    3896:	1c18      	adds	r0, r3, #0
    3898:	f7ff fe62 	bl	3560 <TU1_Disable>
/home/marcelo/Documentos/GER/SDP/SDP-2016/KDS/SDP-2016/Debug/../Generated_Code/TimerIntLdd1.c:219
  }
  return ERR_OK;
    389c:	2300      	movs	r3, #0
/home/marcelo/Documentos/GER/SDP/SDP-2016/KDS/SDP-2016/Debug/../Generated_Code/TimerIntLdd1.c:220
}
    389e:	1c18      	adds	r0, r3, #0
    38a0:	46bd      	mov	sp, r7
    38a2:	b004      	add	sp, #16
    38a4:	bd80      	pop	{r7, pc}
    38a6:	46c0      	nop			; (mov r8, r8)

000038a8 <TU1_OnCounterRestart>:
TU1_OnCounterRestart():
/home/marcelo/Documentos/GER/SDP/SDP-2016/KDS/SDP-2016/Debug/../Generated_Code/TimerIntLdd1.c:233
**         eventually invokes event TimerIntLdd1_OnInterrupt.
**         This method is internal. It is used by Processor Expert only.
** ===================================================================
*/
void TU1_OnCounterRestart(LDD_TUserData *UserDataPtr)
{
    38a8:	b580      	push	{r7, lr}
    38aa:	b084      	sub	sp, #16
    38ac:	af00      	add	r7, sp, #0
    38ae:	6078      	str	r0, [r7, #4]
/home/marcelo/Documentos/GER/SDP/SDP-2016/KDS/SDP-2016/Debug/../Generated_Code/TimerIntLdd1.c:234
  TimerIntLdd1_TDeviceData *DeviceDataPrv = PE_LDD_DeviceDataList[PE_LDD_COMPONENT_TimerIntLdd1_ID];
    38b0:	4b05      	ldr	r3, [pc, #20]	; (38c8 <TU1_OnCounterRestart+0x20>)
    38b2:	68db      	ldr	r3, [r3, #12]
    38b4:	60fb      	str	r3, [r7, #12]
/home/marcelo/Documentos/GER/SDP/SDP-2016/KDS/SDP-2016/Debug/../Generated_Code/TimerIntLdd1.c:237

  (void)UserDataPtr;                   /* Parameter is not used, suppress unused argument warning */
  TimerIntLdd1_OnInterrupt(DeviceDataPrv->UserDataPtr); /* Invoke OnInterrupt event */
    38b6:	68fb      	ldr	r3, [r7, #12]
    38b8:	689b      	ldr	r3, [r3, #8]
    38ba:	1c18      	adds	r0, r3, #0
    38bc:	f7ff f9d0 	bl	2c60 <TimerIntLdd1_OnInterrupt>
/home/marcelo/Documentos/GER/SDP/SDP-2016/KDS/SDP-2016/Debug/../Generated_Code/TimerIntLdd1.c:238
}
    38c0:	46bd      	mov	sp, r7
    38c2:	b004      	add	sp, #16
    38c4:	bd80      	pop	{r7, pc}
    38c6:	46c0      	nop			; (mov r8, r8)
    38c8:	1ffff0cc 	.word	0x1ffff0cc

000038cc <exit>:
exit():
    38cc:	4b08      	ldr	r3, [pc, #32]	; (38f0 <exit+0x24>)
    38ce:	b510      	push	{r4, lr}
    38d0:	1c04      	adds	r4, r0, #0
    38d2:	2b00      	cmp	r3, #0
    38d4:	d002      	beq.n	38dc <exit+0x10>
    38d6:	2100      	movs	r1, #0
    38d8:	e000      	b.n	38dc <exit+0x10>
    38da:	bf00      	nop
    38dc:	4b05      	ldr	r3, [pc, #20]	; (38f4 <exit+0x28>)
    38de:	6818      	ldr	r0, [r3, #0]
    38e0:	6a83      	ldr	r3, [r0, #40]	; 0x28
    38e2:	2b00      	cmp	r3, #0
    38e4:	d000      	beq.n	38e8 <exit+0x1c>
    38e6:	4798      	blx	r3
    38e8:	1c20      	adds	r0, r4, #0
    38ea:	f000 f833 	bl	3954 <_exit>
    38ee:	46c0      	nop			; (mov r8, r8)
    38f0:	00000000 	.word	0x00000000
    38f4:	000039f8 	.word	0x000039f8

000038f8 <__libc_init_array>:
__libc_init_array():
    38f8:	b570      	push	{r4, r5, r6, lr}
    38fa:	4b0e      	ldr	r3, [pc, #56]	; (3934 <__libc_init_array+0x3c>)
    38fc:	4d0e      	ldr	r5, [pc, #56]	; (3938 <__libc_init_array+0x40>)
    38fe:	2400      	movs	r4, #0
    3900:	1aed      	subs	r5, r5, r3
    3902:	10ad      	asrs	r5, r5, #2
    3904:	1c1e      	adds	r6, r3, #0
    3906:	42ac      	cmp	r4, r5
    3908:	d004      	beq.n	3914 <__libc_init_array+0x1c>
    390a:	00a3      	lsls	r3, r4, #2
    390c:	58f3      	ldr	r3, [r6, r3]
    390e:	4798      	blx	r3
    3910:	3401      	adds	r4, #1
    3912:	e7f8      	b.n	3906 <__libc_init_array+0xe>
    3914:	f000 f872 	bl	39fc <_init>
    3918:	4b08      	ldr	r3, [pc, #32]	; (393c <__libc_init_array+0x44>)
    391a:	4d09      	ldr	r5, [pc, #36]	; (3940 <__libc_init_array+0x48>)
    391c:	2400      	movs	r4, #0
    391e:	1aed      	subs	r5, r5, r3
    3920:	10ad      	asrs	r5, r5, #2
    3922:	1c1e      	adds	r6, r3, #0
    3924:	42ac      	cmp	r4, r5
    3926:	d004      	beq.n	3932 <__libc_init_array+0x3a>
    3928:	00a3      	lsls	r3, r4, #2
    392a:	58f3      	ldr	r3, [r6, r3]
    392c:	4798      	blx	r3
    392e:	3401      	adds	r4, #1
    3930:	e7f8      	b.n	3924 <__libc_init_array+0x2c>
    3932:	bd70      	pop	{r4, r5, r6, pc}
    3934:	00003a1c 	.word	0x00003a1c
    3938:	00003a1c 	.word	0x00003a1c
    393c:	00003a1c 	.word	0x00003a1c
    3940:	00003a20 	.word	0x00003a20

00003944 <memset>:
memset():
    3944:	1c03      	adds	r3, r0, #0
    3946:	1882      	adds	r2, r0, r2
    3948:	4293      	cmp	r3, r2
    394a:	d002      	beq.n	3952 <memset+0xe>
    394c:	7019      	strb	r1, [r3, #0]
    394e:	3301      	adds	r3, #1
    3950:	e7fa      	b.n	3948 <memset+0x4>
    3952:	4770      	bx	lr

00003954 <_exit>:
_exit():
    3954:	e7fe      	b.n	3954 <_exit>
    3956:	46c0      	nop			; (mov r8, r8)
$d():
    3958:	00000b5c 	.word	0x00000b5c
    395c:	00000b0e 	.word	0x00000b0e
    3960:	00000b3c 	.word	0x00000b3c
    3964:	00000a96 	.word	0x00000a96
    3968:	00000b3c 	.word	0x00000b3c
    396c:	00000b32 	.word	0x00000b32
    3970:	00000b3c 	.word	0x00000b3c
    3974:	00000a96 	.word	0x00000a96
    3978:	00000b0e 	.word	0x00000b0e
    397c:	00000b0e 	.word	0x00000b0e
    3980:	00000b32 	.word	0x00000b32
    3984:	00000a96 	.word	0x00000a96
    3988:	00000a8e 	.word	0x00000a8e
    398c:	00000a8e 	.word	0x00000a8e
    3990:	00000a8e 	.word	0x00000a8e
    3994:	00000b42 	.word	0x00000b42
    3998:	000012e8 	.word	0x000012e8
    399c:	000014d6 	.word	0x000014d6
    39a0:	000014d6 	.word	0x000014d6
    39a4:	000012c8 	.word	0x000012c8
    39a8:	000011b2 	.word	0x000011b2
    39ac:	000011b2 	.word	0x000011b2
    39b0:	000012ba 	.word	0x000012ba
    39b4:	000012c8 	.word	0x000012c8
    39b8:	000011b2 	.word	0x000011b2
    39bc:	000012ba 	.word	0x000012ba
    39c0:	000011b2 	.word	0x000011b2
    39c4:	000012c8 	.word	0x000012c8
    39c8:	000011b0 	.word	0x000011b0
    39cc:	000011b0 	.word	0x000011b0
    39d0:	000011b0 	.word	0x000011b0
    39d4:	000014de 	.word	0x000014de
    39d8:	00001be8 	.word	0x00001be8
    39dc:	00001c16 	.word	0x00001c16
    39e0:	00001c4a 	.word	0x00001c4a
    39e4:	00001ba0 	.word	0x00001ba0
    39e8:	00001c6e 	.word	0x00001c6e

000039ec <Table>:
    39ec:	00000201                                ....

000039f0 <ChannelToPin>:
    39f0:	00004446 00000043                       FD..C...

000039f8 <_global_impure_ptr>:
    39f8:	1ffff000                                ....

000039fc <_init>:
$t():
    39fc:	b5f8      	push	{r3, r4, r5, r6, r7, lr}
    39fe:	46c0      	nop			; (mov r8, r8)
    3a00:	bcf8      	pop	{r3, r4, r5, r6, r7}
    3a02:	bc08      	pop	{r3}
    3a04:	469e      	mov	lr, r3
    3a06:	4770      	bx	lr

00003a08 <_fini>:
    3a08:	b5f8      	push	{r3, r4, r5, r6, r7, lr}
    3a0a:	46c0      	nop			; (mov r8, r8)
    3a0c:	bcf8      	pop	{r3, r4, r5, r6, r7}
    3a0e:	bc08      	pop	{r3}
    3a10:	469e      	mov	lr, r3
    3a12:	4770      	bx	lr
